///////////////////////////////////////////////////////////////////////////////
//
// IAR C/C++ Compiler V10.30.1.6000 for 8051              04/Sep/2021  10:07:20
// Copyright 2004-2018 IAR Systems AB.
// PC-locked license - IAR Embedded Workbench for 8051
//
//    Core               =  plain
//    Code model         =  banked
//    Data model         =  large
//    Calling convention =  xdata reentrant
//    Constant location  =  data_rom
//    Dptr setup         =  1,16
//                          
//    Source file        =  
//        C:\Users\OY\Desktop\ing\new\ZStack-2.5.1a\Projects\zstack\Samples\SampleApp\Source\SampleApp.c
//    Command line       =  
//        -f C:\Users\OY\AppData\Local\Temp\EW509E.tmp
//        (C:\Users\OY\Desktop\ing\new\ZStack-2.5.1a\Projects\zstack\Samples\SampleApp\Source\SampleApp.c
//        -D NWK_AUTO_POLL -D ZTOOL_P1 -D MT_TASK -D MT_SYS_FUNC -D MT_ZDO_FUNC
//        -D LCD_SUPPORTED=DEBUG -lC
//        C:\Users\OY\Desktop\ing\new\ZStack-2.5.1a\Projects\zstack\Samples\SampleApp\CC2530DB\EndDeviceEB\List
//        -lA
//        C:\Users\OY\Desktop\ing\new\ZStack-2.5.1a\Projects\zstack\Samples\SampleApp\CC2530DB\EndDeviceEB\List
//        --diag_suppress Pe001,Pa010 -o
//        C:\Users\OY\Desktop\ing\new\ZStack-2.5.1a\Projects\zstack\Samples\SampleApp\CC2530DB\EndDeviceEB\Obj
//        -e --debug --core=plain --dptr=16,1 --data_model=large
//        --code_model=banked --calling_convention=xdata_reentrant
//        --place_constants=data_rom --nr_virtual_regs 8 -f
//        C:\Users\OY\Desktop\ing\new\ZStack-2.5.1a\Projects\zstack\Samples\SampleApp\CC2530DB\..\..\..\Tools\CC2530DB\f8wEndev.cfg
//        (-DCPU32MHZ -DROOT=__near_func -DMAC_CFG_TX_DATA_MAX=3
//        -DMAC_CFG_TX_MAX=6 -DMAC_CFG_RX_MAX=3) -f
//        C:\Users\OY\Desktop\ing\new\ZStack-2.5.1a\Projects\zstack\Samples\SampleApp\CC2530DB\..\..\..\Tools\CC2530DB\f8wConfig.cfg
//        (-DZIGBEEPRO -DSECURE=0 -DZG_SECURE_DYNAMIC=0 -DREFLECTOR
//        -DDEFAULT_CHANLIST=0x00000800 -DZDAPP_CONFIG_PAN_ID=0xFFF1
//        -DNWK_START_DELAY=100 -DEXTENDED_JOINING_RANDOM_MASK=0x007F
//        -DBEACON_REQUEST_DELAY=100 -DBEACON_REQ_DELAY_MASK=0x00FF
//        -DLINK_STATUS_JITTER_MASK=0x007F -DROUTE_EXPIRY_TIME=30
//        -DAPSC_ACK_WAIT_DURATION_POLLED=3000 -DNWK_INDIRECT_MSG_TIMEOUT=7
//        -DMAX_RREQ_ENTRIES=8 -DAPSC_MAX_FRAME_RETRIES=3
//        -DNWK_MAX_DATA_RETRIES=2 -DMAX_POLL_FAILURE_RETRIES=2 -DMAX_BCAST=9
//        -DAPS_MAX_GROUPS=16 -DMAX_RTG_ENTRIES=40 -DNWK_MAX_BINDING_ENTRIES=4
//        -DMAX_BINDING_CLUSTER_IDS=4 "-DDEFAULT_KEY={0x01, 0x03, 0x05, 0x07,
//        0x09, 0x0B, 0x0D, 0x0F, 0x00, 0x02, 0x04, 0x06, 0x08, 0x0A, 0x0C,
//        0x0D}" -DMAC_MAX_FRAME_SIZE=116 -DZDNWKMGR_MIN_TRANSMISSIONS=20
//        "-DCONST=const __code" -DGENERIC=__generic -DRFD_RCVC_ALWAYS_ON=FALSE
//        -DPOLL_RATE=1000 -DQUEUED_POLL_RATE=100 -DRESPONSE_POLL_RATE=100
//        -DREJOIN_POLL_RATE=440) -I
//        C:\Users\OY\Desktop\ing\new\ZStack-2.5.1a\Projects\zstack\Samples\SampleApp\CC2530DB\
//        -I
//        C:\Users\OY\Desktop\ing\new\ZStack-2.5.1a\Projects\zstack\Samples\SampleApp\CC2530DB\..\Source\
//        -I
//        C:\Users\OY\Desktop\ing\new\ZStack-2.5.1a\Projects\zstack\Samples\SampleApp\CC2530DB\..\..\..\ZMain\TI2530DB\
//        -I
//        C:\Users\OY\Desktop\ing\new\ZStack-2.5.1a\Projects\zstack\Samples\SampleApp\CC2530DB\..\..\..\..\..\Components\hal\include\
//        -I
//        C:\Users\OY\Desktop\ing\new\ZStack-2.5.1a\Projects\zstack\Samples\SampleApp\CC2530DB\..\..\..\..\..\Components\hal\target\CC2530EB\
//        -I
//        C:\Users\OY\Desktop\ing\new\ZStack-2.5.1a\Projects\zstack\Samples\SampleApp\CC2530DB\..\..\..\..\..\Components\mac\include\
//        -I
//        C:\Users\OY\Desktop\ing\new\ZStack-2.5.1a\Projects\zstack\Samples\SampleApp\CC2530DB\..\..\..\..\..\Components\mac\high_level\
//        -I
//        C:\Users\OY\Desktop\ing\new\ZStack-2.5.1a\Projects\zstack\Samples\SampleApp\CC2530DB\..\..\..\..\..\Components\mac\low_level\srf04\
//        -I
//        C:\Users\OY\Desktop\ing\new\ZStack-2.5.1a\Projects\zstack\Samples\SampleApp\CC2530DB\..\..\..\..\..\Components\mac\low_level\srf04\single_chip\
//        -I
//        C:\Users\OY\Desktop\ing\new\ZStack-2.5.1a\Projects\zstack\Samples\SampleApp\CC2530DB\..\..\..\..\..\Components\mt\
//        -I
//        C:\Users\OY\Desktop\ing\new\ZStack-2.5.1a\Projects\zstack\Samples\SampleApp\CC2530DB\..\..\..\..\..\Components\osal\include\
//        -I
//        C:\Users\OY\Desktop\ing\new\ZStack-2.5.1a\Projects\zstack\Samples\SampleApp\CC2530DB\..\..\..\..\..\Components\services\saddr\
//        -I
//        C:\Users\OY\Desktop\ing\new\ZStack-2.5.1a\Projects\zstack\Samples\SampleApp\CC2530DB\..\..\..\..\..\Components\services\sdata\
//        -I
//        C:\Users\OY\Desktop\ing\new\ZStack-2.5.1a\Projects\zstack\Samples\SampleApp\CC2530DB\..\..\..\..\..\Components\stack\af\
//        -I
//        C:\Users\OY\Desktop\ing\new\ZStack-2.5.1a\Projects\zstack\Samples\SampleApp\CC2530DB\..\..\..\..\..\Components\stack\nwk\
//        -I
//        C:\Users\OY\Desktop\ing\new\ZStack-2.5.1a\Projects\zstack\Samples\SampleApp\CC2530DB\..\..\..\..\..\Components\stack\sapi\
//        -I
//        C:\Users\OY\Desktop\ing\new\ZStack-2.5.1a\Projects\zstack\Samples\SampleApp\CC2530DB\..\..\..\..\..\Components\stack\sec\
//        -I
//        C:\Users\OY\Desktop\ing\new\ZStack-2.5.1a\Projects\zstack\Samples\SampleApp\CC2530DB\..\..\..\..\..\Components\stack\sys\
//        -I
//        C:\Users\OY\Desktop\ing\new\ZStack-2.5.1a\Projects\zstack\Samples\SampleApp\CC2530DB\..\..\..\..\..\Components\stack\zdo\
//        -I
//        C:\Users\OY\Desktop\ing\new\ZStack-2.5.1a\Projects\zstack\Samples\SampleApp\CC2530DB\..\..\..\..\..\Components\zmac\
//        -I
//        C:\Users\OY\Desktop\ing\new\ZStack-2.5.1a\Projects\zstack\Samples\SampleApp\CC2530DB\..\..\..\..\..\Components\zmac\f8w\
//        -Ohz --no_code_motion)
//    Locale             =  Chinese (Simplified)_CHN.936
//    List file          =  
//        C:\Users\OY\Desktop\ing\new\ZStack-2.5.1a\Projects\zstack\Samples\SampleApp\CC2530DB\EndDeviceEB\List\SampleApp.s51
//
///////////////////////////////////////////////////////////////////////////////

        NAME SampleApp

        RTMODEL "__SystemLibrary", "CLib"
        RTMODEL "__calling_convention", "xdata_reentrant"
        RTMODEL "__code_model", "banked"
        RTMODEL "__core", "plain"
        RTMODEL "__data_model", "large"
        RTMODEL "__dptr_size", "16"
        RTMODEL "__extended_stack", "disabled"
        RTMODEL "__iar_require _formatted_write", ""
        RTMODEL "__location_for_constants", "data"
        RTMODEL "__number_of_dptrs", "1"
        RTMODEL "__register_banks", "*"
        RTMODEL "__rt_version", "1"

        RSEG DOVERLAY:DATA:NOROOT(0)
        RSEG IOVERLAY:IDATA:NOROOT(0)
        RSEG ISTACK:IDATA:NOROOT(0)
        RSEG PSTACK:XDATA:NOROOT(0)
        RSEG XSTACK:XDATA:NOROOT(0)

        EXTERN ?V0
        EXTERN ?V1
        EXTERN ?V2
        EXTERN ?V3
        EXTERN ?ALLOC_XSTACK8
        EXTERN ?BANKED_ENTER_XDATA
        EXTERN ?BANKED_LEAVE_XDATA
        EXTERN ?BDISPATCH
        EXTERN ?BRET
        EXTERN ?DEALLOC_XSTACK8
        EXTERN ?MOVE_LONG8_XDATA_XDATA
        EXTERN ?PUSH_XSTACK_I_ONE
        EXTERN ?PUSH_XSTACK_I_THREE
        EXTERN ?PUSH_XSTACK_I_TWO
        EXTERN ?XSP
        EXTERN ?XSTACK_DISP0_8
        EXTERN ?XSTACK_DISP100_8
        EXTERN ?XSTACK_DISP101_8
        EXTERN ?XSTACK_DISP102_8
        EXTERN __INIT_XDATA_I
        EXTERN __INIT_XDATA_Z

        PUBLIC `??SampleApp_CallBack::?relay`
        FUNCTION `??SampleApp_CallBack::?relay`,0203H
        PUBLIC `??SampleApp_HandleKeys::?relay`
        FUNCTION `??SampleApp_HandleKeys::?relay`,0203H
        PUBLIC `??SampleApp_Init::?relay`
        FUNCTION `??SampleApp_Init::?relay`,0203H
        PUBLIC `??SampleApp_ProcessEvent::?relay`
        FUNCTION `??SampleApp_ProcessEvent::?relay`,0203H
        FUNCTION `??SampleApp_ProcessMSGCmd::?relay`,0203H
        FUNCTION `??SampleApp_Send_P2P_Message::?relay`,0203H
        PUBLIC `??debug::?relay`
        FUNCTION `??debug::?relay`,0203H
        PUBLIC SampleApp_CallBack
        FUNCTION SampleApp_CallBack,021203H
        ARGFRAME XSTACK, 0, STACK
        LOCFRAME ISTACK, 2, STACK
        PUBLIC SampleApp_ClusterList
        PUBLIC SampleApp_HandleKeys
        FUNCTION SampleApp_HandleKeys,0203H
        ARGFRAME XSTACK, 0, STACK
        PUBLIC SampleApp_Init
        FUNCTION SampleApp_Init,021203H
        ARGFRAME XSTACK, 0, STACK
        LOCFRAME XSTACK, 9, STACK
        PUBLIC SampleApp_NwkState
        PUBLIC SampleApp_P2P_DstAddr
        PUBLIC SampleApp_ProcessEvent
        FUNCTION SampleApp_ProcessEvent,0a1203H
        ARGFRAME XSTACK, 0, STACK
        LOCFRAME XSTACK, 12, STACK
        FUNCTION SampleApp_ProcessMSGCmd,0a1203H
        ARGFRAME XSTACK, 12, STACK
        ARGFRAME IOVERLAY, 0, STATIC
        ARGFRAME DOVERLAY, 0, STATIC
        LOCFRAME XSTACK, 142, STACK
        FUNCTION SampleApp_Send_P2P_Message,0a1203H
        ARGFRAME XSTACK, 12, STACK
        ARGFRAME IOVERLAY, 0, STATIC
        ARGFRAME DOVERLAY, 0, STATIC
        LOCFRAME ISTACK, 1, STACK
        LOCFRAME XSTACK, 44, STACK
        PUBLIC SampleApp_SimpleDesc
        PUBLIC SampleApp_TaskID
        PUBLIC SampleApp_epDesc
        PUBWEAK _A_P0
        PUBWEAK _A_P1
        PUBLIC cor_led3
        PUBLIC debug
        FUNCTION debug,0203H
        ARGFRAME XSTACK, 0, STACK
        PUBLIC end_hum
        PUBLIC end_led2
        PUBLIC end_light
        PUBLIC end_temp
        PUBLIC onenet_login_ok
        
          CFI Names cfiNames0
          CFI StackFrame CFA_SP SP IDATA
          CFI StackFrame CFA_PSP16 PSP16 XDATA
          CFI StackFrame CFA_XSP16 XSP16 XDATA
          CFI StaticOverlayFrame CFA_IOVERLAY IOVERLAY
          CFI StaticOverlayFrame CFA_DOVERLAY DOVERLAY
          CFI Resource `PSW.CY`:1, `B.BR0`:1, `B.BR1`:1, `B.BR2`:1, `B.BR3`:1
          CFI Resource `B.BR4`:1, `B.BR5`:1, `B.BR6`:1, `B.BR7`:1, `VB.BR8`:1
          CFI Resource `VB.BR9`:1, `VB.BR10`:1, `VB.BR11`:1, `VB.BR12`:1
          CFI Resource `VB.BR13`:1, `VB.BR14`:1, `VB.BR15`:1, VB:8, B:8, A:8
          CFI Resource PSW:8, DPL0:8, DPH0:8, R0:8, R1:8, R2:8, R3:8, R4:8, R5:8
          CFI Resource R6:8, R7:8, V0:8, V1:8, V2:8, V3:8, V4:8, V5:8, V6:8, V7:8
          CFI Resource SP:8, PSPH:8, PSPL:8, PSP16:16, XSPH:8, XSPL:8, XSP16:16
          CFI VirtualResource ?RET:24
          CFI Resource ?BRET_EXT:8
          CFI VirtualResource ?RET_HIGH:8, ?RET_LOW:8
          CFI ResourceParts PSP16 PSPH, PSPL
          CFI ResourceParts XSP16 XSPH, XSPL
          CFI ResourceParts ?RET ?BRET_EXT, ?RET_HIGH, ?RET_LOW
          CFI EndNames cfiNames0
        
          CFI Common cfiCommon0 Using cfiNames0
          CFI CodeAlign 1
          CFI DataAlign -1
          CFI ReturnAddress ?RET CODE
          CFI CFA_DOVERLAY Used
          CFI CFA_IOVERLAY Used
          CFI CFA_SP SP+-3
          CFI CFA_PSP16 PSP16+0
          CFI CFA_XSP16 XSP16+0
          CFI `PSW.CY` SameValue
          CFI `B.BR0` SameValue
          CFI `B.BR1` SameValue
          CFI `B.BR2` SameValue
          CFI `B.BR3` SameValue
          CFI `B.BR4` SameValue
          CFI `B.BR5` SameValue
          CFI `B.BR6` SameValue
          CFI `B.BR7` SameValue
          CFI `VB.BR8` SameValue
          CFI `VB.BR9` SameValue
          CFI `VB.BR10` SameValue
          CFI `VB.BR11` SameValue
          CFI `VB.BR12` SameValue
          CFI `VB.BR13` SameValue
          CFI `VB.BR14` SameValue
          CFI `VB.BR15` SameValue
          CFI VB SameValue
          CFI B Undefined
          CFI A Undefined
          CFI PSW SameValue
          CFI DPL0 SameValue
          CFI DPH0 SameValue
          CFI R0 Undefined
          CFI R1 Undefined
          CFI R2 Undefined
          CFI R3 Undefined
          CFI R4 Undefined
          CFI R5 Undefined
          CFI R6 SameValue
          CFI R7 SameValue
          CFI V0 SameValue
          CFI V1 SameValue
          CFI V2 SameValue
          CFI V3 SameValue
          CFI V4 SameValue
          CFI V5 SameValue
          CFI V6 SameValue
          CFI V7 SameValue
          CFI PSPH Undefined
          CFI PSPL Undefined
          CFI XSPH Undefined
          CFI XSPL Undefined
          CFI ?RET Concat
          CFI ?BRET_EXT Frame(CFA_SP, 3)
          CFI ?RET_HIGH Frame(CFA_SP, 2)
          CFI ?RET_LOW Frame(CFA_SP, 1)
          CFI EndCommon cfiCommon0
        
        
          CFI Common cfiCommon1 Using cfiNames0
          CFI CodeAlign 1
          CFI DataAlign -1
          CFI ReturnAddress ?RET CODE
          CFI CFA_DOVERLAY Used
          CFI CFA_IOVERLAY Used
          CFI CFA_SP SP+-2
          CFI CFA_PSP16 PSP16+0
          CFI CFA_XSP16 XSP16+0
          CFI `PSW.CY` SameValue
          CFI `B.BR0` SameValue
          CFI `B.BR1` SameValue
          CFI `B.BR2` SameValue
          CFI `B.BR3` SameValue
          CFI `B.BR4` SameValue
          CFI `B.BR5` SameValue
          CFI `B.BR6` SameValue
          CFI `B.BR7` SameValue
          CFI `VB.BR8` SameValue
          CFI `VB.BR9` SameValue
          CFI `VB.BR10` SameValue
          CFI `VB.BR11` SameValue
          CFI `VB.BR12` SameValue
          CFI `VB.BR13` SameValue
          CFI `VB.BR14` SameValue
          CFI `VB.BR15` SameValue
          CFI VB SameValue
          CFI B SameValue
          CFI A SameValue
          CFI PSW SameValue
          CFI DPL0 SameValue
          CFI DPH0 SameValue
          CFI R0 SameValue
          CFI R1 SameValue
          CFI R2 SameValue
          CFI R3 SameValue
          CFI R4 SameValue
          CFI R5 SameValue
          CFI R6 SameValue
          CFI R7 SameValue
          CFI V0 SameValue
          CFI V1 SameValue
          CFI V2 SameValue
          CFI V3 SameValue
          CFI V4 SameValue
          CFI V5 SameValue
          CFI V6 SameValue
          CFI V7 SameValue
          CFI PSPH Undefined
          CFI PSPL Undefined
          CFI XSPH Undefined
          CFI XSPL Undefined
          CFI ?RET Concat
          CFI ?BRET_EXT SameValue
          CFI ?RET_HIGH Frame(CFA_SP, 2)
          CFI ?RET_LOW Frame(CFA_SP, 1)
          CFI EndCommon cfiCommon1
        
AF_DataRequest      SYMBOL "AF_DataRequest"
`??AF_DataRequest::?relay` SYMBOL "?relay", AF_DataRequest
DHT11               SYMBOL "DHT11"
`??DHT11::?relay`   SYMBOL "?relay", DHT11
HalAdcInit          SYMBOL "HalAdcInit"
`??HalAdcInit::?relay` SYMBOL "?relay", HalAdcInit
HalAdcRead          SYMBOL "HalAdcRead"
`??HalAdcRead::?relay` SYMBOL "?relay", HalAdcRead
HalLcdWriteString   SYMBOL "HalLcdWriteString"
`??HalLcdWriteString::?relay` SYMBOL "?relay", HalLcdWriteString
HalLedSet           SYMBOL "HalLedSet"
`??HalLedSet::?relay` SYMBOL "?relay", HalLedSet
HalUARTRead         SYMBOL "HalUARTRead"
`??HalUARTRead::?relay` SYMBOL "?relay", HalUARTRead
HalUARTWrite        SYMBOL "HalUARTWrite"
`??HalUARTWrite::?relay` SYMBOL "?relay", HalUARTWrite
MT_UartInit         SYMBOL "MT_UartInit"
`??MT_UartInit::?relay` SYMBOL "?relay", MT_UartInit
MT_UartRegisterTaskID SYMBOL "MT_UartRegisterTaskID"
`??MT_UartRegisterTaskID::?relay` SYMBOL "?relay", MT_UartRegisterTaskID
RegisterForKeys     SYMBOL "RegisterForKeys"
`??RegisterForKeys::?relay` SYMBOL "?relay", RegisterForKeys
afRegister          SYMBOL "afRegister"
`??afRegister::?relay` SYMBOL "?relay", afRegister
osal_memcpy         SYMBOL "osal_memcpy"
`??osal_memcpy::?relay` SYMBOL "?relay", osal_memcpy
osal_memset         SYMBOL "osal_memset"
`??osal_memset::?relay` SYMBOL "?relay", osal_memset
osal_msg_deallocate SYMBOL "osal_msg_deallocate"
`??osal_msg_deallocate::?relay` SYMBOL "?relay", osal_msg_deallocate
osal_msg_receive    SYMBOL "osal_msg_receive"
`??osal_msg_receive::?relay` SYMBOL "?relay", osal_msg_receive
osal_rand           SYMBOL "osal_rand"
`??osal_rand::?relay` SYMBOL "?relay", osal_rand
osal_start_timerEx  SYMBOL "osal_start_timerEx"
`??osal_start_timerEx::?relay` SYMBOL "?relay", osal_start_timerEx
osal_strlen         SYMBOL "osal_strlen"
`??osal_strlen::?relay` SYMBOL "?relay", osal_strlen
sprintf             SYMBOL "sprintf"
`??sprintf::?relay` SYMBOL "?relay", sprintf
strstr              SYMBOL "strstr"
`??strstr::?relay`  SYMBOL "?relay", strstr
SampleApp_CallBack  SYMBOL "SampleApp_CallBack"
`??SampleApp_CallBack::?relay` SYMBOL "?relay", SampleApp_CallBack
SampleApp_HandleKeys SYMBOL "SampleApp_HandleKeys"
`??SampleApp_HandleKeys::?relay` SYMBOL "?relay", SampleApp_HandleKeys
SampleApp_Init      SYMBOL "SampleApp_Init"
`??SampleApp_Init::?relay` SYMBOL "?relay", SampleApp_Init
SampleApp_ProcessEvent SYMBOL "SampleApp_ProcessEvent"
`??SampleApp_ProcessEvent::?relay` SYMBOL "?relay", SampleApp_ProcessEvent
debug               SYMBOL "debug"
`??debug::?relay`   SYMBOL "?relay", debug

        EXTERN `??AF_DataRequest::?relay`
        FUNCTION `??AF_DataRequest::?relay`,00H
        EXTERN `??DHT11::?relay`
        FUNCTION `??DHT11::?relay`,00H
        EXTERN `??HalAdcInit::?relay`
        FUNCTION `??HalAdcInit::?relay`,00H
        EXTERN `??HalAdcRead::?relay`
        FUNCTION `??HalAdcRead::?relay`,00H
        EXTERN `??HalLcdWriteString::?relay`
        FUNCTION `??HalLcdWriteString::?relay`,00H
        EXTERN `??HalLedSet::?relay`
        FUNCTION `??HalLedSet::?relay`,00H
        EXTERN `??HalUARTRead::?relay`
        FUNCTION `??HalUARTRead::?relay`,00H
        EXTERN `??HalUARTWrite::?relay`
        FUNCTION `??HalUARTWrite::?relay`,00H
        EXTERN `??MT_UartInit::?relay`
        FUNCTION `??MT_UartInit::?relay`,00H
        EXTERN `??MT_UartRegisterTaskID::?relay`
        FUNCTION `??MT_UartRegisterTaskID::?relay`,00H
        EXTERN `??RegisterForKeys::?relay`
        FUNCTION `??RegisterForKeys::?relay`,00H
        EXTERN `??afRegister::?relay`
        FUNCTION `??afRegister::?relay`,00H
        EXTERN `??osal_memcpy::?relay`
        FUNCTION `??osal_memcpy::?relay`,00H
        EXTERN `??osal_memset::?relay`
        FUNCTION `??osal_memset::?relay`,00H
        EXTERN `??osal_msg_deallocate::?relay`
        FUNCTION `??osal_msg_deallocate::?relay`,00H
        EXTERN `??osal_msg_receive::?relay`
        FUNCTION `??osal_msg_receive::?relay`,00H
        EXTERN `??osal_rand::?relay`
        FUNCTION `??osal_rand::?relay`,00H
        EXTERN `??osal_start_timerEx::?relay`
        FUNCTION `??osal_start_timerEx::?relay`,00H
        EXTERN `??osal_strlen::?relay`
        FUNCTION `??osal_strlen::?relay`,00H
        EXTERN `??sprintf::?relay`
        FUNCTION `??sprintf::?relay`,00H
        EXTERN `??strstr::?relay`
        FUNCTION `??strstr::?relay`,00H
        EXTERN AF_DataRequest
        FUNCTION AF_DataRequest,0202H
        ARGFRAME ISTACK, 0, STACK
        ARGFRAME PSTACK, 0, STACK
        ARGFRAME XSTACK, 44, STACK
        ARGFRAME IOVERLAY, 0, STATIC
        ARGFRAME DOVERLAY, 0, STATIC
        EXTERN DHT11
        FUNCTION DHT11,0202H
        ARGFRAME ISTACK, 0, STACK
        ARGFRAME PSTACK, 0, STACK
        ARGFRAME XSTACK, 35, STACK
        ARGFRAME IOVERLAY, 0, STATIC
        ARGFRAME DOVERLAY, 0, STATIC
        EXTERN HalAdcInit
        FUNCTION HalAdcInit,0202H
        ARGFRAME ISTACK, 0, STACK
        ARGFRAME PSTACK, 0, STACK
        ARGFRAME XSTACK, 35, STACK
        ARGFRAME IOVERLAY, 0, STATIC
        ARGFRAME DOVERLAY, 0, STATIC
        EXTERN HalAdcRead
        FUNCTION HalAdcRead,0202H
        ARGFRAME ISTACK, 0, STACK
        ARGFRAME PSTACK, 0, STACK
        ARGFRAME XSTACK, 35, STACK
        ARGFRAME IOVERLAY, 0, STATIC
        ARGFRAME DOVERLAY, 0, STATIC
        EXTERN HalLcdWriteString
        FUNCTION HalLcdWriteString,0202H
        ARGFRAME ISTACK, 0, STACK
        ARGFRAME PSTACK, 0, STACK
        ARGFRAME XSTACK, 35, STACK
        ARGFRAME IOVERLAY, 0, STATIC
        ARGFRAME DOVERLAY, 0, STATIC
        EXTERN HalLedSet
        FUNCTION HalLedSet,0202H
        ARGFRAME ISTACK, 0, STACK
        ARGFRAME PSTACK, 0, STACK
        ARGFRAME XSTACK, 139, STACK
        ARGFRAME IOVERLAY, 0, STATIC
        ARGFRAME DOVERLAY, 0, STATIC
        EXTERN HalUARTRead
        FUNCTION HalUARTRead,0202H
        ARGFRAME ISTACK, 2, STACK
        ARGFRAME PSTACK, 0, STACK
        ARGFRAME XSTACK, 0, STACK
        ARGFRAME IOVERLAY, 0, STATIC
        ARGFRAME DOVERLAY, 0, STATIC
        EXTERN HalUARTWrite
        FUNCTION HalUARTWrite,0202H
        ARGFRAME ISTACK, 0, STACK
        ARGFRAME PSTACK, 0, STACK
        ARGFRAME XSTACK, 139, STACK
        ARGFRAME IOVERLAY, 0, STATIC
        ARGFRAME DOVERLAY, 0, STATIC
        EXTERN MT_UartInit
        FUNCTION MT_UartInit,0200H
        ARGFRAME ISTACK, 0, STACK
        ARGFRAME PSTACK, 0, STACK
        ARGFRAME XSTACK, 9, STACK
        ARGFRAME IOVERLAY, 0, STATIC
        ARGFRAME DOVERLAY, 0, STATIC
        EXTERN MT_UartRegisterTaskID
        FUNCTION MT_UartRegisterTaskID,0200H
        ARGFRAME ISTACK, 0, STACK
        ARGFRAME PSTACK, 0, STACK
        ARGFRAME XSTACK, 9, STACK
        ARGFRAME IOVERLAY, 0, STATIC
        ARGFRAME DOVERLAY, 0, STATIC
        EXTERN RegisterForKeys
        FUNCTION RegisterForKeys,0202H
        ARGFRAME ISTACK, 0, STACK
        ARGFRAME PSTACK, 0, STACK
        ARGFRAME XSTACK, 9, STACK
        ARGFRAME IOVERLAY, 0, STATIC
        ARGFRAME DOVERLAY, 0, STATIC
        EXTERN afRegister
        FUNCTION afRegister,0202H
        ARGFRAME ISTACK, 0, STACK
        ARGFRAME PSTACK, 0, STACK
        ARGFRAME XSTACK, 9, STACK
        ARGFRAME IOVERLAY, 0, STATIC
        ARGFRAME DOVERLAY, 0, STATIC
        EXTERN osal_memcpy
        FUNCTION osal_memcpy,0202H
        ARGFRAME ISTACK, 0, STACK
        ARGFRAME PSTACK, 0, STACK
        ARGFRAME XSTACK, 142, STACK
        ARGFRAME IOVERLAY, 0, STATIC
        ARGFRAME DOVERLAY, 0, STATIC
        EXTERN osal_memset
        FUNCTION osal_memset,0202H
        ARGFRAME ISTACK, 0, STACK
        ARGFRAME PSTACK, 0, STACK
        ARGFRAME XSTACK, 139, STACK
        ARGFRAME IOVERLAY, 0, STATIC
        ARGFRAME DOVERLAY, 0, STATIC
        EXTERN osal_msg_deallocate
        FUNCTION osal_msg_deallocate,0202H
        ARGFRAME ISTACK, 0, STACK
        ARGFRAME PSTACK, 0, STACK
        ARGFRAME XSTACK, 12, STACK
        ARGFRAME IOVERLAY, 0, STATIC
        ARGFRAME DOVERLAY, 0, STATIC
        EXTERN osal_msg_receive
        FUNCTION osal_msg_receive,0202H
        ARGFRAME ISTACK, 0, STACK
        ARGFRAME PSTACK, 0, STACK
        ARGFRAME XSTACK, 12, STACK
        ARGFRAME IOVERLAY, 0, STATIC
        ARGFRAME DOVERLAY, 0, STATIC
        EXTERN osal_rand
        FUNCTION osal_rand,0202H
        ARGFRAME ISTACK, 0, STACK
        ARGFRAME PSTACK, 0, STACK
        ARGFRAME XSTACK, 12, STACK
        ARGFRAME IOVERLAY, 0, STATIC
        ARGFRAME DOVERLAY, 0, STATIC
        EXTERN osal_start_timerEx
        FUNCTION osal_start_timerEx,0202H
        ARGFRAME ISTACK, 0, STACK
        ARGFRAME PSTACK, 0, STACK
        ARGFRAME XSTACK, 12, STACK
        ARGFRAME IOVERLAY, 0, STATIC
        ARGFRAME DOVERLAY, 0, STATIC
        EXTERN osal_strlen
        FUNCTION osal_strlen,0202H
        ARGFRAME ISTACK, 0, STACK
        ARGFRAME PSTACK, 0, STACK
        ARGFRAME XSTACK, 139, STACK
        ARGFRAME IOVERLAY, 0, STATIC
        ARGFRAME DOVERLAY, 0, STATIC
        EXTERN shidu
        EXTERN sprintf
        FUNCTION sprintf,0202H
        ARGFRAME ISTACK, 0, STACK
        ARGFRAME PSTACK, 0, STACK
        ARGFRAME XSTACK, 39, STACK
        ARGFRAME IOVERLAY, 0, STATIC
        ARGFRAME DOVERLAY, 0, STATIC
        EXTERN strstr
        FUNCTION strstr,010202H
        ARGFRAME ISTACK, 0, STACK
        ARGFRAME PSTACK, 0, STACK
        ARGFRAME XSTACK, 139, STACK
        ARGFRAME IOVERLAY, 0, STATIC
        ARGFRAME DOVERLAY, 0, STATIC
        EXTERN wendu

// C:\Users\OY\Desktop\ing\new\ZStack-2.5.1a\Projects\zstack\Samples\SampleApp\Source\SampleApp.c
//    1 /*********************************************************************
//    2  * INCLUDES
//    3  */
//    4 
//    5 #include <stdio.h>
//    6 #include <string.h>
//    7 #include "AF.h"
//    8 #include "OnBoard.h"

        ASEGN SFR_AN:DATA:NOROOT,080H
// union <unnamed> volatile __sfr _A_P0
_A_P0:
        DATA8
        DS 1

        ASEGN SFR_AN:DATA:NOROOT,090H
// union <unnamed> volatile __sfr _A_P1
_A_P1:
        DATA8
        DS 1
//    9 #include "OSAL_Tasks.h"
//   10 #include "SampleApp.h"
//   11 #include "ZDApp.h"
//   12 #include "ZDObject.h"
//   13 #include "ZDProfile.h"
//   14 
//   15 #include "hal_drivers.h"
//   16 #include "hal_key.h"
//   17 #if defined(LCD_SUPPORTED)
//   18 #include "hal_lcd.h"
//   19 #endif
//   20 #include "hal_led.h"
//   21 #include "hal_uart.h"
//   22 
//   23 #ifdef ZDO_COORDINATOR
//   24 //协议文件
//   25 #include "mqtt.h"
//   26 #include "mqttkit.h"
//   27 
//   28 #else
//   29 
//   30 #include "dht11.h"
//   31 
//   32 #endif
//   33 
//   34 /*********************************************************************
//   35  * MACROS
//   36  */
//   37 
//   38 /*********************************************************************
//   39  * CONSTANTS
//   40  */
//   41 
//   42 #if !defined(SAMPLE_APP_PORT)
//   43 #define SAMPLE_APP_PORT 0
//   44 #endif
//   45 
//   46 #if !defined(SAMPLE_APP_RX_MAX)
//   47 #define SAMPLE_APP_RX_MAX 200
//   48 #endif
//   49 
//   50 // This list should be filled with Application specific Cluster IDs.

        RSEG XDATA_ROM_C:CONST:REORDER:NOROOT(0)
        DATA8
//   51 const cId_t SampleApp_ClusterList[SAMPLE_MAX_CLUSTERS] =
SampleApp_ClusterList:
        DATA16
        DW 1
        DW 2
        DW 3
        DW 4
//   52     {
//   53         SAMPLEAPP_P2P_CLUSTERID,
//   54         SAMPLEAPP_PERIODIC_CLUSTERID,
//   55         SERIALAPP_CONNECTREQ_CLUSTER,
//   56         SAMPLEAPP_CTE_CLUSTERID // coor to end
//   57 };
//   58 

        RSEG XDATA_ROM_C:CONST:REORDER:NOROOT(0)
        DATA8
//   59 const SimpleDescriptionFormat_t SampleApp_SimpleDesc =
SampleApp_SimpleDesc:
        DB 11
        DATA16
        DW 3845
        DW 1
        DATA8
        DB 0
        DB 4
        DATA16
        DW SampleApp_ClusterList
        DATA8
        DB 4
        DATA16
        DW SampleApp_ClusterList
//   60     {
//   61         SAMPLEAPP_ENDPOINT,             //  int   Endpoint;
//   62         SAMPLEAPP_PROFID,               //  uint16 AppProfId[2];
//   63         SAMPLEAPP_DEVICEID,             //  uint16 AppDeviceId[2];
//   64         SAMPLEAPP_DEVICE_VERSION,       //  int   AppDevVer:4;
//   65         SAMPLEAPP_FLAGS,                //  int   AppFlags:4;
//   66         SAMPLE_MAX_CLUSTERS,            //  byte  AppNumInClusters;
//   67         (cId_t *)SampleApp_ClusterList, //  byte *pAppInClusterList;
//   68         SAMPLE_MAX_CLUSTERS,            //  byte  AppNumOutClusters;
//   69         (cId_t *)SampleApp_ClusterList  //  byte *pAppOutClusterList;
//   70 };
//   71 

        RSEG XDATA_I:XDATA:NOROOT(0)
//   72 endPointDesc_t SampleApp_epDesc =
SampleApp_epDesc:
        DATA8
        DS 6
        REQUIRE `?<Initializer for SampleApp_epDesc>`
        REQUIRE __INIT_XDATA_I
//   73     {
//   74         SAMPLEAPP_ENDPOINT,
//   75         &SampleApp_TaskID,
//   76         (SimpleDescriptionFormat_t *)&SampleApp_SimpleDesc,
//   77         noLatencyReqs};
//   78 
//   79 /*********************************************************************
//   80  * TYPEDEFS
//   81  */
//   82 
//   83 /*********************************************************************
//   84  * GLOBAL VARIABLES
//   85  */

        RSEG XDATA_Z:XDATA:NOROOT(0)
        DATA8
//   86 devStates_t SampleApp_NwkState;
SampleApp_NwkState:
        DS 1
        REQUIRE __INIT_XDATA_Z

        RSEG XDATA_Z:XDATA:NOROOT(0)
        DATA8
//   87 uint8 SampleApp_TaskID; // Task ID for internal task/event processing.
SampleApp_TaskID:
        DS 1
        REQUIRE __INIT_XDATA_Z
//   88 
//   89 /*********************************************************************
//   90  * EXTERNAL VARIABLES
//   91  */
//   92 
//   93 /*********************************************************************
//   94  * EXTERNAL FUNCTIONS
//   95  */
//   96 
//   97 /*********************************************************************
//   98  * LOCAL VARIABLES
//   99  */
//  100 

        RSEG XDATA_Z:XDATA:NOROOT(0)
        DATA8
//  101 static uint8 SampleApp_MsgID; //消息id
SampleApp_MsgID:
        DS 1
        REQUIRE __INIT_XDATA_Z
//  102 

        RSEG XDATA_Z:XDATA:NOROOT(0)
        DATA8
//  103 afAddrType_t SampleApp_P2P_DstAddr; //播类型
SampleApp_P2P_DstAddr:
        DS 12
        REQUIRE __INIT_XDATA_Z
//  104 

        RSEG XDATA_Z:XDATA:NOROOT(0)
        DATA8
//  105 static uint8 SampleApp_RxBuf[SAMPLE_APP_RX_MAX + 1] = {0};
SampleApp_RxBuf:
        DS 201
        REQUIRE __INIT_XDATA_Z
//  106 static uint16 SampleApp_RxLen = 0;
//  107 

        RSEG XDATA_Z:XDATA:NOROOT(0)
        DATA8
//  108 uint8 onenet_login_ok = 0; //onenet注册成功 0:未注册，1：注册中　2：注册成功
onenet_login_ok:
        DS 1
        REQUIRE __INIT_XDATA_Z

        RSEG XDATA_Z:XDATA:NOROOT(0)
        DATA8
//  109 uint8 end_temp;            //终端的温度
end_temp:
        DS 1
        REQUIRE __INIT_XDATA_Z

        RSEG XDATA_Z:XDATA:NOROOT(0)
        DATA8
//  110 uint8 end_hum;             //终端的湿度
end_hum:
        DS 1
        REQUIRE __INIT_XDATA_Z
//  111 

        RSEG XDATA_Z:XDATA:NOROOT(0)
        DATA8
//  112 uint8 end_light = 0; //开发板区域亮度     亮0-127灭
end_light:
        DS 1
        REQUIRE __INIT_XDATA_Z

        RSEG XDATA_Z:XDATA:NOROOT(0)
        DATA8
//  113 uint8 end_led2 = 0;  //终端节点开发板led3状态     0灭 1亮
end_led2:
        DS 1
        REQUIRE __INIT_XDATA_Z

        RSEG XDATA_Z:XDATA:NOROOT(0)
        DATA8
//  114 uint8 cor_led3 = 0;  //协调器led3 0灭 1亮
cor_led3:
        DS 1
        REQUIRE __INIT_XDATA_Z
//  115 #ifdef ZDO_COORDINATOR
//  116 signed char *g_mqtt_topics_set[5] = {NULL};
//  117 u8 topics_buff[60] = {0};
//  118 u8 topics_post[100] = {0};  //发布的主题
//  119 u8 mqtt_message[200] = {0}; //发布的消息
//  120 #endif
//  121 
//  122 /*********************************************************************
//  123  * LOCAL FUNCTIONS
//  124  */
//  125 
//  126 static void SampleApp_ProcessMSGCmd(afIncomingMSGPacket_t *pkt);
//  127 void SampleApp_CallBack(uint8 port, uint8 event);
//  128 static void SampleApp_Send_P2P_Message(void);
//  129 static void OneNet_publish_topic();
//  130 void debug(uint8 *msg, ...);
//  131 
//  132 /*********************************************************************
//  133  * @fn      SampleApp_Init
//  134  *
//  135  * @brief   This is called during OSAL tasks' initialization.
//  136  *
//  137  * @param   task_id - the Task ID assigned by OSAL.
//  138  *
//  139  * @return  none
//  140  */

        RSEG BANKED_CODE:HUGECODE:NOROOT(0)
//  141 void SampleApp_Init(uint8 task_id)
SampleApp_Init:
          CFI Block cfiBlock0 Using cfiCommon0
          CFI Function SampleApp_Init
        CODE
//  142 {
        FUNCALL SampleApp_Init, MT_UartInit
        LOCFRAME ISTACK, 0, STACK
        LOCFRAME PSTACK, 0, STACK
        LOCFRAME XSTACK, 9, STACK
        LOCFRAME IOVERLAY, 0, STATIC
        LOCFRAME DOVERLAY, 0, STATIC
        ARGFRAME ISTACK, 0, STACK
        ARGFRAME PSTACK, 0, STACK
        ARGFRAME XSTACK, 9, STACK
        ARGFRAME IOVERLAY, 0, STATIC
        ARGFRAME DOVERLAY, 0, STATIC
        FUNCALL SampleApp_Init, MT_UartRegisterTaskID
        LOCFRAME ISTACK, 0, STACK
        LOCFRAME PSTACK, 0, STACK
        LOCFRAME XSTACK, 9, STACK
        LOCFRAME IOVERLAY, 0, STATIC
        LOCFRAME DOVERLAY, 0, STATIC
        ARGFRAME ISTACK, 0, STACK
        ARGFRAME PSTACK, 0, STACK
        ARGFRAME XSTACK, 9, STACK
        ARGFRAME IOVERLAY, 0, STATIC
        ARGFRAME DOVERLAY, 0, STATIC
        FUNCALL SampleApp_Init, afRegister
        LOCFRAME ISTACK, 0, STACK
        LOCFRAME PSTACK, 0, STACK
        LOCFRAME XSTACK, 9, STACK
        LOCFRAME IOVERLAY, 0, STATIC
        LOCFRAME DOVERLAY, 0, STATIC
        ARGFRAME ISTACK, 0, STACK
        ARGFRAME PSTACK, 0, STACK
        ARGFRAME XSTACK, 9, STACK
        ARGFRAME IOVERLAY, 0, STATIC
        ARGFRAME DOVERLAY, 0, STATIC
        FUNCALL SampleApp_Init, RegisterForKeys
        LOCFRAME ISTACK, 0, STACK
        LOCFRAME PSTACK, 0, STACK
        LOCFRAME XSTACK, 9, STACK
        LOCFRAME IOVERLAY, 0, STATIC
        LOCFRAME DOVERLAY, 0, STATIC
        ARGFRAME ISTACK, 0, STACK
        ARGFRAME PSTACK, 0, STACK
        ARGFRAME XSTACK, 9, STACK
        ARGFRAME IOVERLAY, 0, STATIC
        ARGFRAME DOVERLAY, 0, STATIC
        MOV       A,#-0x9
        LCALL     ?BANKED_ENTER_XDATA
          CFI DPH0 load(1, XDATA, add(CFA_XSP16, literal(-1)))
          CFI DPL0 load(1, XDATA, add(CFA_XSP16, literal(-2)))
          CFI ?BRET_EXT load(1, XDATA, add(CFA_XSP16, literal(-3)))
          CFI ?RET_HIGH load(1, XDATA, add(CFA_XSP16, literal(-4)))
          CFI ?RET_LOW load(1, XDATA, add(CFA_XSP16, literal(-5)))
          CFI R7 load(1, XDATA, add(CFA_XSP16, literal(-6)))
          CFI V0 load(1, XDATA, add(CFA_XSP16, literal(-7)))
          CFI VB load(1, XDATA, add(CFA_XSP16, literal(-8)))
          CFI R6 load(1, XDATA, add(CFA_XSP16, literal(-9)))
          CFI CFA_SP SP+0
          CFI CFA_XSP16 add(XSP16, 9)
        ; Saved register size: 9
        ; Auto size: 0
        MOV       A,R1
        MOV       R6,A
//  143   halUARTCfg_t uartConfig;
//  144 
//  145   SampleApp_TaskID = task_id;
        MOV       DPTR,#SampleApp_TaskID
        MOVX      @DPTR,A
//  146   SampleApp_NwkState = DEV_INIT;
        MOV       DPTR,#SampleApp_NwkState
        MOV       A,#0x1
        MOVX      @DPTR,A
//  147 
//  148   MT_UartInit();                  //串口初始化
        ; Setup parameters for call to function MT_UartInit
        LCALL     `??MT_UartInit::?relay`; Banked call to: MT_UartInit
//  149   MT_UartRegisterTaskID(task_id); //注册串口任务
        ; Setup parameters for call to function MT_UartRegisterTaskID
        MOV       A,R6
        MOV       R2,A
        MOV       R3,#0x0
        LCALL     `??MT_UartRegisterTaskID::?relay`; Banked call to: MT_UartRegisterTaskID
//  150   afRegister((endPointDesc_t *)&SampleApp_epDesc);
        ; Setup parameters for call to function afRegister
        MOV       R2,#SampleApp_epDesc & 0xff
        MOV       R3,#(SampleApp_epDesc >> 8) & 0xff
        LCALL     `??afRegister::?relay`; Banked call to: afRegister
//  151   RegisterForKeys(task_id);
        ; Setup parameters for call to function RegisterForKeys
        MOV       A,R6
        MOV       R1,A
        LCALL     `??RegisterForKeys::?relay`; Banked call to: RegisterForKeys
//  152 
//  153 #ifdef ZDO_COORDINATOR
//  154   //协调器初始化
//  155 
//  156   //逢蜂鸣器初始化
//  157 
//  158   //  P0SEL &= ~0x80;                 //设置P07为普通IO口
//  159   //  P0DIR |= 0x80;                 //P07定义为输出口
//  160   //
//  161   //  //默认蜂鸣器不响
//  162   //  P0_7=1;
//  163 
//  164   //初始化发布的主题
//  165   sprintf(topics_post, "/post"); //"/sys/%s/%s/thing/event/property/post",ProductKey,DeviceName);
//  166 
//  167   //初始化订阅的主题
//  168   sprintf(topics_buff, "/set"); //"/sys/%s/%s/thing/service/property/set",ProductKey,DeviceName);// /sys/a1sYYwS4kmH/mytestdev/thing/service/property/set
//  169   g_mqtt_topics_set[0] = topics_buff;
//  170 
//  171   //协调器广播给终端
//  172   SampleApp_P2P_DstAddr.addrMode = (afAddrMode_t)AddrBroadcast; //广播模式
//  173   SampleApp_P2P_DstAddr.endPoint = SAMPLEAPP_ENDPOINT;
//  174   SampleApp_P2P_DstAddr.addr.shortAddr = 0xFFFF; //发给终端
//  175 
//  176   //目的地址端口号
//  177   endPointDesc_t SampleApp_epDesc;
//  178   SampleApp_epDesc.endPoint = SAMPLEAPP_ENDPOINT;
//  179   SampleApp_epDesc.task_id = &SampleApp_TaskID;
//  180   SampleApp_epDesc.simpleDesc = (SimpleDescriptionFormat_t *)&SampleApp_SimpleDesc;
//  181   SampleApp_epDesc.latencyReq = noLatencyReqs;
//  182   afRegister(&SampleApp_epDesc);
//  183 
//  184 #else
//  185   //终端点播给协调器
//  186   SampleApp_P2P_DstAddr.addrMode = (afAddrMode_t)Addr16Bit; //点播
        MOV       DPTR,#SampleApp_P2P_DstAddr + 8
        MOV       A,#0x2
        MOVX      @DPTR,A
//  187   SampleApp_P2P_DstAddr.endPoint = SAMPLEAPP_ENDPOINT;
        INC       DPTR
        MOV       A,#0xb
        MOVX      @DPTR,A
//  188   SampleApp_P2P_DstAddr.addr.shortAddr = 0x0000; //发给协调器
        MOV       DPTR,#SampleApp_P2P_DstAddr
        CLR       A
        MOVX      @DPTR,A
        INC       DPTR
        MOVX      @DPTR,A
//  189 
//  190 #endif
//  191 }
        MOV       R7,#0x1
        LJMP      ?BANKED_LEAVE_XDATA
          CFI EndBlock cfiBlock0
//  192 

        RSEG BANKED_CODE:HUGECODE:NOROOT(0)
//  193 void SampleApp_HandleKeys(uint8 shift, uint8 keys)
SampleApp_HandleKeys:
          CFI Block cfiBlock1 Using cfiCommon0
          CFI Function SampleApp_HandleKeys
        CODE
//  194 {
        ; Saved register size: 0
        ; Auto size: 0
//  195   (void)shift; // Intentionally unreferenced parameter
//  196 
//  197 #if defined(ZDO_COORDINATOR)
//  198 
//  199   if (keys & HAL_KEY_SW_6) //key1
//  200   {
//  201     const signed char *g_mqtt_topics[] = {"mqtt_topic_test1"};
//  202     if (0 == mqtt_subscribe_topic(g_mqtt_topics, 1))
//  203     {
//  204     }
//  205   }
//  206 
//  207   if (keys & HAL_KEY_SW_1) //key2
//  208   {
//  209   }
//  210 
//  211 #endif
//  212 }
        LJMP      ?BRET
          CFI EndBlock cfiBlock1
//  213 
//  214 /*********************************************************************
//  215  * @fn      SampleApp_ProcessEvent
//  216  *
//  217  * @brief   Generic Application Task event processor.
//  218  *
//  219  * @param   task_id  - The OSAL assigned task ID.
//  220  * @param   events   - Bit map of events to process.
//  221  *
//  222  * @return  Event flags of all unprocessed events.
//  223  */

        RSEG BANKED_CODE:HUGECODE:NOROOT(0)
//  224 UINT16 SampleApp_ProcessEvent(uint8 task_id, UINT16 events)
SampleApp_ProcessEvent:
          CFI Block cfiBlock2 Using cfiCommon0
          CFI Function SampleApp_ProcessEvent
        CODE
//  225 {
        FUNCALL SampleApp_ProcessEvent, SampleApp_Send_P2P_Message
        LOCFRAME ISTACK, 0, STACK
        LOCFRAME PSTACK, 0, STACK
        LOCFRAME XSTACK, 12, STACK
        LOCFRAME IOVERLAY, 0, STATIC
        LOCFRAME DOVERLAY, 0, STATIC
        ARGFRAME ISTACK, 0, STACK
        ARGFRAME PSTACK, 0, STACK
        ARGFRAME XSTACK, 12, STACK
        ARGFRAME IOVERLAY, 0, STATIC
        ARGFRAME DOVERLAY, 0, STATIC
        FUNCALL SampleApp_ProcessEvent, osal_rand
        LOCFRAME ISTACK, 0, STACK
        LOCFRAME PSTACK, 0, STACK
        LOCFRAME XSTACK, 12, STACK
        LOCFRAME IOVERLAY, 0, STATIC
        LOCFRAME DOVERLAY, 0, STATIC
        ARGFRAME ISTACK, 0, STACK
        ARGFRAME PSTACK, 0, STACK
        ARGFRAME XSTACK, 12, STACK
        ARGFRAME IOVERLAY, 0, STATIC
        ARGFRAME DOVERLAY, 0, STATIC
        FUNCALL SampleApp_ProcessEvent, osal_start_timerEx
        LOCFRAME ISTACK, 0, STACK
        LOCFRAME PSTACK, 0, STACK
        LOCFRAME XSTACK, 12, STACK
        LOCFRAME IOVERLAY, 0, STATIC
        LOCFRAME DOVERLAY, 0, STATIC
        ARGFRAME ISTACK, 0, STACK
        ARGFRAME PSTACK, 0, STACK
        ARGFRAME XSTACK, 12, STACK
        ARGFRAME IOVERLAY, 0, STATIC
        ARGFRAME DOVERLAY, 0, STATIC
        FUNCALL SampleApp_ProcessEvent, osal_start_timerEx
        LOCFRAME ISTACK, 0, STACK
        LOCFRAME PSTACK, 0, STACK
        LOCFRAME XSTACK, 12, STACK
        LOCFRAME IOVERLAY, 0, STATIC
        LOCFRAME DOVERLAY, 0, STATIC
        ARGFRAME ISTACK, 0, STACK
        ARGFRAME PSTACK, 0, STACK
        ARGFRAME XSTACK, 12, STACK
        ARGFRAME IOVERLAY, 0, STATIC
        ARGFRAME DOVERLAY, 0, STATIC
        FUNCALL SampleApp_ProcessEvent, osal_msg_deallocate
        LOCFRAME ISTACK, 0, STACK
        LOCFRAME PSTACK, 0, STACK
        LOCFRAME XSTACK, 12, STACK
        LOCFRAME IOVERLAY, 0, STATIC
        LOCFRAME DOVERLAY, 0, STATIC
        ARGFRAME ISTACK, 0, STACK
        ARGFRAME PSTACK, 0, STACK
        ARGFRAME XSTACK, 12, STACK
        ARGFRAME IOVERLAY, 0, STATIC
        ARGFRAME DOVERLAY, 0, STATIC
        FUNCALL SampleApp_ProcessEvent, osal_msg_receive
        LOCFRAME ISTACK, 0, STACK
        LOCFRAME PSTACK, 0, STACK
        LOCFRAME XSTACK, 12, STACK
        LOCFRAME IOVERLAY, 0, STATIC
        LOCFRAME DOVERLAY, 0, STATIC
        ARGFRAME ISTACK, 0, STACK
        ARGFRAME PSTACK, 0, STACK
        ARGFRAME XSTACK, 12, STACK
        ARGFRAME IOVERLAY, 0, STATIC
        ARGFRAME DOVERLAY, 0, STATIC
        FUNCALL SampleApp_ProcessEvent, SampleApp_ProcessMSGCmd
        LOCFRAME ISTACK, 0, STACK
        LOCFRAME PSTACK, 0, STACK
        LOCFRAME XSTACK, 12, STACK
        LOCFRAME IOVERLAY, 0, STATIC
        LOCFRAME DOVERLAY, 0, STATIC
        ARGFRAME ISTACK, 0, STACK
        ARGFRAME PSTACK, 0, STACK
        ARGFRAME XSTACK, 12, STACK
        ARGFRAME IOVERLAY, 0, STATIC
        ARGFRAME DOVERLAY, 0, STATIC
        REQUIRE ?V0
        REQUIRE ?V1
        REQUIRE ?V2
        REQUIRE ?V3
        MOV       A,#-0xc
        LCALL     ?BANKED_ENTER_XDATA
          CFI DPH0 load(1, XDATA, add(CFA_XSP16, literal(-1)))
          CFI DPL0 load(1, XDATA, add(CFA_XSP16, literal(-2)))
          CFI ?BRET_EXT load(1, XDATA, add(CFA_XSP16, literal(-3)))
          CFI ?RET_HIGH load(1, XDATA, add(CFA_XSP16, literal(-4)))
          CFI ?RET_LOW load(1, XDATA, add(CFA_XSP16, literal(-5)))
          CFI R7 load(1, XDATA, add(CFA_XSP16, literal(-6)))
          CFI V3 load(1, XDATA, add(CFA_XSP16, literal(-7)))
          CFI V2 load(1, XDATA, add(CFA_XSP16, literal(-8)))
          CFI V1 load(1, XDATA, add(CFA_XSP16, literal(-9)))
          CFI V0 load(1, XDATA, add(CFA_XSP16, literal(-10)))
          CFI VB load(1, XDATA, add(CFA_XSP16, literal(-11)))
          CFI R6 load(1, XDATA, add(CFA_XSP16, literal(-12)))
          CFI CFA_SP SP+0
          CFI CFA_XSP16 add(XSP16, 12)
        ; Saved register size: 12
        ; Auto size: 0
        MOV       A,R2
        MOV       R6,A
        MOV       A,R3
        MOV       R7,A
//  226   (void)task_id; // Intentionally unreferenced parameter
//  227 
//  228   if (events & SYS_EVENT_MSG)
        ANL       A,#0x80
        JNZ       ??SampleApp_ProcessEvent_0
//  229   {
//  230     afIncomingMSGPacket_t *MSGpkt;
//  231 
//  232     while ((MSGpkt = (afIncomingMSGPacket_t *)osal_msg_receive(SampleApp_TaskID)))
//  233     {
//  234       switch (MSGpkt->hdr.event)
//  235       {
//  236       case KEY_CHANGE:
//  237         SampleApp_HandleKeys(((keyChange_t *)MSGpkt)->state, ((keyChange_t *)MSGpkt)->keys);
//  238         break;
//  239 
//  240       case AF_INCOMING_MSG_CMD:
//  241         SampleApp_ProcessMSGCmd(MSGpkt);
//  242         break;
//  243 
//  244       case ZDO_STATE_CHANGE:
//  245         SampleApp_NwkState = (devStates_t)(MSGpkt->hdr.status);
//  246         if ((SampleApp_NwkState == DEV_ZB_COORD) ||
//  247             (SampleApp_NwkState == DEV_ROUTER) || (SampleApp_NwkState == DEV_END_DEVICE))
//  248         {
//  249           //连网成功后，启动一个定时器
//  250           osal_start_timerEx(SampleApp_TaskID,
//  251                              SAMPLEAPP_SEND_PERIODIC_MSG_EVT,
//  252                              SAMPLEAPP_SEND_PERIODIC_MSG_TIMEOUT);
//  253         }
//  254         else
//  255         {
//  256           // Device is no longer in the network
//  257         }
//  258         break;
//  259 
//  260       default:
//  261         break;
//  262       }
//  263 
//  264       osal_msg_deallocate((uint8 *)MSGpkt);
//  265     }
//  266 
//  267     return (events ^ SYS_EVENT_MSG);
//  268   }
//  269 
//  270 #ifdef ZDO_COORDINATOR
//  271 
//  272   //定时器时间到
//  273   if (events & SAMPLEAPP_SEND_PERIODIC_MSG_EVT)
//  274   {
//  275     if (onenet_login_ok == 2)
//  276     {
//  277       //如果接入onenet成功，启动心跳和发送数据定A器
//  278 
//  279       P1_1 = 0; //点亮D2
//  280 
//  281       // 启动心跳定时器，15秒一次
//  282       osal_start_timerEx(SampleApp_TaskID, SAMPLEAPP_ONENET_HEART_BEAT_EVT, 15000);
//  283 
//  284       // 启动发送数据定时器，5秒一次
//  285       osal_start_timerEx(SampleApp_TaskID, SAMPLEAPP_ONENET_SEND_DATA_EVT, 5000);
//  286     }
//  287     else
//  288     {
//  289       onenet_login_ok = 1; //onenet注册成功 0:未注册，1：注册中　2：注册成功
//  290       SampleApp_RxLen = 0;
//  291 
//  292       //如果没有接入onenet成功，重新发起接入
//  293       OneNet_DevLink(); //接入onenet服务器
//  294 
//  295       //LED2闪，表示正在接入onenet
//  296       HalLedBlink(HAL_LED_2, 5, 50, 500);
//  297 
//  298       // 每5秒尝试接入一次
//  299       osal_start_timerEx(SampleApp_TaskID, SAMPLEAPP_SEND_PERIODIC_MSG_EVT, 5000);
//  300     }
//  301 
//  302     // return unprocessed events
//  303     return (events ^ SAMPLEAPP_SEND_PERIODIC_MSG_EVT);
//  304   }
//  305 
//  306   //心跳定时器时间到
//  307   if (events & SAMPLEAPP_ONENET_HEART_BEAT_EVT)
//  308   {
//  309     if (onenet_login_ok == 2)
//  310     {
//  311       //发送心跳
//  312       onenet_mqtt_send_heart();
//  313     }
//  314 
//  315     // 启动心跳定时器，15秒一次
//  316     osal_start_timerEx(SampleApp_TaskID, SAMPLEAPP_ONENET_HEART_BEAT_EVT, 15000);
//  317 
//  318     // return unprocessed events
//  319     return (events ^ SAMPLEAPP_ONENET_HEART_BEAT_EVT);
//  320   }
//  321 
//  322   //发送数据定时器时间到
//  323   if (events & SAMPLEAPP_ONENET_SEND_DATA_EVT)
//  324   {
//  325     if (onenet_login_ok == 2)
//  326     {
//  327       //发送温湿度数据到onenet
//  328       //    OneNet_SendData(end_temp, end_hum);
//  329 
//  330       sprintf(mqtt_message,
//  331               "{\"method\":\"thing.service.property.set\",\"id\":\"630262306\",\"params\":{\ 
//  332             \"temp\":%d,\ 
//  333             \"hum\":%d,\ 
//  334                \"end_light\":%d,\ 
//  335               \"end_led2\":%d}\ 
//  336         }",
//  337               end_temp,
//  338               end_hum,
//  339               end_light,
//  340               end_led2);
//  341 
//  342       //发布主题
//  343       mqtt_publish_topic(topics_post, mqtt_message);
//  344 
//  345       //  OneNet_publish_topic();
//  346     }
//  347 
//  348     // 启动发送数据定时器，5秒一次
//  349     osal_start_timerEx(SampleApp_TaskID, SAMPLEAPP_ONENET_SEND_DATA_EVT, 5000);
//  350 
//  351     // return unprocessed events
//  352     return (events ^ SAMPLEAPP_ONENET_SEND_DATA_EVT);
//  353   }
//  354 
//  355 #else
//  356 
//  357   //定时器时间到
//  358   if (events & SAMPLEAPP_SEND_PERIODIC_MSG_EVT)
        MOV       A,R2
        MOV       C,0xE0 /* A   */.0
        JNC       ??SampleApp_ProcessEvent_1
//  359   {
//  360 
//  361     // DHT11采集
//  362     SampleApp_Send_P2P_Message();
        ; Setup parameters for call to function SampleApp_Send_P2P_Message
        LCALL     `??SampleApp_Send_P2P_Message::?relay`; Banked call to: SampleApp_Send_P2P_Message
//  363 
//  364     // Setup to send message again in normal period (+ a little jitter)
//  365     osal_start_timerEx(SampleApp_TaskID, SAMPLEAPP_SEND_PERIODIC_MSG_EVT,
//  366                        (SAMPLEAPP_SEND_PERIODIC_MSG_TIMEOUT + (osal_rand() & 0x00FF)));
        ; Setup parameters for call to function osal_rand
        LCALL     `??osal_rand::?relay`; Banked call to: osal_rand
        ; Setup parameters for call to function osal_start_timerEx
        MOV       A,R2
        ADD       A,#-0x48
        MOV       R4,A
        CLR       A
        ADDC      A,#0xb
        MOV       R5,A
        MOV       R2,#0x1
        MOV       R3,#0x0
        MOV       DPTR,#SampleApp_TaskID
        MOVX      A,@DPTR
        MOV       R1,A
        LCALL     `??osal_start_timerEx::?relay`; Banked call to: osal_start_timerEx
//  367 
//  368     // return unprocessed events
//  369     return (events ^ SAMPLEAPP_SEND_PERIODIC_MSG_EVT);
        MOV       A,R6
        XRL       A,#0x1
        MOV       R2,A
        MOV       A,R7
        SJMP      ??SampleApp_ProcessEvent_2
//  370   }
??SampleApp_ProcessEvent_3:
        INC       DPTR
        MOVX      A,@DPTR
        MOV       DPTR,#SampleApp_NwkState
        MOVX      @DPTR,A
        XRL       A,#0x9
        JZ        ??SampleApp_ProcessEvent_4
        MOVX      A,@DPTR
        XRL       A,#0x7
        JZ        ??SampleApp_ProcessEvent_4
        MOVX      A,@DPTR
        XRL       A,#0x6
        JNZ       ??SampleApp_ProcessEvent_5
??SampleApp_ProcessEvent_4:
        ; Setup parameters for call to function osal_start_timerEx
        MOV       R4,#-0x48
        MOV       R5,#0xb
        MOV       R2,#0x1
        MOV       R3,#0x0
        MOV       DPTR,#SampleApp_TaskID
        MOVX      A,@DPTR
        MOV       R1,A
        LCALL     `??osal_start_timerEx::?relay`; Banked call to: osal_start_timerEx
??SampleApp_ProcessEvent_5:
        ; Setup parameters for call to function osal_msg_deallocate
        MOV       R2,?V0
        MOV       R3,?V1
        LCALL     `??osal_msg_deallocate::?relay`; Banked call to: osal_msg_deallocate
??SampleApp_ProcessEvent_0:
        ; Setup parameters for call to function osal_msg_receive
        MOV       DPTR,#SampleApp_TaskID
        MOVX      A,@DPTR
        MOV       R1,A
        LCALL     `??osal_msg_receive::?relay`; Banked call to: osal_msg_receive
        MOV       ?V0,R2
        MOV       ?V1,R3
        MOV       A,R2
        ORL       A,R3
        JZ        ??SampleApp_ProcessEvent_6
        MOV       DPL,R2
        MOV       DPH,R3
        MOVX      A,@DPTR
        ADD       A,#-0x1a
        JZ        ??SampleApp_ProcessEvent_7
        ADD       A,#0x49
        JZ        ??SampleApp_ProcessEvent_3
        SJMP      ??SampleApp_ProcessEvent_5
??SampleApp_ProcessEvent_7:
        ; Setup parameters for call to function SampleApp_ProcessMSGCmd
        LCALL     `??SampleApp_ProcessMSGCmd::?relay`; Banked call to: SampleApp_ProcessMSGCmd
        SJMP      ??SampleApp_ProcessEvent_5
??SampleApp_ProcessEvent_6:
        MOV       A,R6
        MOV       R2,A
        MOV       A,R7
        XRL       A,#0x80
??SampleApp_ProcessEvent_2:
        MOV       R3,A
        SJMP      ??SampleApp_ProcessEvent_8
//  371 
//  372 #endif
//  373 
//  374   return (0); // Discard unknown events.
??SampleApp_ProcessEvent_1:
        MOV       R2,#0x0
        MOV       R3,#0x0
??SampleApp_ProcessEvent_8:
        MOV       R7,#0x4
        LJMP      ?BANKED_LEAVE_XDATA
//  375 }
          CFI EndBlock cfiBlock2
//  376 
//  377 /*********************************************************************
//  378  * @fn      SerialApp_ProcessMSGCmd
//  379  *
//  380  * @brief   Data message processor callback. This function processes
//  381  *          any incoming data - probably from other devices. Based
//  382  *          on the cluster ID, perform the intended action.
//  383  *
//  384  * @param   pkt - pointer to the incoming message packet
//  385  *
//  386  * @return  TRUE if the 'pkt' parameter is being used and will be freed later,
//  387  *          FALSE otherwise.
//  388  */

        RSEG BANKED_CODE:HUGECODE:NOROOT(0)
//  389 void SampleApp_ProcessMSGCmd(afIncomingMSGPacket_t *pkt)
SampleApp_ProcessMSGCmd:
          CFI Block cfiBlock3 Using cfiCommon0
          CFI Function SampleApp_ProcessMSGCmd
        CODE
//  390 {
        FUNCALL SampleApp_ProcessMSGCmd, osal_memset
        LOCFRAME ISTACK, 0, STACK
        LOCFRAME PSTACK, 0, STACK
        LOCFRAME XSTACK, 139, STACK
        LOCFRAME IOVERLAY, 0, STATIC
        LOCFRAME DOVERLAY, 0, STATIC
        ARGFRAME ISTACK, 0, STACK
        ARGFRAME PSTACK, 0, STACK
        ARGFRAME XSTACK, 139, STACK
        ARGFRAME IOVERLAY, 0, STATIC
        ARGFRAME DOVERLAY, 0, STATIC
        FUNCALL SampleApp_ProcessMSGCmd, osal_memcpy
        LOCFRAME ISTACK, 0, STACK
        LOCFRAME PSTACK, 0, STACK
        LOCFRAME XSTACK, 142, STACK
        LOCFRAME IOVERLAY, 0, STATIC
        LOCFRAME DOVERLAY, 0, STATIC
        ARGFRAME ISTACK, 0, STACK
        ARGFRAME PSTACK, 0, STACK
        ARGFRAME XSTACK, 142, STACK
        ARGFRAME IOVERLAY, 0, STATIC
        ARGFRAME DOVERLAY, 0, STATIC
        FUNCALL SampleApp_ProcessMSGCmd, osal_strlen
        LOCFRAME ISTACK, 0, STACK
        LOCFRAME PSTACK, 0, STACK
        LOCFRAME XSTACK, 139, STACK
        LOCFRAME IOVERLAY, 0, STATIC
        LOCFRAME DOVERLAY, 0, STATIC
        ARGFRAME ISTACK, 0, STACK
        ARGFRAME PSTACK, 0, STACK
        ARGFRAME XSTACK, 139, STACK
        ARGFRAME IOVERLAY, 0, STATIC
        ARGFRAME DOVERLAY, 0, STATIC
        FUNCALL SampleApp_ProcessMSGCmd, HalUARTWrite
        LOCFRAME ISTACK, 0, STACK
        LOCFRAME PSTACK, 0, STACK
        LOCFRAME XSTACK, 139, STACK
        LOCFRAME IOVERLAY, 0, STATIC
        LOCFRAME DOVERLAY, 0, STATIC
        ARGFRAME ISTACK, 0, STACK
        ARGFRAME PSTACK, 0, STACK
        ARGFRAME XSTACK, 139, STACK
        ARGFRAME IOVERLAY, 0, STATIC
        ARGFRAME DOVERLAY, 0, STATIC
        FUNCALL SampleApp_ProcessMSGCmd, HalUARTWrite
        LOCFRAME ISTACK, 0, STACK
        LOCFRAME PSTACK, 0, STACK
        LOCFRAME XSTACK, 139, STACK
        LOCFRAME IOVERLAY, 0, STATIC
        LOCFRAME DOVERLAY, 0, STATIC
        ARGFRAME ISTACK, 0, STACK
        ARGFRAME PSTACK, 0, STACK
        ARGFRAME XSTACK, 139, STACK
        ARGFRAME IOVERLAY, 0, STATIC
        ARGFRAME DOVERLAY, 0, STATIC
        FUNCALL SampleApp_ProcessMSGCmd, strstr
        LOCFRAME ISTACK, 0, STACK
        LOCFRAME PSTACK, 0, STACK
        LOCFRAME XSTACK, 139, STACK
        LOCFRAME IOVERLAY, 0, STATIC
        LOCFRAME DOVERLAY, 0, STATIC
        ARGFRAME ISTACK, 0, STACK
        ARGFRAME PSTACK, 0, STACK
        ARGFRAME XSTACK, 139, STACK
        ARGFRAME IOVERLAY, 0, STATIC
        ARGFRAME DOVERLAY, 0, STATIC
        FUNCALL SampleApp_ProcessMSGCmd, HalLedSet
        LOCFRAME ISTACK, 0, STACK
        LOCFRAME PSTACK, 0, STACK
        LOCFRAME XSTACK, 139, STACK
        LOCFRAME IOVERLAY, 0, STATIC
        LOCFRAME DOVERLAY, 0, STATIC
        ARGFRAME ISTACK, 0, STACK
        ARGFRAME PSTACK, 0, STACK
        ARGFRAME XSTACK, 139, STACK
        ARGFRAME IOVERLAY, 0, STATIC
        ARGFRAME DOVERLAY, 0, STATIC
        FUNCALL SampleApp_ProcessMSGCmd, strstr
        LOCFRAME ISTACK, 0, STACK
        LOCFRAME PSTACK, 0, STACK
        LOCFRAME XSTACK, 139, STACK
        LOCFRAME IOVERLAY, 0, STATIC
        LOCFRAME DOVERLAY, 0, STATIC
        ARGFRAME ISTACK, 0, STACK
        ARGFRAME PSTACK, 0, STACK
        ARGFRAME XSTACK, 139, STACK
        ARGFRAME IOVERLAY, 0, STATIC
        ARGFRAME DOVERLAY, 0, STATIC
        FUNCALL SampleApp_ProcessMSGCmd, HalLedSet
        LOCFRAME ISTACK, 0, STACK
        LOCFRAME PSTACK, 0, STACK
        LOCFRAME XSTACK, 139, STACK
        LOCFRAME IOVERLAY, 0, STATIC
        LOCFRAME DOVERLAY, 0, STATIC
        ARGFRAME ISTACK, 0, STACK
        ARGFRAME PSTACK, 0, STACK
        ARGFRAME XSTACK, 139, STACK
        ARGFRAME IOVERLAY, 0, STATIC
        ARGFRAME DOVERLAY, 0, STATIC
        FUNCALL SampleApp_ProcessMSGCmd, strstr
        LOCFRAME ISTACK, 0, STACK
        LOCFRAME PSTACK, 0, STACK
        LOCFRAME XSTACK, 139, STACK
        LOCFRAME IOVERLAY, 0, STATIC
        LOCFRAME DOVERLAY, 0, STATIC
        ARGFRAME ISTACK, 0, STACK
        ARGFRAME PSTACK, 0, STACK
        ARGFRAME XSTACK, 139, STACK
        ARGFRAME IOVERLAY, 0, STATIC
        ARGFRAME DOVERLAY, 0, STATIC
        FUNCALL SampleApp_ProcessMSGCmd, strstr
        LOCFRAME ISTACK, 0, STACK
        LOCFRAME PSTACK, 0, STACK
        LOCFRAME XSTACK, 139, STACK
        LOCFRAME IOVERLAY, 0, STATIC
        LOCFRAME DOVERLAY, 0, STATIC
        ARGFRAME ISTACK, 0, STACK
        ARGFRAME PSTACK, 0, STACK
        ARGFRAME XSTACK, 139, STACK
        ARGFRAME IOVERLAY, 0, STATIC
        ARGFRAME DOVERLAY, 0, STATIC
        FUNCALL SampleApp_ProcessMSGCmd, osal_memset
        LOCFRAME ISTACK, 0, STACK
        LOCFRAME PSTACK, 0, STACK
        LOCFRAME XSTACK, 139, STACK
        LOCFRAME IOVERLAY, 0, STATIC
        LOCFRAME DOVERLAY, 0, STATIC
        ARGFRAME ISTACK, 0, STACK
        ARGFRAME PSTACK, 0, STACK
        ARGFRAME XSTACK, 139, STACK
        ARGFRAME IOVERLAY, 0, STATIC
        ARGFRAME DOVERLAY, 0, STATIC
        REQUIRE ?V0
        REQUIRE ?V1
        REQUIRE ?V2
        MOV       A,#-0xb
        LCALL     ?BANKED_ENTER_XDATA
          CFI DPH0 load(1, XDATA, add(CFA_XSP16, literal(-1)))
          CFI DPL0 load(1, XDATA, add(CFA_XSP16, literal(-2)))
          CFI ?BRET_EXT load(1, XDATA, add(CFA_XSP16, literal(-3)))
          CFI ?RET_HIGH load(1, XDATA, add(CFA_XSP16, literal(-4)))
          CFI ?RET_LOW load(1, XDATA, add(CFA_XSP16, literal(-5)))
          CFI R7 load(1, XDATA, add(CFA_XSP16, literal(-6)))
          CFI V2 load(1, XDATA, add(CFA_XSP16, literal(-7)))
          CFI V1 load(1, XDATA, add(CFA_XSP16, literal(-8)))
          CFI V0 load(1, XDATA, add(CFA_XSP16, literal(-9)))
          CFI VB load(1, XDATA, add(CFA_XSP16, literal(-10)))
          CFI R6 load(1, XDATA, add(CFA_XSP16, literal(-11)))
          CFI CFA_SP SP+0
          CFI CFA_XSP16 add(XSP16, 11)
        ; Saved register size: 11
        ; Auto size: 128
        MOV       A,#-0x80
        LCALL     ?ALLOC_XSTACK8
          CFI CFA_XSP16 add(XSP16, 139)
        MOV       A,R2
        MOV       R6,A
        MOV       A,R3
        MOV       R7,A
//  391   uint8 buff[20] = {0};
//  392 
//  393   switch (pkt->clusterId)
        MOV       DPL,R2
        MOV       DPH,A
        INC       DPTR
        INC       DPTR
        INC       DPTR
        INC       DPTR
        MOVX      A,@DPTR
        XRL       A,#0x4
        JNZ       ??SampleApp_ProcessMSGCmd_0
        INC       DPTR
        MOVX      A,@DPTR
??SampleApp_ProcessMSGCmd_0:
        JZ        $+5
        LJMP      ??SampleApp_ProcessMSGCmd_1 & 0xFFFF
//  394   {
//  395   // 接收终端上传的温度数据
//  396   case SAMPLEAPP_P2P_CLUSTERID:
//  397 #ifdef ZDO_COORDINATOR
//  398   {
//  399     end_temp = pkt->cmd.Data[0]; //终端温度
//  400     end_hum = pkt->cmd.Data[1];  //终端湿度
//  401 
//  402     end_light = pkt->cmd.Data[2]; //终端亮度
//  403     end_led2 = pkt->cmd.Data[3];
//  404     //cor_led3 = P1_4;              //终端LED3状态
//  405 
//  406     //cor_led3 = !cor_led3;
//  407     sprintf(buff, "T:%d", end_temp);
//  408     HalLcdWriteString(buff, HAL_LCD_LINE_3); //LCD显示
//  409 
//  410     sprintf(buff, "H:%d", end_hum);
//  411     HalLcdWriteString(buff, HAL_LCD_LINE_4); //LCD显示
//  412   }
//  413 #endif
//  414   break;
//  415 
//  416   case SAMPLEAPP_PERIODIC_CLUSTERID:
//  417 
//  418     break;
//  419   case SAMPLEAPP_CTE_CLUSTERID: //coor to end 终端进行命令解析和处理
//  420     char buf[128];
//  421     osal_memset(buf, '\0', 128);
        ; Setup parameters for call to function osal_memset
        MOV       R4,#-0x80
        MOV       R5,#0x0
        MOV       R1,#0x0
        MOV       R2,?XSP + 0
        MOV       R3,?XSP + 1
        LCALL     `??osal_memset::?relay`; Banked call to: osal_memset
//  422     osal_memcpy(buf, pkt->cmd.Data, pkt->cmd.DataLength); //复制到缓冲区
        ; Setup parameters for call to function osal_memcpy
        MOV       A,R6
        ADD       A,#0x22
        MOV       DPL,A
        CLR       A
        ADDC      A,R7
        MOV       DPH,A
        MOVX      A,@DPTR
        MOV       ?V0,A
        INC       DPTR
        MOVX      A,@DPTR
        MOV       ?V1,A
        MOV       ?V2,#0x0
        MOV       R0,#?V0
        LCALL     ?PUSH_XSTACK_I_THREE
          CFI CFA_XSP16 add(XSP16, 142)
        MOV       A,R6
        ADD       A,#0x20
        MOV       DPL,A
        CLR       A
        ADDC      A,R7
        MOV       DPH,A
        MOVX      A,@DPTR
        MOV       R4,A
        INC       DPTR
        MOVX      A,@DPTR
        MOV       R5,A
        MOV       A,#0x3
        LCALL     ?XSTACK_DISP101_8
        LCALL     `??osal_memcpy::?relay`; Banked call to: osal_memcpy
        MOV       A,#0x3
        LCALL     ?DEALLOC_XSTACK8
          CFI CFA_XSP16 add(XSP16, 139)
//  423     HalUARTWrite(0, buf, osal_strlen(buf));               //串口输出提示信息
        ; Setup parameters for call to function osal_strlen
        MOV       R2,?XSP + 0
        MOV       R3,?XSP + 1
        LCALL     ?Subroutine1 & 0xFFFF
??CrossCallReturnLabel_2:
        ; Setup parameters for call to function HalUARTWrite
        MOV       R2,?XSP + 0
        MOV       R3,?XSP + 1
        LCALL     ?Subroutine0 & 0xFFFF
//  424     HalUARTWrite(0, "\r\n", 2);                           //串口输出提示信息
//  425 
//  426     if (strstr(buf, "D2:0"))
??CrossCallReturnLabel_0:
        ; Setup parameters for call to function strstr
        MOV       R4,#`?<Constant "D2:0">` & 0xff
        MOV       R5,#(`?<Constant "D2:0">` >> 8) & 0xff
        LCALL     ?Subroutine2 & 0xFFFF
??CrossCallReturnLabel_4:
        JZ        ??SampleApp_ProcessMSGCmd_2
//  427       HalLedSet(HAL_LED_2, HAL_LED_MODE_OFF); //LED2
        ; Setup parameters for call to function HalLedSet
        MOV       R2,#0x0
        SJMP      ??SampleApp_ProcessMSGCmd_3
//  428     else if (strstr(buf, "D2:1"))
??SampleApp_ProcessMSGCmd_2:
        ; Setup parameters for call to function strstr
        MOV       R4,#`?<Constant "D2:1">` & 0xff
        MOV       R5,#(`?<Constant "D2:1">` >> 8) & 0xff
        LCALL     ?Subroutine2 & 0xFFFF
??CrossCallReturnLabel_5:
        JZ        ??SampleApp_ProcessMSGCmd_4
//  429       HalLedSet(HAL_LED_2, HAL_LED_MODE_ON); //LED2
        ; Setup parameters for call to function HalLedSet
        MOV       R2,#0x1
??SampleApp_ProcessMSGCmd_3:
        MOV       R1,#0x2
        LCALL     `??HalLedSet::?relay`; Banked call to: HalLedSet
//  430 
//  431     if (strstr(buf, "B:1"))
??SampleApp_ProcessMSGCmd_4:
        ; Setup parameters for call to function strstr
        MOV       R4,#`?<Constant "B:1">` & 0xff
        MOV       R5,#(`?<Constant "B:1">` >> 8) & 0xff
        LCALL     ?Subroutine2 & 0xFFFF
??CrossCallReturnLabel_6:
        JZ        ??SampleApp_ProcessMSGCmd_5
//  432       P0_4 = 0;
        CLR       0x80.4
        SJMP      ??SampleApp_ProcessMSGCmd_6
//  433     else if (strstr(buf, "B:0"))
??SampleApp_ProcessMSGCmd_5:
        ; Setup parameters for call to function strstr
        MOV       R4,#`?<Constant "B:0">` & 0xff
        MOV       R5,#(`?<Constant "B:0">` >> 8) & 0xff
        LCALL     ?Subroutine2 & 0xFFFF
??CrossCallReturnLabel_7:
        JZ        ??SampleApp_ProcessMSGCmd_6
//  434       P0_4 = 1;
        SETB      0x80.4
//  435 
//  436     osal_memset(buf, '\0', 128);
??SampleApp_ProcessMSGCmd_6:
        ; Setup parameters for call to function osal_memset
        MOV       R4,#-0x80
        MOV       R5,#0x0
        MOV       R1,#0x0
        MOV       R2,?XSP + 0
        MOV       R3,?XSP + 1
        LCALL     `??osal_memset::?relay`; Banked call to: osal_memset
//  437     break;
//  438   default:
//  439     break;
//  440   }
//  441 }
??SampleApp_ProcessMSGCmd_1:
        MOV       A,#-0x80
        LCALL     ?DEALLOC_XSTACK8
          CFI CFA_XSP16 add(XSP16, 11)
        MOV       R7,#0x3
        LJMP      ?BANKED_LEAVE_XDATA
          CFI EndBlock cfiBlock3
        REQUIRE _A_P0

        RSEG BANKED_CODE:HUGECODE:NOROOT(0)
?Subroutine2:
          CFI Block cfiCond4 Using cfiCommon0
          CFI Function SampleApp_ProcessMSGCmd
          CFI Conditional ??CrossCallReturnLabel_4
          CFI R6 load(1, XDATA, add(CFA_XSP16, literal(-11)))
          CFI VB load(1, XDATA, add(CFA_XSP16, literal(-10)))
          CFI V0 load(1, XDATA, add(CFA_XSP16, literal(-9)))
          CFI V1 load(1, XDATA, add(CFA_XSP16, literal(-8)))
          CFI V2 load(1, XDATA, add(CFA_XSP16, literal(-7)))
          CFI R7 load(1, XDATA, add(CFA_XSP16, literal(-6)))
          CFI ?RET_LOW load(1, XDATA, add(CFA_XSP16, literal(-5)))
          CFI ?RET_HIGH load(1, XDATA, add(CFA_XSP16, literal(-4)))
          CFI ?BRET_EXT load(1, XDATA, add(CFA_XSP16, literal(-3)))
          CFI DPL0 load(1, XDATA, add(CFA_XSP16, literal(-2)))
          CFI DPH0 load(1, XDATA, add(CFA_XSP16, literal(-1)))
          CFI CFA_SP SP+-2
          CFI CFA_XSP16 add(XSP16, 139)
          CFI Block cfiCond5 Using cfiCommon0
          CFI (cfiCond5) Function SampleApp_ProcessMSGCmd
          CFI (cfiCond5) Conditional ??CrossCallReturnLabel_5
          CFI (cfiCond5) R6 load(1, XDATA, add(CFA_XSP16, literal(-11)))
          CFI (cfiCond5) VB load(1, XDATA, add(CFA_XSP16, literal(-10)))
          CFI (cfiCond5) V0 load(1, XDATA, add(CFA_XSP16, literal(-9)))
          CFI (cfiCond5) V1 load(1, XDATA, add(CFA_XSP16, literal(-8)))
          CFI (cfiCond5) V2 load(1, XDATA, add(CFA_XSP16, literal(-7)))
          CFI (cfiCond5) R7 load(1, XDATA, add(CFA_XSP16, literal(-6)))
          CFI (cfiCond5) ?RET_LOW load(1, XDATA, add(CFA_XSP16, literal(-5)))
          CFI (cfiCond5) ?RET_HIGH load(1, XDATA, add(CFA_XSP16, literal(-4)))
          CFI (cfiCond5) ?BRET_EXT load(1, XDATA, add(CFA_XSP16, literal(-3)))
          CFI (cfiCond5) DPL0 load(1, XDATA, add(CFA_XSP16, literal(-2)))
          CFI (cfiCond5) DPH0 load(1, XDATA, add(CFA_XSP16, literal(-1)))
          CFI (cfiCond5) CFA_SP SP+-2
          CFI (cfiCond5) CFA_XSP16 add(XSP16, 139)
          CFI Block cfiCond6 Using cfiCommon0
          CFI (cfiCond6) Function SampleApp_ProcessMSGCmd
          CFI (cfiCond6) Conditional ??CrossCallReturnLabel_6
          CFI (cfiCond6) R6 load(1, XDATA, add(CFA_XSP16, literal(-11)))
          CFI (cfiCond6) VB load(1, XDATA, add(CFA_XSP16, literal(-10)))
          CFI (cfiCond6) V0 load(1, XDATA, add(CFA_XSP16, literal(-9)))
          CFI (cfiCond6) V1 load(1, XDATA, add(CFA_XSP16, literal(-8)))
          CFI (cfiCond6) V2 load(1, XDATA, add(CFA_XSP16, literal(-7)))
          CFI (cfiCond6) R7 load(1, XDATA, add(CFA_XSP16, literal(-6)))
          CFI (cfiCond6) ?RET_LOW load(1, XDATA, add(CFA_XSP16, literal(-5)))
          CFI (cfiCond6) ?RET_HIGH load(1, XDATA, add(CFA_XSP16, literal(-4)))
          CFI (cfiCond6) ?BRET_EXT load(1, XDATA, add(CFA_XSP16, literal(-3)))
          CFI (cfiCond6) DPL0 load(1, XDATA, add(CFA_XSP16, literal(-2)))
          CFI (cfiCond6) DPH0 load(1, XDATA, add(CFA_XSP16, literal(-1)))
          CFI (cfiCond6) CFA_SP SP+-2
          CFI (cfiCond6) CFA_XSP16 add(XSP16, 139)
          CFI Block cfiCond7 Using cfiCommon0
          CFI (cfiCond7) Function SampleApp_ProcessMSGCmd
          CFI (cfiCond7) Conditional ??CrossCallReturnLabel_7
          CFI (cfiCond7) R6 load(1, XDATA, add(CFA_XSP16, literal(-11)))
          CFI (cfiCond7) VB load(1, XDATA, add(CFA_XSP16, literal(-10)))
          CFI (cfiCond7) V0 load(1, XDATA, add(CFA_XSP16, literal(-9)))
          CFI (cfiCond7) V1 load(1, XDATA, add(CFA_XSP16, literal(-8)))
          CFI (cfiCond7) V2 load(1, XDATA, add(CFA_XSP16, literal(-7)))
          CFI (cfiCond7) R7 load(1, XDATA, add(CFA_XSP16, literal(-6)))
          CFI (cfiCond7) ?RET_LOW load(1, XDATA, add(CFA_XSP16, literal(-5)))
          CFI (cfiCond7) ?RET_HIGH load(1, XDATA, add(CFA_XSP16, literal(-4)))
          CFI (cfiCond7) ?BRET_EXT load(1, XDATA, add(CFA_XSP16, literal(-3)))
          CFI (cfiCond7) DPL0 load(1, XDATA, add(CFA_XSP16, literal(-2)))
          CFI (cfiCond7) DPH0 load(1, XDATA, add(CFA_XSP16, literal(-1)))
          CFI (cfiCond7) CFA_SP SP+-2
          CFI (cfiCond7) CFA_XSP16 add(XSP16, 139)
          CFI Block cfiPicker8 Using cfiCommon1
          CFI (cfiPicker8) NoFunction
          CFI (cfiPicker8) Picker
        MOV       R2,?XSP + 0
        MOV       R3,?XSP + 1
        LCALL     `??strstr::?relay`; Banked call to: strstr
        MOV       A,R2
        ORL       A,R3
        RET
          CFI EndBlock cfiCond4
          CFI EndBlock cfiCond5
          CFI EndBlock cfiCond6
          CFI EndBlock cfiCond7
          CFI EndBlock cfiPicker8
//  442 
//  443 #ifdef ZDO_COORDINATOR
//  444 
//  445 //发送MQTT数据
//  446 void ESP8266_SendData(char *buff, int len)
//  447 {
//  448   if (len == 0)
//  449     return;
//  450 
//  451   HalUARTWrite(0, buff, len);
//  452 }
//  453 
//  454 //接收到下发命令，或者接收到订阅的消息
//  455 //topic:收到的主题
//  456 //cmd::主题对应的内容
//  457 void mqtt_rx(uint8 *topic, uint8 *cmd)
//  458 {
//  459   char *ptr_led3_on = NULL;
//  460   char *ptr_led3_off = NULL;
//  461 
//  462   char *this_topic = NULL;
//  463   //控制命令格式
//  464   char uartbuf[] = {'D', '2', ':', ' ',
//  465                     'B', ':', ' '};
//  466   //协调器收到数据后
//  467   //根据设计决定数据如何处理
//  468 
//  469   if (topic == NULL || cmd == NULL)
//  470     return;
//  471 
//  472   //我们只关心内容，即只关心CMD，不处理主题
//  473 
//  474   ptr_led3_on = strstr((char *)cmd, "\"led\":1");
//  475   ptr_led3_off = strstr((char *)cmd, "\"led\":0");
//  476 
//  477   if (ptr_led3_on != NULL)
//  478   {
//  479     P1_4 = 0; //D3亮
//  480     cor_led3 = 1;
//  481     uartbuf[3] = '1';
//  482     uartbuf[6] = '1';
//  483   }
//  484   else if (ptr_led3_off != NULL)
//  485   {
//  486     P1_4 = 1; //D3灭
//  487     cor_led3 = 0;
//  488     uartbuf[3] = '0';
//  489     uartbuf[6] = '0';
//  490   }
//  491   HalLedBlink(HAL_LED_1, 5, 50, 500);
//  492 
//  493   AF_DataRequest(&SampleApp_P2P_DstAddr,  //&Endevice_Add,  //目的节点网络地址和发送格式
//  494                  &SampleApp_epDesc,       //目的地址端口号
//  495                  SAMPLEAPP_CTE_CLUSTERID, //命令号，用于区别命令 coor to end
//  496                  osal_strlen(uartbuf),    //发送数据的长度
//  497                  uartbuf,                 //发送数据的缓冲区
//  498                  &SampleApp_MsgID,        //发送序号,发完+1
//  499                  AF_DISCV_ROUTE,
//  500                  AF_DEFAULT_RADIUS);
//  501 }
//  502 
//  503 void OneNet_publish_topic()
//  504 {
//  505   uint8 buff[20] = {0};
//  506 
//  507   sprintf(buff, "t:%d,h:%d", end_temp, end_hum);
//  508 
//  509   /*  发布主题为"hello_topic_public"，消息为温度和湿度 */
//  510   if (0 == mqtt_publish_topic("hello_topic_public", buff))
//  511   {
//  512     ;
//  513   }
//  514 }
//  515 
//  516 /*********************************************************************
//  517  * @fn      SampleApp_CallBack
//  518  *
//  519  * @brief   Send data OTA.
//  520  *
//  521  * @param   port - UART port.
//  522  * @param   event - the UART port event flag.
//  523  *
//  524  * @return  none
//  525  */
//  526 uint32 lastReadMs = 0;
//  527 void SampleApp_CallBack(uint8 port, uint8 event)
//  528 {
//  529   (void)port;
//  530 
//  531   if (0 == onenet_login_ok)
//  532   {
//  533     HalUARTRead(SAMPLE_APP_PORT, SampleApp_RxBuf, SAMPLE_APP_RX_MAX);
//  534     SampleApp_RxLen = 0;
//  535     osal_memset(SampleApp_RxBuf, 0, SAMPLE_APP_RX_MAX);
//  536   }
//  537   else if (1 == onenet_login_ok) //onenet注册成功 0:未注册，1：注册中　2：注册成功
//  538   {
//  539     //一个一个字节读
//  540     SampleApp_RxLen += HalUARTRead(SAMPLE_APP_PORT, SampleApp_RxBuf + SampleApp_RxLen, 4);
//  541 
//  542     //判断是否是注册成功
//  543     if (SampleApp_RxLen >= 4)
//  544     {
//  545       //        debug("rx len=%d(%x,%x,%x,%x)\r\n", SampleApp_RxLen,SampleApp_RxBuf[0],SampleApp_RxBuf[1],SampleApp_RxBuf[2],SampleApp_RxBuf[3]);
//  546 
//  547       //等待接入响应
//  548       if (MQTT_UnPacketRecv(SampleApp_RxBuf) == MQTT_PKT_CONNACK)
//  549       {
//  550         if (0 == MQTT_UnPacketConnectAck(SampleApp_RxBuf))
//  551         {
//  552           onenet_login_ok = 2; //注册成功
//  553           SampleApp_RxLen = 0;
//  554 
//  555           //请求订阅主题
//  556           if (mqtt_subscribe_topic(g_mqtt_topics_set, 1) == 0)
//  557           {
//  558             //订阅成功P1_4  D3变为亮
//  559             P1_4 = 0;
//  560           }
//  561         }
//  562       }
//  563     }
//  564 
//  565     //数组满，清0
//  566     if (SampleApp_RxLen >= SAMPLE_APP_RX_MAX)
//  567     {
//  568       SampleApp_RxLen = 0;
//  569     }
//  570   }
//  571   else if (2 == onenet_login_ok)
//  572   {
//  573     //如果是注册成功，读服务器的控制命令
//  574 
//  575     uint32 curMs = osal_GetSystemClock();
//  576 
//  577     if ((curMs - lastReadMs) < 1000)
//  578       return;
//  579 
//  580     lastReadMs = curMs;
//  581     SampleApp_RxLen = 0;
//  582     osal_memset(SampleApp_RxBuf, 0, SAMPLE_APP_RX_MAX + 1);
//  583     SampleApp_RxLen = HalUARTRead(SAMPLE_APP_PORT, SampleApp_RxBuf, SAMPLE_APP_RX_MAX); //读长200的数据
//  584 
//  585     if (SampleApp_RxLen > 0)
//  586     {
//  587       debug("rx len=%d.\r\n", SampleApp_RxLen);
//  588       //接收消息
//  589       OneNet_RevPro(SampleApp_RxBuf);
//  590       //debug LED3
//  591       //        HalLedBlink (HAL_LED_3, 5, 50, 500); //HalLedSet
//  592       SampleApp_RxLen = 0;
//  593       osal_memset(SampleApp_RxBuf, 0, SAMPLE_APP_RX_MAX + 1);
//  594     }
//  595   }
//  596 }
//  597 
//  598 #else
//  599 #include "hal_ADC.h"
//  600 /*********************************************************************
//  601  * @fn      SampleApp_Send_P2P_Message
//  602  *
//  603  * @brief   point to point.
//  604  *
//  605  * @param   none
//  606  *
//  607  * @return  none
//  608  */

        RSEG BANKED_CODE:HUGECODE:NOROOT(0)
//  609 void SampleApp_Send_P2P_Message(void)
SampleApp_Send_P2P_Message:
          CFI Block cfiBlock9 Using cfiCommon0
          CFI Function SampleApp_Send_P2P_Message
        CODE
//  610 {
        FUNCALL SampleApp_Send_P2P_Message, osal_memset
        LOCFRAME ISTACK, 0, STACK
        LOCFRAME PSTACK, 0, STACK
        LOCFRAME XSTACK, 35, STACK
        LOCFRAME IOVERLAY, 0, STATIC
        LOCFRAME DOVERLAY, 0, STATIC
        ARGFRAME ISTACK, 0, STACK
        ARGFRAME PSTACK, 0, STACK
        ARGFRAME XSTACK, 35, STACK
        ARGFRAME IOVERLAY, 0, STATIC
        ARGFRAME DOVERLAY, 0, STATIC
        FUNCALL SampleApp_Send_P2P_Message, osal_memset
        LOCFRAME ISTACK, 0, STACK
        LOCFRAME PSTACK, 0, STACK
        LOCFRAME XSTACK, 35, STACK
        LOCFRAME IOVERLAY, 0, STATIC
        LOCFRAME DOVERLAY, 0, STATIC
        ARGFRAME ISTACK, 0, STACK
        ARGFRAME PSTACK, 0, STACK
        ARGFRAME XSTACK, 35, STACK
        ARGFRAME IOVERLAY, 0, STATIC
        ARGFRAME DOVERLAY, 0, STATIC
        FUNCALL SampleApp_Send_P2P_Message, DHT11
        LOCFRAME ISTACK, 0, STACK
        LOCFRAME PSTACK, 0, STACK
        LOCFRAME XSTACK, 35, STACK
        LOCFRAME IOVERLAY, 0, STATIC
        LOCFRAME DOVERLAY, 0, STATIC
        ARGFRAME ISTACK, 0, STACK
        ARGFRAME PSTACK, 0, STACK
        ARGFRAME XSTACK, 35, STACK
        ARGFRAME IOVERLAY, 0, STATIC
        ARGFRAME DOVERLAY, 0, STATIC
        FUNCALL SampleApp_Send_P2P_Message, HalAdcInit
        LOCFRAME ISTACK, 0, STACK
        LOCFRAME PSTACK, 0, STACK
        LOCFRAME XSTACK, 35, STACK
        LOCFRAME IOVERLAY, 0, STATIC
        LOCFRAME DOVERLAY, 0, STATIC
        ARGFRAME ISTACK, 0, STACK
        ARGFRAME PSTACK, 0, STACK
        ARGFRAME XSTACK, 35, STACK
        ARGFRAME IOVERLAY, 0, STATIC
        ARGFRAME DOVERLAY, 0, STATIC
        FUNCALL SampleApp_Send_P2P_Message, HalAdcRead
        LOCFRAME ISTACK, 0, STACK
        LOCFRAME PSTACK, 0, STACK
        LOCFRAME XSTACK, 35, STACK
        LOCFRAME IOVERLAY, 0, STATIC
        LOCFRAME DOVERLAY, 0, STATIC
        ARGFRAME ISTACK, 0, STACK
        ARGFRAME PSTACK, 0, STACK
        ARGFRAME XSTACK, 35, STACK
        ARGFRAME IOVERLAY, 0, STATIC
        ARGFRAME DOVERLAY, 0, STATIC
        FUNCALL SampleApp_Send_P2P_Message, sprintf
        LOCFRAME ISTACK, 0, STACK
        LOCFRAME PSTACK, 0, STACK
        LOCFRAME XSTACK, 39, STACK
        LOCFRAME IOVERLAY, 0, STATIC
        LOCFRAME DOVERLAY, 0, STATIC
        ARGFRAME ISTACK, 0, STACK
        ARGFRAME PSTACK, 0, STACK
        ARGFRAME XSTACK, 39, STACK
        ARGFRAME IOVERLAY, 0, STATIC
        ARGFRAME DOVERLAY, 0, STATIC
        FUNCALL SampleApp_Send_P2P_Message, HalLcdWriteString
        LOCFRAME ISTACK, 0, STACK
        LOCFRAME PSTACK, 0, STACK
        LOCFRAME XSTACK, 35, STACK
        LOCFRAME IOVERLAY, 0, STATIC
        LOCFRAME DOVERLAY, 0, STATIC
        ARGFRAME ISTACK, 0, STACK
        ARGFRAME PSTACK, 0, STACK
        ARGFRAME XSTACK, 35, STACK
        ARGFRAME IOVERLAY, 0, STATIC
        ARGFRAME DOVERLAY, 0, STATIC
        FUNCALL SampleApp_Send_P2P_Message, osal_strlen
        LOCFRAME ISTACK, 0, STACK
        LOCFRAME PSTACK, 0, STACK
        LOCFRAME XSTACK, 35, STACK
        LOCFRAME IOVERLAY, 0, STATIC
        LOCFRAME DOVERLAY, 0, STATIC
        ARGFRAME ISTACK, 0, STACK
        ARGFRAME PSTACK, 0, STACK
        ARGFRAME XSTACK, 35, STACK
        ARGFRAME IOVERLAY, 0, STATIC
        ARGFRAME DOVERLAY, 0, STATIC
        FUNCALL SampleApp_Send_P2P_Message, HalUARTWrite
        LOCFRAME ISTACK, 0, STACK
        LOCFRAME PSTACK, 0, STACK
        LOCFRAME XSTACK, 35, STACK
        LOCFRAME IOVERLAY, 0, STATIC
        LOCFRAME DOVERLAY, 0, STATIC
        ARGFRAME ISTACK, 0, STACK
        ARGFRAME PSTACK, 0, STACK
        ARGFRAME XSTACK, 35, STACK
        ARGFRAME IOVERLAY, 0, STATIC
        ARGFRAME DOVERLAY, 0, STATIC
        FUNCALL SampleApp_Send_P2P_Message, HalUARTWrite
        LOCFRAME ISTACK, 0, STACK
        LOCFRAME PSTACK, 0, STACK
        LOCFRAME XSTACK, 35, STACK
        LOCFRAME IOVERLAY, 0, STATIC
        LOCFRAME DOVERLAY, 0, STATIC
        ARGFRAME ISTACK, 0, STACK
        ARGFRAME PSTACK, 0, STACK
        ARGFRAME XSTACK, 35, STACK
        ARGFRAME IOVERLAY, 0, STATIC
        ARGFRAME DOVERLAY, 0, STATIC
        FUNCALL SampleApp_Send_P2P_Message, AF_DataRequest
        LOCFRAME ISTACK, 0, STACK
        LOCFRAME PSTACK, 0, STACK
        LOCFRAME XSTACK, 44, STACK
        LOCFRAME IOVERLAY, 0, STATIC
        LOCFRAME DOVERLAY, 0, STATIC
        ARGFRAME ISTACK, 0, STACK
        ARGFRAME PSTACK, 0, STACK
        ARGFRAME XSTACK, 44, STACK
        ARGFRAME IOVERLAY, 0, STATIC
        ARGFRAME DOVERLAY, 0, STATIC
        REQUIRE ?V0
        REQUIRE ?V1
        MOV       A,#-0xa
        LCALL     ?BANKED_ENTER_XDATA
          CFI DPH0 load(1, XDATA, add(CFA_XSP16, literal(-1)))
          CFI DPL0 load(1, XDATA, add(CFA_XSP16, literal(-2)))
          CFI ?BRET_EXT load(1, XDATA, add(CFA_XSP16, literal(-3)))
          CFI ?RET_HIGH load(1, XDATA, add(CFA_XSP16, literal(-4)))
          CFI ?RET_LOW load(1, XDATA, add(CFA_XSP16, literal(-5)))
          CFI R7 load(1, XDATA, add(CFA_XSP16, literal(-6)))
          CFI V1 load(1, XDATA, add(CFA_XSP16, literal(-7)))
          CFI V0 load(1, XDATA, add(CFA_XSP16, literal(-8)))
          CFI VB load(1, XDATA, add(CFA_XSP16, literal(-9)))
          CFI R6 load(1, XDATA, add(CFA_XSP16, literal(-10)))
          CFI CFA_SP SP+0
          CFI CFA_XSP16 add(XSP16, 10)
        ; Saved register size: 10
        ; Auto size: 25
        MOV       A,#-0x19
        LCALL     ?ALLOC_XSTACK8
          CFI CFA_XSP16 add(XSP16, 35)
//  611   uint8 str[5] = {0};
        MOV       DPTR,#`?<Constant {0, 0, 0, 0, 0}>`
        MOV       R4,?XSP + 0
        MOV       R5,?XSP + 1
        MOV       A,#0x5
        LCALL     ?MOVE_LONG8_XDATA_XDATA
//  612   uint8 strTemp[20] = {0};
        MOV       DPTR,#`?<Constant {0, 0, 0, 0, 0, 0, 0, 0, 0, 0, 0, 0`
        MOV       A,#0x5
        LCALL     ?XSTACK_DISP102_8
        MOV       A,#0x14
        LCALL     ?MOVE_LONG8_XDATA_XDATA
//  613   int len = 0;
//  614 
//  615   osal_memset(str, '\0', 5);
        ; Setup parameters for call to function osal_memset
        MOV       R4,#0x5
        MOV       R5,A
        MOV       R1,A
        MOV       R2,?XSP + 0
        MOV       R3,?XSP + 1
        LCALL     `??osal_memset::?relay`; Banked call to: osal_memset
//  616   osal_memset(strTemp, '\0', 20);
        ; Setup parameters for call to function osal_memset
        MOV       R4,#0x14
        MOV       R5,#0x0
        MOV       R1,#0x0
        MOV       A,#0x5
        LCALL     ?XSTACK_DISP101_8
        LCALL     `??osal_memset::?relay`; Banked call to: osal_memset
//  617 
//  618   DHT11(); //获取温湿度
        ; Setup parameters for call to function DHT11
        LCALL     `??DHT11::?relay`; Banked call to: DHT11
//  619 
//  620   HalAdcInit();
        ; Setup parameters for call to function HalAdcInit
        LCALL     `??HalAdcInit::?relay`; Banked call to: HalAdcInit
//  621   uint8 end_light_temp = HalAdcRead(HAL_ADC_CHANNEL_6, HAL_ADC_RESOLUTION_8);
        ; Setup parameters for call to function HalAdcRead
        MOV       R2,#0x1
        MOV       R1,#0x6
        LCALL     `??HalAdcRead::?relay`; Banked call to: HalAdcRead
        MOV       ?V0,R2
//  622   uint8 end_led2_temp = 0;
//  623 
//  624   if (P1_1 == 1)
        MOV       R2,0x90+0x0
//  625     end_led2_temp = 0;
//  626   else
//  627     end_led2_temp = 1;
//  628 
//  629   str[0] = wendu; //温度
        MOV       DPTR,#wendu
        MOVX      A,@DPTR
        MOV       DPL,?XSP + 0
        MOV       DPH,?XSP + 1
        MOVX      @DPTR,A
//  630   str[1] = shidu; //湿度
        MOV       DPTR,#shidu
        MOVX      A,@DPTR
        PUSH      A
          CFI CFA_SP SP+-1
        MOV       A,#0x1
        LCALL     ?XSTACK_DISP0_8
        POP       A
          CFI CFA_SP SP+0
        MOVX      @DPTR,A
//  631 
//  632   str[2] = end_light_temp; //亮度
        MOV       A,#0x2
        LCALL     ?XSTACK_DISP0_8
        MOV       A,?V0
        MOVX      @DPTR,A
//  633   str[3] = end_led2_temp;  //led3状态
        MOV       A,R2
        MOV       C,0xE0 /* A   */.1
        JC        ??SampleApp_Send_P2P_Message_0
        SETB      B.0
        SJMP      ??SampleApp_Send_P2P_Message_1
??SampleApp_Send_P2P_Message_0:
        CLR       B.0
??SampleApp_Send_P2P_Message_1:
        MOV       C,B.0
        CLR       A
        RLC       A
        PUSH      A
          CFI CFA_SP SP+-1
        MOV       A,#0x3
        LCALL     ?XSTACK_DISP0_8
        POP       A
          CFI CFA_SP SP+0
        MOVX      @DPTR,A
//  634   len = 4;
//  635 
//  636   sprintf(strTemp, "T&H:%d %d", str[0], str[1]);
        ; Setup parameters for call to function sprintf
        MOV       A,#0x1
        LCALL     ?XSTACK_DISP0_8
        MOVX      A,@DPTR
        MOV       ?V0,A
        MOV       ?V1,#0x0
        MOV       R0,#?V0
        LCALL     ?PUSH_XSTACK_I_TWO
          CFI CFA_XSP16 add(XSP16, 37)
        MOV       A,#0x2
        LCALL     ?XSTACK_DISP0_8
        MOVX      A,@DPTR
        MOV       ?V0,A
        MOV       R0,#?V0
        LCALL     ?PUSH_XSTACK_I_TWO
          CFI CFA_XSP16 add(XSP16, 39)
        MOV       R4,#`?<Constant "T&H:%d %d">` & 0xff
        MOV       R5,#(`?<Constant "T&H:%d %d">` >> 8) & 0xff
        MOV       A,#0x9
        LCALL     ?XSTACK_DISP101_8
        LCALL     `??sprintf::?relay`; Banked call to: sprintf
        MOV       A,#0x4
        LCALL     ?DEALLOC_XSTACK8
          CFI CFA_XSP16 add(XSP16, 35)
//  637   HalLcdWriteString(strTemp, HAL_LCD_LINE_3); //LCD显示
        ; Setup parameters for call to function HalLcdWriteString
        MOV       R1,#0x3
        MOV       A,#0x5
        LCALL     ?XSTACK_DISP101_8
        LCALL     `??HalLcdWriteString::?relay`; Banked call to: HalLcdWriteString
//  638 
//  639   HalUARTWrite(0, strTemp, osal_strlen(strTemp)); //串口输出提示信息
        ; Setup parameters for call to function osal_strlen
        MOV       A,#0x5
        LCALL     ?XSTACK_DISP101_8
        LCALL     ?Subroutine1 & 0xFFFF
??CrossCallReturnLabel_3:
        ; Setup parameters for call to function HalUARTWrite
        MOV       A,#0x5
        LCALL     ?XSTACK_DISP101_8
        LCALL     ?Subroutine0 & 0xFFFF
//  640   HalUARTWrite(0, "\r\n", 2);
//  641 
//  642   //无线发送到协调器
//  643   if (AF_DataRequest(&SampleApp_P2P_DstAddr, &SampleApp_epDesc,
//  644                      SAMPLEAPP_P2P_CLUSTERID,
//  645                      len,
//  646                      str,
//  647                      &SampleApp_MsgID,
//  648                      AF_DISCV_ROUTE,
//  649                      AF_DEFAULT_RADIUS) == afStatus_SUCCESS)
??CrossCallReturnLabel_1:
        ; Setup parameters for call to function AF_DataRequest
        MOV       ?V0,#0x1e
        MOV       R0,#?V0
        LCALL     ?PUSH_XSTACK_I_ONE
          CFI CFA_XSP16 add(XSP16, 36)
        MOV       ?V0,#SampleApp_MsgID & 0xff
        MOV       ?V1,#(SampleApp_MsgID >> 8) & 0xff
        MOV       R0,#?V0
        LCALL     ?PUSH_XSTACK_I_TWO
          CFI CFA_XSP16 add(XSP16, 38)
        MOV       A,#0x3
        LCALL     ?XSTACK_DISP100_8
        MOV       ?V0,R0
        MOV       ?V1,R1
        MOV       R0,#?V0
        LCALL     ?PUSH_XSTACK_I_TWO
          CFI CFA_XSP16 add(XSP16, 40)
        MOV       ?V0,#0x4
        MOV       ?V1,#0x0
        MOV       R0,#?V0
        LCALL     ?PUSH_XSTACK_I_TWO
          CFI CFA_XSP16 add(XSP16, 42)
        MOV       ?V0,#0x1
        MOV       R0,#?V0
        LCALL     ?PUSH_XSTACK_I_TWO
          CFI CFA_XSP16 add(XSP16, 44)
        MOV       R1,#0x20
        MOV       R4,#SampleApp_epDesc & 0xff
        MOV       R5,#(SampleApp_epDesc >> 8) & 0xff
        MOV       R2,#SampleApp_P2P_DstAddr & 0xff
        MOV       R3,#(SampleApp_P2P_DstAddr >> 8) & 0xff
        LCALL     `??AF_DataRequest::?relay`; Banked call to: AF_DataRequest
        MOV       A,#0x9
        LCALL     ?DEALLOC_XSTACK8
          CFI CFA_XSP16 add(XSP16, 35)
//  650   {
//  651   }
//  652   else
//  653   {
//  654     // Error occurred in request to send.
//  655   }
//  656 }
        MOV       A,#0x19
        LCALL     ?DEALLOC_XSTACK8
          CFI CFA_XSP16 add(XSP16, 10)
        MOV       R7,#0x2
        LJMP      ?BANKED_LEAVE_XDATA
          CFI EndBlock cfiBlock9
        REQUIRE _A_P1

        RSEG BANKED_CODE:HUGECODE:NOROOT(0)
?Subroutine1:
          CFI Block cfiCond10 Using cfiCommon0
          CFI Function SampleApp_ProcessMSGCmd
          CFI Conditional ??CrossCallReturnLabel_2
          CFI R6 load(1, XDATA, add(CFA_XSP16, literal(-11)))
          CFI VB load(1, XDATA, add(CFA_XSP16, literal(-10)))
          CFI V0 load(1, XDATA, add(CFA_XSP16, literal(-9)))
          CFI V1 load(1, XDATA, add(CFA_XSP16, literal(-8)))
          CFI V2 load(1, XDATA, add(CFA_XSP16, literal(-7)))
          CFI R7 load(1, XDATA, add(CFA_XSP16, literal(-6)))
          CFI ?RET_LOW load(1, XDATA, add(CFA_XSP16, literal(-5)))
          CFI ?RET_HIGH load(1, XDATA, add(CFA_XSP16, literal(-4)))
          CFI ?BRET_EXT load(1, XDATA, add(CFA_XSP16, literal(-3)))
          CFI DPL0 load(1, XDATA, add(CFA_XSP16, literal(-2)))
          CFI DPH0 load(1, XDATA, add(CFA_XSP16, literal(-1)))
          CFI CFA_SP SP+-2
          CFI CFA_XSP16 add(XSP16, 139)
          CFI Block cfiCond11 Using cfiCommon0
          CFI (cfiCond11) Function SampleApp_Send_P2P_Message
          CFI (cfiCond11) Conditional ??CrossCallReturnLabel_3
          CFI (cfiCond11) R6 load(1, XDATA, add(CFA_XSP16, literal(-10)))
          CFI (cfiCond11) VB load(1, XDATA, add(CFA_XSP16, literal(-9)))
          CFI (cfiCond11) V0 load(1, XDATA, add(CFA_XSP16, literal(-8)))
          CFI (cfiCond11) V1 load(1, XDATA, add(CFA_XSP16, literal(-7)))
          CFI (cfiCond11) R7 load(1, XDATA, add(CFA_XSP16, literal(-6)))
          CFI (cfiCond11) ?RET_LOW load(1, XDATA, add(CFA_XSP16, literal(-5)))
          CFI (cfiCond11) ?RET_HIGH load(1, XDATA, add(CFA_XSP16, literal(-4)))
          CFI (cfiCond11) ?BRET_EXT load(1, XDATA, add(CFA_XSP16, literal(-3)))
          CFI (cfiCond11) DPL0 load(1, XDATA, add(CFA_XSP16, literal(-2)))
          CFI (cfiCond11) DPH0 load(1, XDATA, add(CFA_XSP16, literal(-1)))
          CFI (cfiCond11) CFA_SP SP+-2
          CFI (cfiCond11) CFA_XSP16 add(XSP16, 35)
          CFI Block cfiPicker12 Using cfiCommon1
          CFI (cfiPicker12) NoFunction
          CFI (cfiPicker12) Picker
        LCALL     `??osal_strlen::?relay`; Banked call to: osal_strlen
        MOV       ?V0,R2
        MOV       ?V1,R3
        MOV       R4,?V0
        MOV       R5,?V1
        RET
          CFI EndBlock cfiCond10
          CFI EndBlock cfiCond11
          CFI EndBlock cfiPicker12

        RSEG BANKED_CODE:HUGECODE:NOROOT(0)
?Subroutine0:
          CFI Block cfiCond13 Using cfiCommon0
          CFI Function SampleApp_ProcessMSGCmd
          CFI Conditional ??CrossCallReturnLabel_0
          CFI R6 load(1, XDATA, add(CFA_XSP16, literal(-11)))
          CFI VB load(1, XDATA, add(CFA_XSP16, literal(-10)))
          CFI V0 load(1, XDATA, add(CFA_XSP16, literal(-9)))
          CFI V1 load(1, XDATA, add(CFA_XSP16, literal(-8)))
          CFI V2 load(1, XDATA, add(CFA_XSP16, literal(-7)))
          CFI R7 load(1, XDATA, add(CFA_XSP16, literal(-6)))
          CFI ?RET_LOW load(1, XDATA, add(CFA_XSP16, literal(-5)))
          CFI ?RET_HIGH load(1, XDATA, add(CFA_XSP16, literal(-4)))
          CFI ?BRET_EXT load(1, XDATA, add(CFA_XSP16, literal(-3)))
          CFI DPL0 load(1, XDATA, add(CFA_XSP16, literal(-2)))
          CFI DPH0 load(1, XDATA, add(CFA_XSP16, literal(-1)))
          CFI CFA_SP SP+-2
          CFI CFA_XSP16 add(XSP16, 139)
          CFI Block cfiCond14 Using cfiCommon0
          CFI (cfiCond14) Function SampleApp_Send_P2P_Message
          CFI (cfiCond14) Conditional ??CrossCallReturnLabel_1
          CFI (cfiCond14) R6 load(1, XDATA, add(CFA_XSP16, literal(-10)))
          CFI (cfiCond14) VB load(1, XDATA, add(CFA_XSP16, literal(-9)))
          CFI (cfiCond14) V0 load(1, XDATA, add(CFA_XSP16, literal(-8)))
          CFI (cfiCond14) V1 load(1, XDATA, add(CFA_XSP16, literal(-7)))
          CFI (cfiCond14) R7 load(1, XDATA, add(CFA_XSP16, literal(-6)))
          CFI (cfiCond14) ?RET_LOW load(1, XDATA, add(CFA_XSP16, literal(-5)))
          CFI (cfiCond14) ?RET_HIGH load(1, XDATA, add(CFA_XSP16, literal(-4)))
          CFI (cfiCond14) ?BRET_EXT load(1, XDATA, add(CFA_XSP16, literal(-3)))
          CFI (cfiCond14) DPL0 load(1, XDATA, add(CFA_XSP16, literal(-2)))
          CFI (cfiCond14) DPH0 load(1, XDATA, add(CFA_XSP16, literal(-1)))
          CFI (cfiCond14) CFA_SP SP+-2
          CFI (cfiCond14) CFA_XSP16 add(XSP16, 35)
          CFI Block cfiPicker15 Using cfiCommon1
          CFI (cfiPicker15) NoFunction
          CFI (cfiPicker15) Picker
        MOV       R1,#0x0
        LCALL     `??HalUARTWrite::?relay`; Banked call to: HalUARTWrite
        ; Setup parameters for call to function HalUARTWrite
        ; Setup parameters for call to function HalUARTWrite
        MOV       R4,#0x2
        MOV       R5,#0x0
        MOV       R2,#`?<Constant "\\r\\n">` & 0xff
        MOV       R3,#(`?<Constant "\\r\\n">` >> 8) & 0xff
        MOV       R1,#0x0
        LCALL     `??HalUARTWrite::?relay`; Banked call to: HalUARTWrite
        RET
          CFI EndBlock cfiCond13
          CFI EndBlock cfiCond14
          CFI EndBlock cfiPicker15
//  657 

        RSEG BANKED_CODE:HUGECODE:NOROOT(0)
//  658 void SampleApp_CallBack(uint8 port, uint8 event)
SampleApp_CallBack:
          CFI Block cfiBlock16 Using cfiCommon0
          CFI Function SampleApp_CallBack
        CODE
//  659 {
        FUNCALL SampleApp_CallBack, HalUARTRead
        LOCFRAME ISTACK, 2, STACK
        LOCFRAME PSTACK, 0, STACK
        LOCFRAME XSTACK, 0, STACK
        LOCFRAME IOVERLAY, 0, STATIC
        LOCFRAME DOVERLAY, 0, STATIC
        ARGFRAME ISTACK, 2, STACK
        ARGFRAME PSTACK, 0, STACK
        ARGFRAME XSTACK, 0, STACK
        ARGFRAME IOVERLAY, 0, STATIC
        ARGFRAME DOVERLAY, 0, STATIC
        PUSH      DPL
          CFI DPL0 Frame(CFA_SP, 4)
          CFI CFA_SP SP+-4
        PUSH      DPH
          CFI DPH0 Frame(CFA_SP, 5)
          CFI CFA_SP SP+-5
        ; Saved register size: 2
        ; Auto size: 0
//  660   (void)port;
//  661 
//  662   HalUARTRead(SAMPLE_APP_PORT, SampleApp_RxBuf, 1);
        ; Setup parameters for call to function HalUARTRead
        MOV       R4,#0x1
        MOV       R5,#0x0
        MOV       R2,#SampleApp_RxBuf & 0xff
        MOV       R3,#(SampleApp_RxBuf >> 8) & 0xff
        MOV       R1,#0x0
        LCALL     `??HalUARTRead::?relay`; Banked call to: HalUARTRead
//  663 }
        POP       DPH
          CFI DPH0 SameValue
          CFI CFA_SP SP+-4
        POP       DPL
          CFI DPL0 SameValue
          CFI CFA_SP SP+-3
        LJMP      ?BRET
          CFI EndBlock cfiBlock16
//  664 
//  665 #endif
//  666 
//  667 //调试信息输出

        RSEG BANKED_CODE:HUGECODE:NOROOT(0)
//  668 void debug(uint8 *msg, ...)
debug:
          CFI Block cfiBlock17 Using cfiCommon0
          CFI Function debug
        CODE
//  669 {
        ; Saved register size: 0
        ; Auto size: 0
//  670 #if 0
//  671     uint8 len=0;
//  672     char info[200] = {0};
//  673     va_list args;
//  674 
//  675     if(msg==NULL) return;
//  676 
//  677     va_start(args, msg);
//  678     vsprintf(info, (const char*)msg, args);//从头插入到info中
//  679     va_end(args);
//  680     
//  681     
//  682     len=osal_strlen((char *)info);
//  683     if(len==0) return;
//  684     
//  685     
//  686 
//  687     HalUARTWrite(1,info, len);//串口1发送
//  688     osal_memset(info,'\0',200);
//  689 //    HAL_UART_PORT_0
//  690 #endif
//  691 }
        LJMP      ?BRET
          CFI EndBlock cfiBlock17

        RSEG XDATA_ID:CODE:NOROOT(0)
`?<Initializer for SampleApp_epDesc>`:
        DATA8
        DB 11
        DATA16
        DW SampleApp_TaskID
        DW SampleApp_SimpleDesc
        DATA8
        DB 0

        RSEG BANK_RELAYS:CODE:REORDER:NOROOT(0)
`??SampleApp_Init::?relay`:
        CODE
        LCALL   ?BDISPATCH
        DATA24
        DC24    SampleApp_Init

        RSEG BANK_RELAYS:CODE:REORDER:NOROOT(0)
`??SampleApp_HandleKeys::?relay`:
        CODE
        LCALL   ?BDISPATCH
        DATA24
        DC24    SampleApp_HandleKeys

        RSEG BANK_RELAYS:CODE:REORDER:NOROOT(0)
`??SampleApp_ProcessEvent::?relay`:
        CODE
        LCALL   ?BDISPATCH
        DATA24
        DC24    SampleApp_ProcessEvent

        RSEG BANK_RELAYS:CODE:REORDER:NOROOT(0)
`??SampleApp_ProcessMSGCmd::?relay`:
        CODE
        LCALL   ?BDISPATCH
        DATA24
        DC24    SampleApp_ProcessMSGCmd

        RSEG BANK_RELAYS:CODE:REORDER:NOROOT(0)
`??SampleApp_Send_P2P_Message::?relay`:
        CODE
        LCALL   ?BDISPATCH
        DATA24
        DC24    SampleApp_Send_P2P_Message

        RSEG BANK_RELAYS:CODE:REORDER:NOROOT(0)
`??SampleApp_CallBack::?relay`:
        CODE
        LCALL   ?BDISPATCH
        DATA24
        DC24    SampleApp_CallBack

        RSEG BANK_RELAYS:CODE:REORDER:NOROOT(0)
`??debug::?relay`:
        CODE
        LCALL   ?BDISPATCH
        DATA24
        DC24    debug

        RSEG XDATA_ROM_C:CONST:REORDER:NOROOT(0)
        DATA8
`?<Constant "\\r\\n">`:
        DB "\015\012"

        RSEG XDATA_ROM_C:CONST:REORDER:NOROOT(0)
        DATA8
`?<Constant "D2:0">`:
        DB "D2:0"

        RSEG XDATA_ROM_C:CONST:REORDER:NOROOT(0)
        DATA8
`?<Constant "D2:1">`:
        DB "D2:1"

        RSEG XDATA_ROM_C:CONST:REORDER:NOROOT(0)
        DATA32
`?<Constant "B:1">`:
        DB "B:1"

        RSEG XDATA_ROM_C:CONST:REORDER:NOROOT(0)
        DATA32
`?<Constant "B:0">`:
        DB "B:0"

        RSEG XDATA_ROM_C:CONST:REORDER:NOROOT(0)
        DATA8
`?<Constant {0, 0, 0, 0, 0}>`:
        DB 0
        DB 0
        DB 0
        DB 0
        DB 0

        RSEG XDATA_ROM_C:CONST:REORDER:NOROOT(0)
        DATA8
`?<Constant {0, 0, 0, 0, 0, 0, 0, 0, 0, 0, 0, 0`:
        DB 0
        DB 0
        DB 0
        DB 0
        DB 0
        DB 0
        DB 0
        DB 0
        DB 0
        DB 0
        DB 0
        DB 0
        DB 0
        DB 0
        DB 0
        DB 0
        DB 0
        DB 0
        DB 0
        DB 0

        RSEG XDATA_ROM_C:CONST:REORDER:NOROOT(0)
        DATA8
`?<Constant "T&H:%d %d">`:
        DB "T&H:%d %d"

        END
// 
// 754 bytes in segment BANKED_CODE
//  42 bytes in segment BANK_RELAYS
//   2 bytes in segment SFR_AN
//   6 bytes in segment XDATA_I
//   6 bytes in segment XDATA_ID
//  76 bytes in segment XDATA_ROM_C
// 222 bytes in segment XDATA_Z
// 
//  48 bytes of CODE     memory
//  76 bytes of CONST    memory
//   0 bytes of DATA     memory (+ 2 bytes shared)
// 754 bytes of HUGECODE memory
// 228 bytes of XDATA    memory
//
//Errors: none
//Warnings: 10
