///////////////////////////////////////////////////////////////////////////////
//
// IAR C/C++ Compiler V10.30.1.6000 for 8051              04/Sep/2021  21:05:43
// Copyright 2004-2018 IAR Systems AB.
// PC-locked license - IAR Embedded Workbench for 8051
//
//    Core               =  plain
//    Code model         =  banked
//    Data model         =  large
//    Calling convention =  xdata reentrant
//    Constant location  =  data_rom
//    Dptr setup         =  1,16
//                          
//    Source file        =  
//        C:\Users\OY\Desktop\ing\new\ZStack-2.5.1a\Projects\zstack\Samples\SampleApp\Source\SampleApp.c
//    Command line       =  
//        -f C:\Users\OY\AppData\Local\Temp\EW111A.tmp
//        (C:\Users\OY\Desktop\ing\new\ZStack-2.5.1a\Projects\zstack\Samples\SampleApp\Source\SampleApp.c
//        -D NWK_AUTO_POLL -D ZTOOL_P1 -D MT_TASK -D MT_SYS_FUNC -D MT_ZDO_FUNC
//        -D LCD_SUPPORTED=DEBUG -lC
//        C:\Users\OY\Desktop\ing\new\ZStack-2.5.1a\Projects\zstack\Samples\SampleApp\CC2530DB\EndDeviceEB\List
//        -lA
//        C:\Users\OY\Desktop\ing\new\ZStack-2.5.1a\Projects\zstack\Samples\SampleApp\CC2530DB\EndDeviceEB\List
//        --diag_suppress Pe001,Pa010 -o
//        C:\Users\OY\Desktop\ing\new\ZStack-2.5.1a\Projects\zstack\Samples\SampleApp\CC2530DB\EndDeviceEB\Obj
//        -e --debug --core=plain --dptr=16,1 --data_model=large
//        --code_model=banked --calling_convention=xdata_reentrant
//        --place_constants=data_rom --nr_virtual_regs 8 -f
//        C:\Users\OY\Desktop\ing\new\ZStack-2.5.1a\Projects\zstack\Samples\SampleApp\CC2530DB\..\..\..\Tools\CC2530DB\f8wEndev.cfg
//        (-DCPU32MHZ -DROOT=__near_func -DMAC_CFG_TX_DATA_MAX=3
//        -DMAC_CFG_TX_MAX=6 -DMAC_CFG_RX_MAX=3) -f
//        C:\Users\OY\Desktop\ing\new\ZStack-2.5.1a\Projects\zstack\Samples\SampleApp\CC2530DB\..\..\..\Tools\CC2530DB\f8wConfig.cfg
//        (-DZIGBEEPRO -DSECURE=0 -DZG_SECURE_DYNAMIC=0 -DREFLECTOR
//        -DDEFAULT_CHANLIST=0x00000800 -DZDAPP_CONFIG_PAN_ID=0xFFF1
//        -DNWK_START_DELAY=100 -DEXTENDED_JOINING_RANDOM_MASK=0x007F
//        -DBEACON_REQUEST_DELAY=100 -DBEACON_REQ_DELAY_MASK=0x00FF
//        -DLINK_STATUS_JITTER_MASK=0x007F -DROUTE_EXPIRY_TIME=30
//        -DAPSC_ACK_WAIT_DURATION_POLLED=3000 -DNWK_INDIRECT_MSG_TIMEOUT=7
//        -DMAX_RREQ_ENTRIES=8 -DAPSC_MAX_FRAME_RETRIES=3
//        -DNWK_MAX_DATA_RETRIES=2 -DMAX_POLL_FAILURE_RETRIES=2 -DMAX_BCAST=9
//        -DAPS_MAX_GROUPS=16 -DMAX_RTG_ENTRIES=40 -DNWK_MAX_BINDING_ENTRIES=4
//        -DMAX_BINDING_CLUSTER_IDS=4 "-DDEFAULT_KEY={0x01, 0x03, 0x05, 0x07,
//        0x09, 0x0B, 0x0D, 0x0F, 0x00, 0x02, 0x04, 0x06, 0x08, 0x0A, 0x0C,
//        0x0D}" -DMAC_MAX_FRAME_SIZE=116 -DZDNWKMGR_MIN_TRANSMISSIONS=20
//        "-DCONST=const __code" -DGENERIC=__generic -DRFD_RCVC_ALWAYS_ON=FALSE
//        -DPOLL_RATE=1000 -DQUEUED_POLL_RATE=100 -DRESPONSE_POLL_RATE=100
//        -DREJOIN_POLL_RATE=440) -I
//        C:\Users\OY\Desktop\ing\new\ZStack-2.5.1a\Projects\zstack\Samples\SampleApp\CC2530DB\
//        -I
//        C:\Users\OY\Desktop\ing\new\ZStack-2.5.1a\Projects\zstack\Samples\SampleApp\CC2530DB\..\Source\
//        -I
//        C:\Users\OY\Desktop\ing\new\ZStack-2.5.1a\Projects\zstack\Samples\SampleApp\CC2530DB\..\..\..\ZMain\TI2530DB\
//        -I
//        C:\Users\OY\Desktop\ing\new\ZStack-2.5.1a\Projects\zstack\Samples\SampleApp\CC2530DB\..\..\..\..\..\Components\hal\include\
//        -I
//        C:\Users\OY\Desktop\ing\new\ZStack-2.5.1a\Projects\zstack\Samples\SampleApp\CC2530DB\..\..\..\..\..\Components\hal\target\CC2530EB\
//        -I
//        C:\Users\OY\Desktop\ing\new\ZStack-2.5.1a\Projects\zstack\Samples\SampleApp\CC2530DB\..\..\..\..\..\Components\mac\include\
//        -I
//        C:\Users\OY\Desktop\ing\new\ZStack-2.5.1a\Projects\zstack\Samples\SampleApp\CC2530DB\..\..\..\..\..\Components\mac\high_level\
//        -I
//        C:\Users\OY\Desktop\ing\new\ZStack-2.5.1a\Projects\zstack\Samples\SampleApp\CC2530DB\..\..\..\..\..\Components\mac\low_level\srf04\
//        -I
//        C:\Users\OY\Desktop\ing\new\ZStack-2.5.1a\Projects\zstack\Samples\SampleApp\CC2530DB\..\..\..\..\..\Components\mac\low_level\srf04\single_chip\
//        -I
//        C:\Users\OY\Desktop\ing\new\ZStack-2.5.1a\Projects\zstack\Samples\SampleApp\CC2530DB\..\..\..\..\..\Components\mt\
//        -I
//        C:\Users\OY\Desktop\ing\new\ZStack-2.5.1a\Projects\zstack\Samples\SampleApp\CC2530DB\..\..\..\..\..\Components\osal\include\
//        -I
//        C:\Users\OY\Desktop\ing\new\ZStack-2.5.1a\Projects\zstack\Samples\SampleApp\CC2530DB\..\..\..\..\..\Components\services\saddr\
//        -I
//        C:\Users\OY\Desktop\ing\new\ZStack-2.5.1a\Projects\zstack\Samples\SampleApp\CC2530DB\..\..\..\..\..\Components\services\sdata\
//        -I
//        C:\Users\OY\Desktop\ing\new\ZStack-2.5.1a\Projects\zstack\Samples\SampleApp\CC2530DB\..\..\..\..\..\Components\stack\af\
//        -I
//        C:\Users\OY\Desktop\ing\new\ZStack-2.5.1a\Projects\zstack\Samples\SampleApp\CC2530DB\..\..\..\..\..\Components\stack\nwk\
//        -I
//        C:\Users\OY\Desktop\ing\new\ZStack-2.5.1a\Projects\zstack\Samples\SampleApp\CC2530DB\..\..\..\..\..\Components\stack\sapi\
//        -I
//        C:\Users\OY\Desktop\ing\new\ZStack-2.5.1a\Projects\zstack\Samples\SampleApp\CC2530DB\..\..\..\..\..\Components\stack\sec\
//        -I
//        C:\Users\OY\Desktop\ing\new\ZStack-2.5.1a\Projects\zstack\Samples\SampleApp\CC2530DB\..\..\..\..\..\Components\stack\sys\
//        -I
//        C:\Users\OY\Desktop\ing\new\ZStack-2.5.1a\Projects\zstack\Samples\SampleApp\CC2530DB\..\..\..\..\..\Components\stack\zdo\
//        -I
//        C:\Users\OY\Desktop\ing\new\ZStack-2.5.1a\Projects\zstack\Samples\SampleApp\CC2530DB\..\..\..\..\..\Components\zmac\
//        -I
//        C:\Users\OY\Desktop\ing\new\ZStack-2.5.1a\Projects\zstack\Samples\SampleApp\CC2530DB\..\..\..\..\..\Components\zmac\f8w\
//        -Ohz --no_code_motion)
//    Locale             =  Chinese (Simplified)_CHN.936
//    List file          =  
//        C:\Users\OY\Desktop\ing\new\ZStack-2.5.1a\Projects\zstack\Samples\SampleApp\CC2530DB\EndDeviceEB\List\SampleApp.s51
//
///////////////////////////////////////////////////////////////////////////////

        NAME SampleApp

        RTMODEL "__SystemLibrary", "CLib"
        RTMODEL "__calling_convention", "xdata_reentrant"
        RTMODEL "__code_model", "banked"
        RTMODEL "__core", "plain"
        RTMODEL "__data_model", "large"
        RTMODEL "__dptr_size", "16"
        RTMODEL "__extended_stack", "disabled"
        RTMODEL "__iar_require _formatted_write", ""
        RTMODEL "__location_for_constants", "data"
        RTMODEL "__number_of_dptrs", "1"
        RTMODEL "__register_banks", "*"
        RTMODEL "__rt_version", "1"

        RSEG DOVERLAY:DATA:NOROOT(0)
        RSEG IOVERLAY:IDATA:NOROOT(0)
        RSEG ISTACK:IDATA:NOROOT(0)
        RSEG PSTACK:XDATA:NOROOT(0)
        RSEG XSTACK:XDATA:NOROOT(0)

        EXTERN ?V0
        EXTERN ?V1
        EXTERN ?V2
        EXTERN ?V3
        EXTERN ?ALLOC_XSTACK8
        EXTERN ?BANKED_ENTER_XDATA
        EXTERN ?BANKED_LEAVE_XDATA
        EXTERN ?BDISPATCH
        EXTERN ?BRET
        EXTERN ?DEALLOC_XSTACK8
        EXTERN ?MOVE_LONG8_XDATA_XDATA
        EXTERN ?PUSH_XSTACK_I_ONE
        EXTERN ?PUSH_XSTACK_I_THREE
        EXTERN ?PUSH_XSTACK_I_TWO
        EXTERN ?XSP
        EXTERN ?XSTACK_DISP0_8
        EXTERN ?XSTACK_DISP100_8
        EXTERN ?XSTACK_DISP101_8
        EXTERN ?XSTACK_DISP102_8
        EXTERN __INIT_XDATA_I
        EXTERN __INIT_XDATA_Z

        PUBLIC `??SampleApp_CallBack::?relay`
        FUNCTION `??SampleApp_CallBack::?relay`,0203H
        PUBLIC `??SampleApp_HandleKeys::?relay`
        FUNCTION `??SampleApp_HandleKeys::?relay`,0203H
        PUBLIC `??SampleApp_Init::?relay`
        FUNCTION `??SampleApp_Init::?relay`,0203H
        PUBLIC `??SampleApp_ProcessEvent::?relay`
        FUNCTION `??SampleApp_ProcessEvent::?relay`,0203H
        FUNCTION `??SampleApp_ProcessMSGCmd::?relay`,0203H
        FUNCTION `??SampleApp_Send_P2P_Message::?relay`,0203H
        PUBLIC `??debug::?relay`
        FUNCTION `??debug::?relay`,0203H
        PUBWEAK P0DIR
        PUBWEAK P0SEL
        PUBWEAK P2DIR
        PUBWEAK P2INP
        PUBWEAK P2SEL
        PUBLIC SampleApp_CallBack
        FUNCTION SampleApp_CallBack,021203H
        ARGFRAME XSTACK, 0, STACK
        LOCFRAME ISTACK, 2, STACK
        PUBLIC SampleApp_ClusterList
        PUBLIC SampleApp_HandleKeys
        FUNCTION SampleApp_HandleKeys,0203H
        ARGFRAME XSTACK, 0, STACK
        PUBLIC SampleApp_Init
        FUNCTION SampleApp_Init,021203H
        ARGFRAME XSTACK, 0, STACK
        LOCFRAME XSTACK, 9, STACK
        PUBLIC SampleApp_NwkState
        PUBLIC SampleApp_P2P_DstAddr
        PUBLIC SampleApp_ProcessEvent
        FUNCTION SampleApp_ProcessEvent,0a1203H
        ARGFRAME XSTACK, 0, STACK
        LOCFRAME XSTACK, 12, STACK
        FUNCTION SampleApp_ProcessMSGCmd,0a1203H
        ARGFRAME XSTACK, 12, STACK
        ARGFRAME IOVERLAY, 0, STATIC
        ARGFRAME DOVERLAY, 0, STATIC
        LOCFRAME XSTACK, 142, STACK
        FUNCTION SampleApp_Send_P2P_Message,0a1203H
        ARGFRAME XSTACK, 12, STACK
        ARGFRAME IOVERLAY, 0, STATIC
        ARGFRAME DOVERLAY, 0, STATIC
        LOCFRAME ISTACK, 1, STACK
        LOCFRAME XSTACK, 49, STACK
        PUBLIC SampleApp_SimpleDesc
        PUBLIC SampleApp_TaskID
        PUBLIC SampleApp_epDesc
        PUBWEAK _A_P0
        PUBWEAK _A_P1
        PUBWEAK _A_P2
        PUBLIC cor_led3
        PUBLIC debug
        FUNCTION debug,0203H
        ARGFRAME XSTACK, 0, STACK
        PUBLIC end_buzzer
        PUBLIC end_hum
        PUBLIC end_led2
        PUBLIC end_light
        PUBLIC end_man
        PUBLIC end_obstacles
        PUBLIC end_smoke
        PUBLIC end_temp
        PUBLIC onenet_login_ok
        
          CFI Names cfiNames0
          CFI StackFrame CFA_SP SP IDATA
          CFI StackFrame CFA_PSP16 PSP16 XDATA
          CFI StackFrame CFA_XSP16 XSP16 XDATA
          CFI StaticOverlayFrame CFA_IOVERLAY IOVERLAY
          CFI StaticOverlayFrame CFA_DOVERLAY DOVERLAY
          CFI Resource `PSW.CY`:1, `B.BR0`:1, `B.BR1`:1, `B.BR2`:1, `B.BR3`:1
          CFI Resource `B.BR4`:1, `B.BR5`:1, `B.BR6`:1, `B.BR7`:1, `VB.BR8`:1
          CFI Resource `VB.BR9`:1, `VB.BR10`:1, `VB.BR11`:1, `VB.BR12`:1
          CFI Resource `VB.BR13`:1, `VB.BR14`:1, `VB.BR15`:1, VB:8, B:8, A:8
          CFI Resource PSW:8, DPL0:8, DPH0:8, R0:8, R1:8, R2:8, R3:8, R4:8, R5:8
          CFI Resource R6:8, R7:8, V0:8, V1:8, V2:8, V3:8, V4:8, V5:8, V6:8, V7:8
          CFI Resource SP:8, PSPH:8, PSPL:8, PSP16:16, XSPH:8, XSPL:8, XSP16:16
          CFI VirtualResource ?RET:24
          CFI Resource ?BRET_EXT:8
          CFI VirtualResource ?RET_HIGH:8, ?RET_LOW:8
          CFI ResourceParts PSP16 PSPH, PSPL
          CFI ResourceParts XSP16 XSPH, XSPL
          CFI ResourceParts ?RET ?BRET_EXT, ?RET_HIGH, ?RET_LOW
          CFI EndNames cfiNames0
        
          CFI Common cfiCommon0 Using cfiNames0
          CFI CodeAlign 1
          CFI DataAlign -1
          CFI ReturnAddress ?RET CODE
          CFI CFA_DOVERLAY Used
          CFI CFA_IOVERLAY Used
          CFI CFA_SP SP+-3
          CFI CFA_PSP16 PSP16+0
          CFI CFA_XSP16 XSP16+0
          CFI `PSW.CY` SameValue
          CFI `B.BR0` SameValue
          CFI `B.BR1` SameValue
          CFI `B.BR2` SameValue
          CFI `B.BR3` SameValue
          CFI `B.BR4` SameValue
          CFI `B.BR5` SameValue
          CFI `B.BR6` SameValue
          CFI `B.BR7` SameValue
          CFI `VB.BR8` SameValue
          CFI `VB.BR9` SameValue
          CFI `VB.BR10` SameValue
          CFI `VB.BR11` SameValue
          CFI `VB.BR12` SameValue
          CFI `VB.BR13` SameValue
          CFI `VB.BR14` SameValue
          CFI `VB.BR15` SameValue
          CFI VB SameValue
          CFI B Undefined
          CFI A Undefined
          CFI PSW SameValue
          CFI DPL0 SameValue
          CFI DPH0 SameValue
          CFI R0 Undefined
          CFI R1 Undefined
          CFI R2 Undefined
          CFI R3 Undefined
          CFI R4 Undefined
          CFI R5 Undefined
          CFI R6 SameValue
          CFI R7 SameValue
          CFI V0 SameValue
          CFI V1 SameValue
          CFI V2 SameValue
          CFI V3 SameValue
          CFI V4 SameValue
          CFI V5 SameValue
          CFI V6 SameValue
          CFI V7 SameValue
          CFI PSPH Undefined
          CFI PSPL Undefined
          CFI XSPH Undefined
          CFI XSPL Undefined
          CFI ?RET Concat
          CFI ?BRET_EXT Frame(CFA_SP, 3)
          CFI ?RET_HIGH Frame(CFA_SP, 2)
          CFI ?RET_LOW Frame(CFA_SP, 1)
          CFI EndCommon cfiCommon0
        
        
          CFI Common cfiCommon1 Using cfiNames0
          CFI CodeAlign 1
          CFI DataAlign -1
          CFI ReturnAddress ?RET CODE
          CFI CFA_DOVERLAY Used
          CFI CFA_IOVERLAY Used
          CFI CFA_SP SP+-2
          CFI CFA_PSP16 PSP16+0
          CFI CFA_XSP16 XSP16+0
          CFI `PSW.CY` SameValue
          CFI `B.BR0` SameValue
          CFI `B.BR1` SameValue
          CFI `B.BR2` SameValue
          CFI `B.BR3` SameValue
          CFI `B.BR4` SameValue
          CFI `B.BR5` SameValue
          CFI `B.BR6` SameValue
          CFI `B.BR7` SameValue
          CFI `VB.BR8` SameValue
          CFI `VB.BR9` SameValue
          CFI `VB.BR10` SameValue
          CFI `VB.BR11` SameValue
          CFI `VB.BR12` SameValue
          CFI `VB.BR13` SameValue
          CFI `VB.BR14` SameValue
          CFI `VB.BR15` SameValue
          CFI VB SameValue
          CFI B SameValue
          CFI A SameValue
          CFI PSW SameValue
          CFI DPL0 SameValue
          CFI DPH0 SameValue
          CFI R0 SameValue
          CFI R1 SameValue
          CFI R2 SameValue
          CFI R3 SameValue
          CFI R4 SameValue
          CFI R5 SameValue
          CFI R6 SameValue
          CFI R7 SameValue
          CFI V0 SameValue
          CFI V1 SameValue
          CFI V2 SameValue
          CFI V3 SameValue
          CFI V4 SameValue
          CFI V5 SameValue
          CFI V6 SameValue
          CFI V7 SameValue
          CFI PSPH Undefined
          CFI PSPL Undefined
          CFI XSPH Undefined
          CFI XSPL Undefined
          CFI ?RET Concat
          CFI ?BRET_EXT SameValue
          CFI ?RET_HIGH Frame(CFA_SP, 2)
          CFI ?RET_LOW Frame(CFA_SP, 1)
          CFI EndCommon cfiCommon1
        
AF_DataRequest      SYMBOL "AF_DataRequest"
`??AF_DataRequest::?relay` SYMBOL "?relay", AF_DataRequest
DHT11               SYMBOL "DHT11"
`??DHT11::?relay`   SYMBOL "?relay", DHT11
HalAdcInit          SYMBOL "HalAdcInit"
`??HalAdcInit::?relay` SYMBOL "?relay", HalAdcInit
HalAdcRead          SYMBOL "HalAdcRead"
`??HalAdcRead::?relay` SYMBOL "?relay", HalAdcRead
HalLcdWriteString   SYMBOL "HalLcdWriteString"
`??HalLcdWriteString::?relay` SYMBOL "?relay", HalLcdWriteString
HalLedSet           SYMBOL "HalLedSet"
`??HalLedSet::?relay` SYMBOL "?relay", HalLedSet
HalUARTRead         SYMBOL "HalUARTRead"
`??HalUARTRead::?relay` SYMBOL "?relay", HalUARTRead
HalUARTWrite        SYMBOL "HalUARTWrite"
`??HalUARTWrite::?relay` SYMBOL "?relay", HalUARTWrite
MT_UartInit         SYMBOL "MT_UartInit"
`??MT_UartInit::?relay` SYMBOL "?relay", MT_UartInit
MT_UartRegisterTaskID SYMBOL "MT_UartRegisterTaskID"
`??MT_UartRegisterTaskID::?relay` SYMBOL "?relay", MT_UartRegisterTaskID
RegisterForKeys     SYMBOL "RegisterForKeys"
`??RegisterForKeys::?relay` SYMBOL "?relay", RegisterForKeys
afRegister          SYMBOL "afRegister"
`??afRegister::?relay` SYMBOL "?relay", afRegister
osal_memcpy         SYMBOL "osal_memcpy"
`??osal_memcpy::?relay` SYMBOL "?relay", osal_memcpy
osal_memset         SYMBOL "osal_memset"
`??osal_memset::?relay` SYMBOL "?relay", osal_memset
osal_msg_deallocate SYMBOL "osal_msg_deallocate"
`??osal_msg_deallocate::?relay` SYMBOL "?relay", osal_msg_deallocate
osal_msg_receive    SYMBOL "osal_msg_receive"
`??osal_msg_receive::?relay` SYMBOL "?relay", osal_msg_receive
osal_rand           SYMBOL "osal_rand"
`??osal_rand::?relay` SYMBOL "?relay", osal_rand
osal_start_timerEx  SYMBOL "osal_start_timerEx"
`??osal_start_timerEx::?relay` SYMBOL "?relay", osal_start_timerEx
osal_strlen         SYMBOL "osal_strlen"
`??osal_strlen::?relay` SYMBOL "?relay", osal_strlen
sprintf             SYMBOL "sprintf"
`??sprintf::?relay` SYMBOL "?relay", sprintf
strstr              SYMBOL "strstr"
`??strstr::?relay`  SYMBOL "?relay", strstr
SampleApp_CallBack  SYMBOL "SampleApp_CallBack"
`??SampleApp_CallBack::?relay` SYMBOL "?relay", SampleApp_CallBack
SampleApp_HandleKeys SYMBOL "SampleApp_HandleKeys"
`??SampleApp_HandleKeys::?relay` SYMBOL "?relay", SampleApp_HandleKeys
SampleApp_Init      SYMBOL "SampleApp_Init"
`??SampleApp_Init::?relay` SYMBOL "?relay", SampleApp_Init
SampleApp_ProcessEvent SYMBOL "SampleApp_ProcessEvent"
`??SampleApp_ProcessEvent::?relay` SYMBOL "?relay", SampleApp_ProcessEvent
debug               SYMBOL "debug"
`??debug::?relay`   SYMBOL "?relay", debug

        EXTERN `??AF_DataRequest::?relay`
        FUNCTION `??AF_DataRequest::?relay`,00H
        EXTERN `??DHT11::?relay`
        FUNCTION `??DHT11::?relay`,00H
        EXTERN `??HalAdcInit::?relay`
        FUNCTION `??HalAdcInit::?relay`,00H
        EXTERN `??HalAdcRead::?relay`
        FUNCTION `??HalAdcRead::?relay`,00H
        EXTERN `??HalLcdWriteString::?relay`
        FUNCTION `??HalLcdWriteString::?relay`,00H
        EXTERN `??HalLedSet::?relay`
        FUNCTION `??HalLedSet::?relay`,00H
        EXTERN `??HalUARTRead::?relay`
        FUNCTION `??HalUARTRead::?relay`,00H
        EXTERN `??HalUARTWrite::?relay`
        FUNCTION `??HalUARTWrite::?relay`,00H
        EXTERN `??MT_UartInit::?relay`
        FUNCTION `??MT_UartInit::?relay`,00H
        EXTERN `??MT_UartRegisterTaskID::?relay`
        FUNCTION `??MT_UartRegisterTaskID::?relay`,00H
        EXTERN `??RegisterForKeys::?relay`
        FUNCTION `??RegisterForKeys::?relay`,00H
        EXTERN `??afRegister::?relay`
        FUNCTION `??afRegister::?relay`,00H
        EXTERN `??osal_memcpy::?relay`
        FUNCTION `??osal_memcpy::?relay`,00H
        EXTERN `??osal_memset::?relay`
        FUNCTION `??osal_memset::?relay`,00H
        EXTERN `??osal_msg_deallocate::?relay`
        FUNCTION `??osal_msg_deallocate::?relay`,00H
        EXTERN `??osal_msg_receive::?relay`
        FUNCTION `??osal_msg_receive::?relay`,00H
        EXTERN `??osal_rand::?relay`
        FUNCTION `??osal_rand::?relay`,00H
        EXTERN `??osal_start_timerEx::?relay`
        FUNCTION `??osal_start_timerEx::?relay`,00H
        EXTERN `??osal_strlen::?relay`
        FUNCTION `??osal_strlen::?relay`,00H
        EXTERN `??sprintf::?relay`
        FUNCTION `??sprintf::?relay`,00H
        EXTERN `??strstr::?relay`
        FUNCTION `??strstr::?relay`,00H
        EXTERN AF_DataRequest
        FUNCTION AF_DataRequest,0202H
        ARGFRAME ISTACK, 0, STACK
        ARGFRAME PSTACK, 0, STACK
        ARGFRAME XSTACK, 49, STACK
        ARGFRAME IOVERLAY, 0, STATIC
        ARGFRAME DOVERLAY, 0, STATIC
        EXTERN DHT11
        FUNCTION DHT11,0202H
        ARGFRAME ISTACK, 0, STACK
        ARGFRAME PSTACK, 0, STACK
        ARGFRAME XSTACK, 40, STACK
        ARGFRAME IOVERLAY, 0, STATIC
        ARGFRAME DOVERLAY, 0, STATIC
        EXTERN HalAdcInit
        FUNCTION HalAdcInit,0202H
        ARGFRAME ISTACK, 0, STACK
        ARGFRAME PSTACK, 0, STACK
        ARGFRAME XSTACK, 40, STACK
        ARGFRAME IOVERLAY, 0, STATIC
        ARGFRAME DOVERLAY, 0, STATIC
        EXTERN HalAdcRead
        FUNCTION HalAdcRead,0202H
        ARGFRAME ISTACK, 0, STACK
        ARGFRAME PSTACK, 0, STACK
        ARGFRAME XSTACK, 40, STACK
        ARGFRAME IOVERLAY, 0, STATIC
        ARGFRAME DOVERLAY, 0, STATIC
        EXTERN HalLcdWriteString
        FUNCTION HalLcdWriteString,0202H
        ARGFRAME ISTACK, 0, STACK
        ARGFRAME PSTACK, 0, STACK
        ARGFRAME XSTACK, 40, STACK
        ARGFRAME IOVERLAY, 0, STATIC
        ARGFRAME DOVERLAY, 0, STATIC
        EXTERN HalLedSet
        FUNCTION HalLedSet,0202H
        ARGFRAME ISTACK, 0, STACK
        ARGFRAME PSTACK, 0, STACK
        ARGFRAME XSTACK, 139, STACK
        ARGFRAME IOVERLAY, 0, STATIC
        ARGFRAME DOVERLAY, 0, STATIC
        EXTERN HalUARTRead
        FUNCTION HalUARTRead,0202H
        ARGFRAME ISTACK, 2, STACK
        ARGFRAME PSTACK, 0, STACK
        ARGFRAME XSTACK, 0, STACK
        ARGFRAME IOVERLAY, 0, STATIC
        ARGFRAME DOVERLAY, 0, STATIC
        EXTERN HalUARTWrite
        FUNCTION HalUARTWrite,0202H
        ARGFRAME ISTACK, 0, STACK
        ARGFRAME PSTACK, 0, STACK
        ARGFRAME XSTACK, 139, STACK
        ARGFRAME IOVERLAY, 0, STATIC
        ARGFRAME DOVERLAY, 0, STATIC
        EXTERN MT_UartInit
        FUNCTION MT_UartInit,0200H
        ARGFRAME ISTACK, 0, STACK
        ARGFRAME PSTACK, 0, STACK
        ARGFRAME XSTACK, 9, STACK
        ARGFRAME IOVERLAY, 0, STATIC
        ARGFRAME DOVERLAY, 0, STATIC
        EXTERN MT_UartRegisterTaskID
        FUNCTION MT_UartRegisterTaskID,0200H
        ARGFRAME ISTACK, 0, STACK
        ARGFRAME PSTACK, 0, STACK
        ARGFRAME XSTACK, 9, STACK
        ARGFRAME IOVERLAY, 0, STATIC
        ARGFRAME DOVERLAY, 0, STATIC
        EXTERN RegisterForKeys
        FUNCTION RegisterForKeys,0202H
        ARGFRAME ISTACK, 0, STACK
        ARGFRAME PSTACK, 0, STACK
        ARGFRAME XSTACK, 9, STACK
        ARGFRAME IOVERLAY, 0, STATIC
        ARGFRAME DOVERLAY, 0, STATIC
        EXTERN afRegister
        FUNCTION afRegister,0202H
        ARGFRAME ISTACK, 0, STACK
        ARGFRAME PSTACK, 0, STACK
        ARGFRAME XSTACK, 9, STACK
        ARGFRAME IOVERLAY, 0, STATIC
        ARGFRAME DOVERLAY, 0, STATIC
        EXTERN osal_memcpy
        FUNCTION osal_memcpy,0202H
        ARGFRAME ISTACK, 0, STACK
        ARGFRAME PSTACK, 0, STACK
        ARGFRAME XSTACK, 142, STACK
        ARGFRAME IOVERLAY, 0, STATIC
        ARGFRAME DOVERLAY, 0, STATIC
        EXTERN osal_memset
        FUNCTION osal_memset,0202H
        ARGFRAME ISTACK, 0, STACK
        ARGFRAME PSTACK, 0, STACK
        ARGFRAME XSTACK, 139, STACK
        ARGFRAME IOVERLAY, 0, STATIC
        ARGFRAME DOVERLAY, 0, STATIC
        EXTERN osal_msg_deallocate
        FUNCTION osal_msg_deallocate,0202H
        ARGFRAME ISTACK, 0, STACK
        ARGFRAME PSTACK, 0, STACK
        ARGFRAME XSTACK, 12, STACK
        ARGFRAME IOVERLAY, 0, STATIC
        ARGFRAME DOVERLAY, 0, STATIC
        EXTERN osal_msg_receive
        FUNCTION osal_msg_receive,0202H
        ARGFRAME ISTACK, 0, STACK
        ARGFRAME PSTACK, 0, STACK
        ARGFRAME XSTACK, 12, STACK
        ARGFRAME IOVERLAY, 0, STATIC
        ARGFRAME DOVERLAY, 0, STATIC
        EXTERN osal_rand
        FUNCTION osal_rand,0202H
        ARGFRAME ISTACK, 0, STACK
        ARGFRAME PSTACK, 0, STACK
        ARGFRAME XSTACK, 12, STACK
        ARGFRAME IOVERLAY, 0, STATIC
        ARGFRAME DOVERLAY, 0, STATIC
        EXTERN osal_start_timerEx
        FUNCTION osal_start_timerEx,0202H
        ARGFRAME ISTACK, 0, STACK
        ARGFRAME PSTACK, 0, STACK
        ARGFRAME XSTACK, 12, STACK
        ARGFRAME IOVERLAY, 0, STATIC
        ARGFRAME DOVERLAY, 0, STATIC
        EXTERN osal_strlen
        FUNCTION osal_strlen,0202H
        ARGFRAME ISTACK, 0, STACK
        ARGFRAME PSTACK, 0, STACK
        ARGFRAME XSTACK, 139, STACK
        ARGFRAME IOVERLAY, 0, STATIC
        ARGFRAME DOVERLAY, 0, STATIC
        EXTERN shidu
        EXTERN sprintf
        FUNCTION sprintf,0202H
        ARGFRAME ISTACK, 0, STACK
        ARGFRAME PSTACK, 0, STACK
        ARGFRAME XSTACK, 44, STACK
        ARGFRAME IOVERLAY, 0, STATIC
        ARGFRAME DOVERLAY, 0, STATIC
        EXTERN strstr
        FUNCTION strstr,010202H
        ARGFRAME ISTACK, 0, STACK
        ARGFRAME PSTACK, 0, STACK
        ARGFRAME XSTACK, 139, STACK
        ARGFRAME IOVERLAY, 0, STATIC
        ARGFRAME DOVERLAY, 0, STATIC
        EXTERN wendu

// C:\Users\OY\Desktop\ing\new\ZStack-2.5.1a\Projects\zstack\Samples\SampleApp\Source\SampleApp.c
//    1 /*********************************************************************
//    2  * INCLUDES
//    3  */
//    4 
//    5 #include <stdio.h>
//    6 #include <string.h>
//    7 #include "AF.h"
//    8 #include "OnBoard.h"

        ASEGN SFR_AN:DATA:NOROOT,080H
// union <unnamed> volatile __sfr _A_P0
_A_P0:
        DATA8
        DS 1

        ASEGN SFR_AN:DATA:NOROOT,090H
// union <unnamed> volatile __sfr _A_P1
_A_P1:
        DATA8
        DS 1

        ASEGN SFR_AN:DATA:NOROOT,0a0H
// union <unnamed> volatile __sfr _A_P2
_A_P2:
        DATA8
        DS 1

        ASEGN SFR_AN:DATA:NOROOT,0f3H
// unsigned char volatile __sfr P0SEL
P0SEL:
        DATA8
        DS 1

        ASEGN SFR_AN:DATA:NOROOT,0f5H
// unsigned char volatile __sfr P2SEL
P2SEL:
        DATA8
        DS 1

        ASEGN SFR_AN:DATA:NOROOT,0f7H
// unsigned char volatile __sfr P2INP
P2INP:
        DATA8
        DS 1

        ASEGN SFR_AN:DATA:NOROOT,0fdH
// unsigned char volatile __sfr P0DIR
P0DIR:
        DATA8
        DS 1

        ASEGN SFR_AN:DATA:NOROOT,0ffH
// unsigned char volatile __sfr P2DIR
P2DIR:
        DATA8
        DS 1
//    9 #include "OSAL_Tasks.h"
//   10 #include "SampleApp.h"
//   11 #include "ZDApp.h"
//   12 #include "ZDObject.h"
//   13 #include "ZDProfile.h"
//   14 
//   15 #include "hal_drivers.h"
//   16 #include "hal_key.h"
//   17 #if defined(LCD_SUPPORTED)
//   18 #include "hal_lcd.h"
//   19 #endif
//   20 #include "hal_led.h"
//   21 #include "hal_uart.h"
//   22 
//   23 #ifdef ZDO_COORDINATOR
//   24 //协议文件
//   25 #include "mqtt.h"
//   26 #include "mqttkit.h"
//   27 
//   28 #else
//   29 
//   30 #include "dht11.h"
//   31 
//   32 #endif
//   33 
//   34 /*********************************************************************
//   35  * MACROS
//   36  */
//   37 
//   38 /*********************************************************************
//   39  * CONSTANTS
//   40  */
//   41 
//   42 #if !defined(SAMPLE_APP_PORT)
//   43 #define SAMPLE_APP_PORT 0
//   44 #endif
//   45 
//   46 #if !defined(SAMPLE_APP_RX_MAX)
//   47 #define SAMPLE_APP_RX_MAX 200
//   48 #endif
//   49 
//   50 // This list should be filled with Application specific Cluster IDs.

        RSEG XDATA_ROM_C:CONST:REORDER:NOROOT(0)
        DATA8
//   51 const cId_t SampleApp_ClusterList[SAMPLE_MAX_CLUSTERS] =
SampleApp_ClusterList:
        DATA16
        DW 1
        DW 2
        DW 3
        DW 4
//   52     {
//   53         SAMPLEAPP_P2P_CLUSTERID,
//   54         SAMPLEAPP_PERIODIC_CLUSTERID,
//   55         SERIALAPP_CONNECTREQ_CLUSTER,
//   56         SAMPLEAPP_CTE_CLUSTERID // coor to end
//   57 };
//   58 

        RSEG XDATA_ROM_C:CONST:REORDER:NOROOT(0)
        DATA8
//   59 const SimpleDescriptionFormat_t SampleApp_SimpleDesc =
SampleApp_SimpleDesc:
        DB 11
        DATA16
        DW 3845
        DW 1
        DATA8
        DB 0
        DB 4
        DATA16
        DW SampleApp_ClusterList
        DATA8
        DB 4
        DATA16
        DW SampleApp_ClusterList
//   60     {
//   61         SAMPLEAPP_ENDPOINT,             //  int   Endpoint;
//   62         SAMPLEAPP_PROFID,               //  uint16 AppProfId[2];
//   63         SAMPLEAPP_DEVICEID,             //  uint16 AppDeviceId[2];
//   64         SAMPLEAPP_DEVICE_VERSION,       //  int   AppDevVer:4;
//   65         SAMPLEAPP_FLAGS,                //  int   AppFlags:4;
//   66         SAMPLE_MAX_CLUSTERS,            //  byte  AppNumInClusters;
//   67         (cId_t *)SampleApp_ClusterList, //  byte *pAppInClusterList;
//   68         SAMPLE_MAX_CLUSTERS,            //  byte  AppNumOutClusters;
//   69         (cId_t *)SampleApp_ClusterList  //  byte *pAppOutClusterList;
//   70 };
//   71 

        RSEG XDATA_I:XDATA:NOROOT(0)
//   72 endPointDesc_t SampleApp_epDesc =
SampleApp_epDesc:
        DATA8
        DS 6
        REQUIRE `?<Initializer for SampleApp_epDesc>`
        REQUIRE __INIT_XDATA_I
//   73     {
//   74         SAMPLEAPP_ENDPOINT,
//   75         &SampleApp_TaskID,
//   76         (SimpleDescriptionFormat_t *)&SampleApp_SimpleDesc,
//   77         noLatencyReqs};
//   78 
//   79 /*********************************************************************
//   80  * TYPEDEFS
//   81  */
//   82 
//   83 /*********************************************************************
//   84  * GLOBAL VARIABLES
//   85  */

        RSEG XDATA_Z:XDATA:NOROOT(0)
        DATA8
//   86 devStates_t SampleApp_NwkState;
SampleApp_NwkState:
        DS 1
        REQUIRE __INIT_XDATA_Z

        RSEG XDATA_Z:XDATA:NOROOT(0)
        DATA8
//   87 uint8 SampleApp_TaskID; // Task ID for internal task/event processing.
SampleApp_TaskID:
        DS 1
        REQUIRE __INIT_XDATA_Z
//   88 
//   89 /*********************************************************************
//   90  * EXTERNAL VARIABLES
//   91  */
//   92 
//   93 /*********************************************************************
//   94  * EXTERNAL FUNCTIONS
//   95  */
//   96 
//   97 /*********************************************************************
//   98  * LOCAL VARIABLES
//   99  */
//  100 

        RSEG XDATA_Z:XDATA:NOROOT(0)
        DATA8
//  101 static uint8 SampleApp_MsgID; //消息id
SampleApp_MsgID:
        DS 1
        REQUIRE __INIT_XDATA_Z
//  102 

        RSEG XDATA_Z:XDATA:NOROOT(0)
        DATA8
//  103 afAddrType_t SampleApp_P2P_DstAddr; //播类型
SampleApp_P2P_DstAddr:
        DS 12
        REQUIRE __INIT_XDATA_Z
//  104 

        RSEG XDATA_Z:XDATA:NOROOT(0)
        DATA8
//  105 static uint8 SampleApp_RxBuf[SAMPLE_APP_RX_MAX + 1] = {0};
SampleApp_RxBuf:
        DS 201
        REQUIRE __INIT_XDATA_Z
//  106 static uint16 SampleApp_RxLen = 0;
//  107 

        RSEG XDATA_Z:XDATA:NOROOT(0)
        DATA8
//  108 uint8 onenet_login_ok = 0; //onenet注册成功 0:未注册，1：注册中　2：注册成功
onenet_login_ok:
        DS 1
        REQUIRE __INIT_XDATA_Z

        RSEG XDATA_Z:XDATA:NOROOT(0)
        DATA8
//  109 uint8 end_temp;            //终端的温度
end_temp:
        DS 1
        REQUIRE __INIT_XDATA_Z

        RSEG XDATA_Z:XDATA:NOROOT(0)
        DATA8
//  110 uint8 end_hum;             //终端的湿度
end_hum:
        DS 1
        REQUIRE __INIT_XDATA_Z
//  111 

        RSEG XDATA_Z:XDATA:NOROOT(0)
        DATA8
//  112 uint8 end_light = 0;     //开发板区域亮度     亮0-127灭
end_light:
        DS 1
        REQUIRE __INIT_XDATA_Z

        RSEG XDATA_Z:XDATA:NOROOT(0)
        DATA8
//  113 uint8 end_led2 = 0;      //终端节点开发板led3状态     0灭 1亮
end_led2:
        DS 1
        REQUIRE __INIT_XDATA_Z

        RSEG XDATA_Z:XDATA:NOROOT(0)
        DATA8
//  114 uint8 cor_led3 = 0;      //协调器led3 0灭 1亮
cor_led3:
        DS 1
        REQUIRE __INIT_XDATA_Z

        RSEG XDATA_Z:XDATA:NOROOT(0)
        DATA8
//  115 uint8 end_obstacles = 0; //终端障碍物 0无障碍(输出高电平） 1有障碍(低电平)
end_obstacles:
        DS 1
        REQUIRE __INIT_XDATA_Z

        RSEG XDATA_Z:XDATA:NOROOT(0)
        DATA8
//  116 uint8 end_buzzer = 0;    //buzzer 0不响 1响起
end_buzzer:
        DS 1
        REQUIRE __INIT_XDATA_Z

        RSEG XDATA_Z:XDATA:NOROOT(0)
        DATA8
//  117 uint8 end_smoke = 0;     //烟雾浓度0-127 浓度越高电压越高5V
end_smoke:
        DS 1
        REQUIRE __INIT_XDATA_Z

        RSEG XDATA_Z:XDATA:NOROOT(0)
        DATA8
//  118 uint8 end_man = 0;       //人体传感器，有人输出高电平，没人输出低电平
end_man:
        DS 1
        REQUIRE __INIT_XDATA_Z
//  119 #ifdef ZDO_COORDINATOR
//  120 signed char *g_mqtt_topics_set[5] = {NULL};
//  121 u8 topics_buff[60] = {0};
//  122 u8 topics_post[100] = {0};  //发布的主题
//  123 u8 mqtt_message[200] = {0}; //发布的消息
//  124 #endif
//  125 
//  126 /*********************************************************************
//  127  * LOCAL FUNCTIONS
//  128  */
//  129 
//  130 static void SampleApp_ProcessMSGCmd(afIncomingMSGPacket_t *pkt);
//  131 void SampleApp_CallBack(uint8 port, uint8 event);
//  132 static void SampleApp_Send_P2P_Message(void);
//  133 static void OneNet_publish_topic();
//  134 void debug(uint8 *msg, ...);
//  135 
//  136 /*********************************************************************
//  137  * @fn      SampleApp_Init
//  138  *
//  139  * @brief   This is called during OSAL tasks' initialization.
//  140  *
//  141  * @param   task_id - the Task ID assigned by OSAL.
//  142  *
//  143  * @return  none
//  144  */

        RSEG BANKED_CODE:HUGECODE:NOROOT(0)
//  145 void SampleApp_Init(uint8 task_id)
SampleApp_Init:
          CFI Block cfiBlock0 Using cfiCommon0
          CFI Function SampleApp_Init
        CODE
//  146 {
        FUNCALL SampleApp_Init, MT_UartInit
        LOCFRAME ISTACK, 0, STACK
        LOCFRAME PSTACK, 0, STACK
        LOCFRAME XSTACK, 9, STACK
        LOCFRAME IOVERLAY, 0, STATIC
        LOCFRAME DOVERLAY, 0, STATIC
        ARGFRAME ISTACK, 0, STACK
        ARGFRAME PSTACK, 0, STACK
        ARGFRAME XSTACK, 9, STACK
        ARGFRAME IOVERLAY, 0, STATIC
        ARGFRAME DOVERLAY, 0, STATIC
        FUNCALL SampleApp_Init, MT_UartRegisterTaskID
        LOCFRAME ISTACK, 0, STACK
        LOCFRAME PSTACK, 0, STACK
        LOCFRAME XSTACK, 9, STACK
        LOCFRAME IOVERLAY, 0, STATIC
        LOCFRAME DOVERLAY, 0, STATIC
        ARGFRAME ISTACK, 0, STACK
        ARGFRAME PSTACK, 0, STACK
        ARGFRAME XSTACK, 9, STACK
        ARGFRAME IOVERLAY, 0, STATIC
        ARGFRAME DOVERLAY, 0, STATIC
        FUNCALL SampleApp_Init, afRegister
        LOCFRAME ISTACK, 0, STACK
        LOCFRAME PSTACK, 0, STACK
        LOCFRAME XSTACK, 9, STACK
        LOCFRAME IOVERLAY, 0, STATIC
        LOCFRAME DOVERLAY, 0, STATIC
        ARGFRAME ISTACK, 0, STACK
        ARGFRAME PSTACK, 0, STACK
        ARGFRAME XSTACK, 9, STACK
        ARGFRAME IOVERLAY, 0, STATIC
        ARGFRAME DOVERLAY, 0, STATIC
        FUNCALL SampleApp_Init, RegisterForKeys
        LOCFRAME ISTACK, 0, STACK
        LOCFRAME PSTACK, 0, STACK
        LOCFRAME XSTACK, 9, STACK
        LOCFRAME IOVERLAY, 0, STATIC
        LOCFRAME DOVERLAY, 0, STATIC
        ARGFRAME ISTACK, 0, STACK
        ARGFRAME PSTACK, 0, STACK
        ARGFRAME XSTACK, 9, STACK
        ARGFRAME IOVERLAY, 0, STATIC
        ARGFRAME DOVERLAY, 0, STATIC
        MOV       A,#-0x9
        LCALL     ?BANKED_ENTER_XDATA
          CFI DPH0 load(1, XDATA, add(CFA_XSP16, literal(-1)))
          CFI DPL0 load(1, XDATA, add(CFA_XSP16, literal(-2)))
          CFI ?BRET_EXT load(1, XDATA, add(CFA_XSP16, literal(-3)))
          CFI ?RET_HIGH load(1, XDATA, add(CFA_XSP16, literal(-4)))
          CFI ?RET_LOW load(1, XDATA, add(CFA_XSP16, literal(-5)))
          CFI R7 load(1, XDATA, add(CFA_XSP16, literal(-6)))
          CFI V0 load(1, XDATA, add(CFA_XSP16, literal(-7)))
          CFI VB load(1, XDATA, add(CFA_XSP16, literal(-8)))
          CFI R6 load(1, XDATA, add(CFA_XSP16, literal(-9)))
          CFI CFA_SP SP+0
          CFI CFA_XSP16 add(XSP16, 9)
        ; Saved register size: 9
        ; Auto size: 0
        MOV       A,R1
        MOV       R6,A
//  147   halUARTCfg_t uartConfig;
//  148 
//  149   SampleApp_TaskID = task_id;
        MOV       DPTR,#SampleApp_TaskID
        MOVX      @DPTR,A
//  150   SampleApp_NwkState = DEV_INIT;
        MOV       DPTR,#SampleApp_NwkState
        MOV       A,#0x1
        MOVX      @DPTR,A
//  151 
//  152   MT_UartInit();                  //串口初始化
        ; Setup parameters for call to function MT_UartInit
        LCALL     `??MT_UartInit::?relay`; Banked call to: MT_UartInit
//  153   MT_UartRegisterTaskID(task_id); //注册串口任务
        ; Setup parameters for call to function MT_UartRegisterTaskID
        MOV       A,R6
        MOV       R2,A
        MOV       R3,#0x0
        LCALL     `??MT_UartRegisterTaskID::?relay`; Banked call to: MT_UartRegisterTaskID
//  154   afRegister((endPointDesc_t *)&SampleApp_epDesc);
        ; Setup parameters for call to function afRegister
        MOV       R2,#SampleApp_epDesc & 0xff
        MOV       R3,#(SampleApp_epDesc >> 8) & 0xff
        LCALL     `??afRegister::?relay`; Banked call to: afRegister
//  155   RegisterForKeys(task_id);
        ; Setup parameters for call to function RegisterForKeys
        MOV       A,R6
        MOV       R1,A
        LCALL     `??RegisterForKeys::?relay`; Banked call to: RegisterForKeys
//  156 
//  157 #ifdef ZDO_COORDINATOR
//  158   //协调器初始化
//  159 
//  160   //逢蜂鸣器初始化
//  161   //  P0SEL &= ~0x80;                 //设置P07为普通IO口
//  162   //  P0DIR |= 0x80;                 //P07定义为输出口
//  163   //
//  164   //  //默认蜂鸣器不响
//  165   //  P0_7=1;
//  166 
//  167   //初始化发布的主题
//  168   sprintf(topics_post, "/post"); //"/sys/%s/%s/thing/event/property/post",ProductKey,DeviceName);
//  169 
//  170   //初始化订阅的主题
//  171   sprintf(topics_buff, "/set"); //"/sys/%s/%s/thing/service/property/set",ProductKey,DeviceName);// /sys/a1sYYwS4kmH/mytestdev/thing/service/property/set
//  172   g_mqtt_topics_set[0] = topics_buff;
//  173 
//  174   //协调器广播给终端
//  175   SampleApp_P2P_DstAddr.addrMode = (afAddrMode_t)AddrBroadcast; //广播模式
//  176   SampleApp_P2P_DstAddr.endPoint = SAMPLEAPP_ENDPOINT;
//  177   SampleApp_P2P_DstAddr.addr.shortAddr = 0xFFFF; //发给终端
//  178 
//  179   //目的地址端口号
//  180   endPointDesc_t SampleApp_epDesc;
//  181   SampleApp_epDesc.endPoint = SAMPLEAPP_ENDPOINT;
//  182   SampleApp_epDesc.task_id = &SampleApp_TaskID;
//  183   SampleApp_epDesc.simpleDesc = (SimpleDescriptionFormat_t *)&SampleApp_SimpleDesc;
//  184   SampleApp_epDesc.latencyReq = noLatencyReqs;
//  185   afRegister(&SampleApp_epDesc);
//  186 
//  187 #else
//  188   //终端点播给协调器
//  189   SampleApp_P2P_DstAddr.addrMode = (afAddrMode_t)Addr16Bit; //点播
        MOV       DPTR,#SampleApp_P2P_DstAddr + 8
        MOV       A,#0x2
        MOVX      @DPTR,A
//  190   SampleApp_P2P_DstAddr.endPoint = SAMPLEAPP_ENDPOINT;
        INC       DPTR
        MOV       A,#0xb
        MOVX      @DPTR,A
//  191   SampleApp_P2P_DstAddr.addr.shortAddr = 0x0000; //发给协调器
        MOV       DPTR,#SampleApp_P2P_DstAddr
        CLR       A
        MOVX      @DPTR,A
        INC       DPTR
        MOVX      @DPTR,A
//  192                                                  //初始化相关的模块连接的引脚 P0_4_5 通用io 输出 检查拉低与否
//  193   P0SEL &= 0xCF;                                 //    11001111
        ANL       0xf3,#0xcf
//  194   P0DIR |= 0x00;                                 //0_5输入，无障碍物时被拉高      1输出    00010000
        MOV       0xfd,0xfd
//  195 
//  196   //P2_0
//  197   P2SEL &= ~1<<0; //通用io
        ANL       0xf5,#0xfe
//  198   P2DIR &= ~1<<0; // 2_0 输入
        ANL       0xff,#0xfe
//  199   P2INP &= ~1<<0; //上拉/下拉
        ANL       0xf7,#0xfe
//  200 #endif
//  201 }
        MOV       R7,#0x1
        LJMP      ?BANKED_LEAVE_XDATA
          CFI EndBlock cfiBlock0
        REQUIRE P0SEL
        REQUIRE P0DIR
        REQUIRE P2SEL
        REQUIRE P2DIR
        REQUIRE P2INP
//  202 

        RSEG BANKED_CODE:HUGECODE:NOROOT(0)
//  203 void SampleApp_HandleKeys(uint8 shift, uint8 keys)
SampleApp_HandleKeys:
          CFI Block cfiBlock1 Using cfiCommon0
          CFI Function SampleApp_HandleKeys
        CODE
//  204 {
        ; Saved register size: 0
        ; Auto size: 0
//  205   (void)shift; // Intentionally unreferenced parameter
//  206 
//  207 #if defined(ZDO_COORDINATOR)
//  208 
//  209   if (keys & HAL_KEY_SW_6) //key1
//  210   {
//  211     const signed char *g_mqtt_topics[] = {"mqtt_topic_test1"};
//  212     if (0 == mqtt_subscribe_topic(g_mqtt_topics, 1))
//  213     {
//  214     }
//  215   }
//  216 
//  217   if (keys & HAL_KEY_SW_1) //key2
//  218   {
//  219   }
//  220 
//  221 #endif
//  222 }
        LJMP      ?BRET
          CFI EndBlock cfiBlock1
//  223 
//  224 /*********************************************************************
//  225  * @fn      SampleApp_ProcessEvent
//  226  *
//  227  * @brief   Generic Application Task event processor.
//  228  *
//  229  * @param   task_id  - The OSAL assigned task ID.
//  230  * @param   events   - Bit map of events to process.
//  231  *
//  232  * @return  Event flags of all unprocessed events.
//  233  */

        RSEG BANKED_CODE:HUGECODE:NOROOT(0)
//  234 UINT16 SampleApp_ProcessEvent(uint8 task_id, UINT16 events)
SampleApp_ProcessEvent:
          CFI Block cfiBlock2 Using cfiCommon0
          CFI Function SampleApp_ProcessEvent
        CODE
//  235 {
        FUNCALL SampleApp_ProcessEvent, SampleApp_Send_P2P_Message
        LOCFRAME ISTACK, 0, STACK
        LOCFRAME PSTACK, 0, STACK
        LOCFRAME XSTACK, 12, STACK
        LOCFRAME IOVERLAY, 0, STATIC
        LOCFRAME DOVERLAY, 0, STATIC
        ARGFRAME ISTACK, 0, STACK
        ARGFRAME PSTACK, 0, STACK
        ARGFRAME XSTACK, 12, STACK
        ARGFRAME IOVERLAY, 0, STATIC
        ARGFRAME DOVERLAY, 0, STATIC
        FUNCALL SampleApp_ProcessEvent, osal_rand
        LOCFRAME ISTACK, 0, STACK
        LOCFRAME PSTACK, 0, STACK
        LOCFRAME XSTACK, 12, STACK
        LOCFRAME IOVERLAY, 0, STATIC
        LOCFRAME DOVERLAY, 0, STATIC
        ARGFRAME ISTACK, 0, STACK
        ARGFRAME PSTACK, 0, STACK
        ARGFRAME XSTACK, 12, STACK
        ARGFRAME IOVERLAY, 0, STATIC
        ARGFRAME DOVERLAY, 0, STATIC
        FUNCALL SampleApp_ProcessEvent, osal_start_timerEx
        LOCFRAME ISTACK, 0, STACK
        LOCFRAME PSTACK, 0, STACK
        LOCFRAME XSTACK, 12, STACK
        LOCFRAME IOVERLAY, 0, STATIC
        LOCFRAME DOVERLAY, 0, STATIC
        ARGFRAME ISTACK, 0, STACK
        ARGFRAME PSTACK, 0, STACK
        ARGFRAME XSTACK, 12, STACK
        ARGFRAME IOVERLAY, 0, STATIC
        ARGFRAME DOVERLAY, 0, STATIC
        FUNCALL SampleApp_ProcessEvent, osal_start_timerEx
        LOCFRAME ISTACK, 0, STACK
        LOCFRAME PSTACK, 0, STACK
        LOCFRAME XSTACK, 12, STACK
        LOCFRAME IOVERLAY, 0, STATIC
        LOCFRAME DOVERLAY, 0, STATIC
        ARGFRAME ISTACK, 0, STACK
        ARGFRAME PSTACK, 0, STACK
        ARGFRAME XSTACK, 12, STACK
        ARGFRAME IOVERLAY, 0, STATIC
        ARGFRAME DOVERLAY, 0, STATIC
        FUNCALL SampleApp_ProcessEvent, osal_msg_deallocate
        LOCFRAME ISTACK, 0, STACK
        LOCFRAME PSTACK, 0, STACK
        LOCFRAME XSTACK, 12, STACK
        LOCFRAME IOVERLAY, 0, STATIC
        LOCFRAME DOVERLAY, 0, STATIC
        ARGFRAME ISTACK, 0, STACK
        ARGFRAME PSTACK, 0, STACK
        ARGFRAME XSTACK, 12, STACK
        ARGFRAME IOVERLAY, 0, STATIC
        ARGFRAME DOVERLAY, 0, STATIC
        FUNCALL SampleApp_ProcessEvent, osal_msg_receive
        LOCFRAME ISTACK, 0, STACK
        LOCFRAME PSTACK, 0, STACK
        LOCFRAME XSTACK, 12, STACK
        LOCFRAME IOVERLAY, 0, STATIC
        LOCFRAME DOVERLAY, 0, STATIC
        ARGFRAME ISTACK, 0, STACK
        ARGFRAME PSTACK, 0, STACK
        ARGFRAME XSTACK, 12, STACK
        ARGFRAME IOVERLAY, 0, STATIC
        ARGFRAME DOVERLAY, 0, STATIC
        FUNCALL SampleApp_ProcessEvent, SampleApp_ProcessMSGCmd
        LOCFRAME ISTACK, 0, STACK
        LOCFRAME PSTACK, 0, STACK
        LOCFRAME XSTACK, 12, STACK
        LOCFRAME IOVERLAY, 0, STATIC
        LOCFRAME DOVERLAY, 0, STATIC
        ARGFRAME ISTACK, 0, STACK
        ARGFRAME PSTACK, 0, STACK
        ARGFRAME XSTACK, 12, STACK
        ARGFRAME IOVERLAY, 0, STATIC
        ARGFRAME DOVERLAY, 0, STATIC
        REQUIRE ?V0
        REQUIRE ?V1
        REQUIRE ?V2
        REQUIRE ?V3
        MOV       A,#-0xc
        LCALL     ?BANKED_ENTER_XDATA
          CFI DPH0 load(1, XDATA, add(CFA_XSP16, literal(-1)))
          CFI DPL0 load(1, XDATA, add(CFA_XSP16, literal(-2)))
          CFI ?BRET_EXT load(1, XDATA, add(CFA_XSP16, literal(-3)))
          CFI ?RET_HIGH load(1, XDATA, add(CFA_XSP16, literal(-4)))
          CFI ?RET_LOW load(1, XDATA, add(CFA_XSP16, literal(-5)))
          CFI R7 load(1, XDATA, add(CFA_XSP16, literal(-6)))
          CFI V3 load(1, XDATA, add(CFA_XSP16, literal(-7)))
          CFI V2 load(1, XDATA, add(CFA_XSP16, literal(-8)))
          CFI V1 load(1, XDATA, add(CFA_XSP16, literal(-9)))
          CFI V0 load(1, XDATA, add(CFA_XSP16, literal(-10)))
          CFI VB load(1, XDATA, add(CFA_XSP16, literal(-11)))
          CFI R6 load(1, XDATA, add(CFA_XSP16, literal(-12)))
          CFI CFA_SP SP+0
          CFI CFA_XSP16 add(XSP16, 12)
        ; Saved register size: 12
        ; Auto size: 0
        MOV       A,R2
        MOV       R6,A
        MOV       A,R3
        MOV       R7,A
//  236   (void)task_id; // Intentionally unreferenced parameter
//  237 
//  238   if (events & SYS_EVENT_MSG)
        ANL       A,#0x80
        JNZ       ??SampleApp_ProcessEvent_0
//  239   {
//  240     afIncomingMSGPacket_t *MSGpkt;
//  241 
//  242     while ((MSGpkt = (afIncomingMSGPacket_t *)osal_msg_receive(SampleApp_TaskID)))
//  243     {
//  244       switch (MSGpkt->hdr.event)
//  245       {
//  246       case KEY_CHANGE:
//  247         SampleApp_HandleKeys(((keyChange_t *)MSGpkt)->state, ((keyChange_t *)MSGpkt)->keys);
//  248         break;
//  249 
//  250       case AF_INCOMING_MSG_CMD:
//  251         SampleApp_ProcessMSGCmd(MSGpkt);
//  252         break;
//  253 
//  254       case ZDO_STATE_CHANGE:
//  255         SampleApp_NwkState = (devStates_t)(MSGpkt->hdr.status);
//  256         if ((SampleApp_NwkState == DEV_ZB_COORD) ||
//  257             (SampleApp_NwkState == DEV_ROUTER) || (SampleApp_NwkState == DEV_END_DEVICE))
//  258         {
//  259           //连网成功后，启动一个定时器
//  260           osal_start_timerEx(SampleApp_TaskID,
//  261                              SAMPLEAPP_SEND_PERIODIC_MSG_EVT,
//  262                              SAMPLEAPP_SEND_PERIODIC_MSG_TIMEOUT);
//  263         }
//  264         else
//  265         {
//  266           // Device is no longer in the network
//  267         }
//  268         break;
//  269 
//  270       default:
//  271         break;
//  272       }
//  273 
//  274       osal_msg_deallocate((uint8 *)MSGpkt);
//  275     }
//  276 
//  277     return (events ^ SYS_EVENT_MSG);
//  278   }
//  279 
//  280 #ifdef ZDO_COORDINATOR
//  281 
//  282   //定时器时间到
//  283   if (events & SAMPLEAPP_SEND_PERIODIC_MSG_EVT)
//  284   {
//  285     if (onenet_login_ok == 2)
//  286     {
//  287       //如果接入onenet成功，启动心跳和发送数据定A器
//  288 
//  289       P1_1 = 0; //点亮D2
//  290 
//  291       // 启动心跳定时器，15秒一次
//  292       osal_start_timerEx(SampleApp_TaskID, SAMPLEAPP_ONENET_HEART_BEAT_EVT, 15000);
//  293 
//  294       // 启动发送数据定时器，5秒一次
//  295       osal_start_timerEx(SampleApp_TaskID, SAMPLEAPP_ONENET_SEND_DATA_EVT, 5000);
//  296     }
//  297     else
//  298     {
//  299       onenet_login_ok = 1; //onenet注册成功 0:未注册，1：注册中　2：注册成功
//  300       SampleApp_RxLen = 0;
//  301 
//  302       //如果没有接入onenet成功，重新发起接入
//  303       OneNet_DevLink(); //接入onenet服务器
//  304 
//  305       //LED2闪，表示正在接入onenet
//  306       HalLedBlink(HAL_LED_2, 5, 50, 500);
//  307 
//  308       // 每5秒尝试接入一次
//  309       osal_start_timerEx(SampleApp_TaskID, SAMPLEAPP_SEND_PERIODIC_MSG_EVT, 5000);
//  310     }
//  311 
//  312     // return unprocessed events
//  313     return (events ^ SAMPLEAPP_SEND_PERIODIC_MSG_EVT);
//  314   }
//  315 
//  316   //心跳定时器时间到
//  317   if (events & SAMPLEAPP_ONENET_HEART_BEAT_EVT)
//  318   {
//  319     if (onenet_login_ok == 2)
//  320     {
//  321       //发送心跳
//  322       onenet_mqtt_send_heart();
//  323     }
//  324 
//  325     // 启动心跳定时器，15秒一次
//  326     osal_start_timerEx(SampleApp_TaskID, SAMPLEAPP_ONENET_HEART_BEAT_EVT, 15000);
//  327 
//  328     // return unprocessed events
//  329     return (events ^ SAMPLEAPP_ONENET_HEART_BEAT_EVT);
//  330   }
//  331 
//  332   //发送数据定时器时间到
//  333   if (events & SAMPLEAPP_ONENET_SEND_DATA_EVT)
//  334   {
//  335     if (onenet_login_ok == 2)
//  336     {
//  337       //发送温湿度数据到onenet
//  338       //    OneNet_SendData(end_temp, end_hum);
//  339 
//  340       sprintf(mqtt_message,
//  341               "{\"method\":\"thing.service.property.set\",\"id\":\"630262306\",\"params\":{\ 
//  342             \"temp\":%d,\ 
//  343             \"hum\":%d,\ 
//  344                \"end_light\":%d,\ 
//  345               \"end_led2\":%d,\ 
//  346 			  \"end_obstacles\":%d,\ 
//  347           \"end_smoke\":%d,\ 
//  348           \"end_man\":%d }\ 
//  349         }",
//  350               end_temp,
//  351               end_hum,
//  352               end_light,
//  353               end_led2,
//  354               end_obstacles,
//  355               end_smoke,
//  356               end_man);
//  357 
//  358       //发布主题
//  359       mqtt_publish_topic(topics_post, mqtt_message);
//  360 
//  361       //  OneNet_publish_topic();
//  362     }
//  363 
//  364     // 启动发送数据定时器，5秒一次
//  365     osal_start_timerEx(SampleApp_TaskID, SAMPLEAPP_ONENET_SEND_DATA_EVT, 5000);
//  366 
//  367     // return unprocessed events
//  368     return (events ^ SAMPLEAPP_ONENET_SEND_DATA_EVT);
//  369   }
//  370 
//  371 #else
//  372 
//  373   //定时器时间到
//  374   if (events & SAMPLEAPP_SEND_PERIODIC_MSG_EVT)
        MOV       A,R2
        MOV       C,0xE0 /* A   */.0
        JNC       ??SampleApp_ProcessEvent_1
//  375   {
//  376 
//  377     // DHT11采集
//  378     SampleApp_Send_P2P_Message();
        ; Setup parameters for call to function SampleApp_Send_P2P_Message
        LCALL     `??SampleApp_Send_P2P_Message::?relay`; Banked call to: SampleApp_Send_P2P_Message
//  379 
//  380     // Setup to send message again in normal period (+ a little jitter)
//  381     osal_start_timerEx(SampleApp_TaskID, SAMPLEAPP_SEND_PERIODIC_MSG_EVT,
//  382                        (SAMPLEAPP_SEND_PERIODIC_MSG_TIMEOUT + (osal_rand() & 0x00FF)));
        ; Setup parameters for call to function osal_rand
        LCALL     `??osal_rand::?relay`; Banked call to: osal_rand
        ; Setup parameters for call to function osal_start_timerEx
        MOV       A,R2
        ADD       A,#-0x48
        MOV       R4,A
        CLR       A
        ADDC      A,#0xb
        MOV       R5,A
        MOV       R2,#0x1
        MOV       R3,#0x0
        MOV       DPTR,#SampleApp_TaskID
        MOVX      A,@DPTR
        MOV       R1,A
        LCALL     `??osal_start_timerEx::?relay`; Banked call to: osal_start_timerEx
//  383 
//  384     // return unprocessed events
//  385     return (events ^ SAMPLEAPP_SEND_PERIODIC_MSG_EVT);
        MOV       A,R6
        XRL       A,#0x1
        MOV       R2,A
        MOV       A,R7
        SJMP      ??SampleApp_ProcessEvent_2
//  386   }
??SampleApp_ProcessEvent_3:
        INC       DPTR
        MOVX      A,@DPTR
        MOV       DPTR,#SampleApp_NwkState
        MOVX      @DPTR,A
        XRL       A,#0x9
        JZ        ??SampleApp_ProcessEvent_4
        MOVX      A,@DPTR
        XRL       A,#0x7
        JZ        ??SampleApp_ProcessEvent_4
        MOVX      A,@DPTR
        XRL       A,#0x6
        JNZ       ??SampleApp_ProcessEvent_5
??SampleApp_ProcessEvent_4:
        ; Setup parameters for call to function osal_start_timerEx
        MOV       R4,#-0x48
        MOV       R5,#0xb
        MOV       R2,#0x1
        MOV       R3,#0x0
        MOV       DPTR,#SampleApp_TaskID
        MOVX      A,@DPTR
        MOV       R1,A
        LCALL     `??osal_start_timerEx::?relay`; Banked call to: osal_start_timerEx
??SampleApp_ProcessEvent_5:
        ; Setup parameters for call to function osal_msg_deallocate
        MOV       R2,?V0
        MOV       R3,?V1
        LCALL     `??osal_msg_deallocate::?relay`; Banked call to: osal_msg_deallocate
??SampleApp_ProcessEvent_0:
        ; Setup parameters for call to function osal_msg_receive
        MOV       DPTR,#SampleApp_TaskID
        MOVX      A,@DPTR
        MOV       R1,A
        LCALL     `??osal_msg_receive::?relay`; Banked call to: osal_msg_receive
        MOV       ?V0,R2
        MOV       ?V1,R3
        MOV       A,R2
        ORL       A,R3
        JZ        ??SampleApp_ProcessEvent_6
        MOV       DPL,R2
        MOV       DPH,R3
        MOVX      A,@DPTR
        ADD       A,#-0x1a
        JZ        ??SampleApp_ProcessEvent_7
        ADD       A,#0x49
        JZ        ??SampleApp_ProcessEvent_3
        SJMP      ??SampleApp_ProcessEvent_5
??SampleApp_ProcessEvent_7:
        ; Setup parameters for call to function SampleApp_ProcessMSGCmd
        LCALL     `??SampleApp_ProcessMSGCmd::?relay`; Banked call to: SampleApp_ProcessMSGCmd
        SJMP      ??SampleApp_ProcessEvent_5
??SampleApp_ProcessEvent_6:
        MOV       A,R6
        MOV       R2,A
        MOV       A,R7
        XRL       A,#0x80
??SampleApp_ProcessEvent_2:
        MOV       R3,A
        SJMP      ??SampleApp_ProcessEvent_8
//  387 
//  388 #endif
//  389 
//  390   return (0); // Discard unknown events.
??SampleApp_ProcessEvent_1:
        MOV       R2,#0x0
        MOV       R3,#0x0
??SampleApp_ProcessEvent_8:
        MOV       R7,#0x4
        LJMP      ?BANKED_LEAVE_XDATA
//  391 }
          CFI EndBlock cfiBlock2
//  392 
//  393 /*********************************************************************
//  394  * @fn      SerialApp_ProcessMSGCmd
//  395  *
//  396  * @brief   Data message processor callback. This function processes
//  397  *          any incoming data - probably from other devices. Based
//  398  *          on the cluster ID, perform the intended action.
//  399  *
//  400  * @param   pkt - pointer to the incoming message packet
//  401  *
//  402  * @return  TRUE if the 'pkt' parameter is being used and will be freed later,
//  403  *          FALSE otherwise.
//  404  */

        RSEG BANKED_CODE:HUGECODE:NOROOT(0)
//  405 void SampleApp_ProcessMSGCmd(afIncomingMSGPacket_t *pkt)
SampleApp_ProcessMSGCmd:
          CFI Block cfiBlock3 Using cfiCommon0
          CFI Function SampleApp_ProcessMSGCmd
        CODE
//  406 {
        FUNCALL SampleApp_ProcessMSGCmd, osal_memset
        LOCFRAME ISTACK, 0, STACK
        LOCFRAME PSTACK, 0, STACK
        LOCFRAME XSTACK, 139, STACK
        LOCFRAME IOVERLAY, 0, STATIC
        LOCFRAME DOVERLAY, 0, STATIC
        ARGFRAME ISTACK, 0, STACK
        ARGFRAME PSTACK, 0, STACK
        ARGFRAME XSTACK, 139, STACK
        ARGFRAME IOVERLAY, 0, STATIC
        ARGFRAME DOVERLAY, 0, STATIC
        FUNCALL SampleApp_ProcessMSGCmd, osal_memcpy
        LOCFRAME ISTACK, 0, STACK
        LOCFRAME PSTACK, 0, STACK
        LOCFRAME XSTACK, 142, STACK
        LOCFRAME IOVERLAY, 0, STATIC
        LOCFRAME DOVERLAY, 0, STATIC
        ARGFRAME ISTACK, 0, STACK
        ARGFRAME PSTACK, 0, STACK
        ARGFRAME XSTACK, 142, STACK
        ARGFRAME IOVERLAY, 0, STATIC
        ARGFRAME DOVERLAY, 0, STATIC
        FUNCALL SampleApp_ProcessMSGCmd, osal_strlen
        LOCFRAME ISTACK, 0, STACK
        LOCFRAME PSTACK, 0, STACK
        LOCFRAME XSTACK, 139, STACK
        LOCFRAME IOVERLAY, 0, STATIC
        LOCFRAME DOVERLAY, 0, STATIC
        ARGFRAME ISTACK, 0, STACK
        ARGFRAME PSTACK, 0, STACK
        ARGFRAME XSTACK, 139, STACK
        ARGFRAME IOVERLAY, 0, STATIC
        ARGFRAME DOVERLAY, 0, STATIC
        FUNCALL SampleApp_ProcessMSGCmd, HalUARTWrite
        LOCFRAME ISTACK, 0, STACK
        LOCFRAME PSTACK, 0, STACK
        LOCFRAME XSTACK, 139, STACK
        LOCFRAME IOVERLAY, 0, STATIC
        LOCFRAME DOVERLAY, 0, STATIC
        ARGFRAME ISTACK, 0, STACK
        ARGFRAME PSTACK, 0, STACK
        ARGFRAME XSTACK, 139, STACK
        ARGFRAME IOVERLAY, 0, STATIC
        ARGFRAME DOVERLAY, 0, STATIC
        FUNCALL SampleApp_ProcessMSGCmd, HalUARTWrite
        LOCFRAME ISTACK, 0, STACK
        LOCFRAME PSTACK, 0, STACK
        LOCFRAME XSTACK, 139, STACK
        LOCFRAME IOVERLAY, 0, STATIC
        LOCFRAME DOVERLAY, 0, STATIC
        ARGFRAME ISTACK, 0, STACK
        ARGFRAME PSTACK, 0, STACK
        ARGFRAME XSTACK, 139, STACK
        ARGFRAME IOVERLAY, 0, STATIC
        ARGFRAME DOVERLAY, 0, STATIC
        FUNCALL SampleApp_ProcessMSGCmd, strstr
        LOCFRAME ISTACK, 0, STACK
        LOCFRAME PSTACK, 0, STACK
        LOCFRAME XSTACK, 139, STACK
        LOCFRAME IOVERLAY, 0, STATIC
        LOCFRAME DOVERLAY, 0, STATIC
        ARGFRAME ISTACK, 0, STACK
        ARGFRAME PSTACK, 0, STACK
        ARGFRAME XSTACK, 139, STACK
        ARGFRAME IOVERLAY, 0, STATIC
        ARGFRAME DOVERLAY, 0, STATIC
        FUNCALL SampleApp_ProcessMSGCmd, HalLedSet
        LOCFRAME ISTACK, 0, STACK
        LOCFRAME PSTACK, 0, STACK
        LOCFRAME XSTACK, 139, STACK
        LOCFRAME IOVERLAY, 0, STATIC
        LOCFRAME DOVERLAY, 0, STATIC
        ARGFRAME ISTACK, 0, STACK
        ARGFRAME PSTACK, 0, STACK
        ARGFRAME XSTACK, 139, STACK
        ARGFRAME IOVERLAY, 0, STATIC
        ARGFRAME DOVERLAY, 0, STATIC
        FUNCALL SampleApp_ProcessMSGCmd, strstr
        LOCFRAME ISTACK, 0, STACK
        LOCFRAME PSTACK, 0, STACK
        LOCFRAME XSTACK, 139, STACK
        LOCFRAME IOVERLAY, 0, STATIC
        LOCFRAME DOVERLAY, 0, STATIC
        ARGFRAME ISTACK, 0, STACK
        ARGFRAME PSTACK, 0, STACK
        ARGFRAME XSTACK, 139, STACK
        ARGFRAME IOVERLAY, 0, STATIC
        ARGFRAME DOVERLAY, 0, STATIC
        FUNCALL SampleApp_ProcessMSGCmd, HalLedSet
        LOCFRAME ISTACK, 0, STACK
        LOCFRAME PSTACK, 0, STACK
        LOCFRAME XSTACK, 139, STACK
        LOCFRAME IOVERLAY, 0, STATIC
        LOCFRAME DOVERLAY, 0, STATIC
        ARGFRAME ISTACK, 0, STACK
        ARGFRAME PSTACK, 0, STACK
        ARGFRAME XSTACK, 139, STACK
        ARGFRAME IOVERLAY, 0, STATIC
        ARGFRAME DOVERLAY, 0, STATIC
        FUNCALL SampleApp_ProcessMSGCmd, osal_memset
        LOCFRAME ISTACK, 0, STACK
        LOCFRAME PSTACK, 0, STACK
        LOCFRAME XSTACK, 139, STACK
        LOCFRAME IOVERLAY, 0, STATIC
        LOCFRAME DOVERLAY, 0, STATIC
        ARGFRAME ISTACK, 0, STACK
        ARGFRAME PSTACK, 0, STACK
        ARGFRAME XSTACK, 139, STACK
        ARGFRAME IOVERLAY, 0, STATIC
        ARGFRAME DOVERLAY, 0, STATIC
        REQUIRE ?V0
        REQUIRE ?V1
        REQUIRE ?V2
        MOV       A,#-0xb
        LCALL     ?BANKED_ENTER_XDATA
          CFI DPH0 load(1, XDATA, add(CFA_XSP16, literal(-1)))
          CFI DPL0 load(1, XDATA, add(CFA_XSP16, literal(-2)))
          CFI ?BRET_EXT load(1, XDATA, add(CFA_XSP16, literal(-3)))
          CFI ?RET_HIGH load(1, XDATA, add(CFA_XSP16, literal(-4)))
          CFI ?RET_LOW load(1, XDATA, add(CFA_XSP16, literal(-5)))
          CFI R7 load(1, XDATA, add(CFA_XSP16, literal(-6)))
          CFI V2 load(1, XDATA, add(CFA_XSP16, literal(-7)))
          CFI V1 load(1, XDATA, add(CFA_XSP16, literal(-8)))
          CFI V0 load(1, XDATA, add(CFA_XSP16, literal(-9)))
          CFI VB load(1, XDATA, add(CFA_XSP16, literal(-10)))
          CFI R6 load(1, XDATA, add(CFA_XSP16, literal(-11)))
          CFI CFA_SP SP+0
          CFI CFA_XSP16 add(XSP16, 11)
        ; Saved register size: 11
        ; Auto size: 128
        MOV       A,#-0x80
        LCALL     ?ALLOC_XSTACK8
          CFI CFA_XSP16 add(XSP16, 139)
        MOV       A,R2
        MOV       R6,A
        MOV       A,R3
        MOV       R7,A
//  407   uint8 buff[20] = {0};
//  408 
//  409   switch (pkt->clusterId)
        MOV       DPL,R2
        MOV       DPH,A
        INC       DPTR
        INC       DPTR
        INC       DPTR
        INC       DPTR
        MOVX      A,@DPTR
        XRL       A,#0x4
        JNZ       ??SampleApp_ProcessMSGCmd_0
        INC       DPTR
        MOVX      A,@DPTR
??SampleApp_ProcessMSGCmd_0:
        JZ        $+5
        LJMP      ??SampleApp_ProcessMSGCmd_1 & 0xFFFF
//  410   {
//  411   // 接收终端上传的温度数据
//  412   case SAMPLEAPP_P2P_CLUSTERID:
//  413 #ifdef ZDO_COORDINATOR
//  414   {
//  415     end_temp = pkt->cmd.Data[0]; //终端温度
//  416     end_hum = pkt->cmd.Data[1];  //终端湿度
//  417 
//  418     end_light = pkt->cmd.Data[2];     //终端亮度
//  419     end_led2 = pkt->cmd.Data[3];      //led2
//  420     end_obstacles = pkt->cmd.Data[4]; //障碍物
//  421     end_smoke = pkt->cmd.Data[5];     //烟雾
//  422     end_man = pkt->cmd.Data[6];       //人体
//  423     //cor_led3 = !cor_led3;
//  424     sprintf(buff, "T:%d", end_temp);
//  425     HalLcdWriteString(buff, HAL_LCD_LINE_3); //LCD显示
//  426 
//  427     sprintf(buff, "H:%d", end_hum);
//  428     HalLcdWriteString(buff, HAL_LCD_LINE_4); //LCD显示
//  429   }
//  430 #endif
//  431   break;
//  432 
//  433   case SAMPLEAPP_PERIODIC_CLUSTERID:
//  434 
//  435     break;
//  436   case SAMPLEAPP_CTE_CLUSTERID: //coor to end 终端进行命令解析和处理
//  437     char buf[128];
//  438     osal_memset(buf, '\0', 128);
        ; Setup parameters for call to function osal_memset
        MOV       R4,#-0x80
        MOV       R5,#0x0
        MOV       R1,#0x0
        MOV       R2,?XSP + 0
        MOV       R3,?XSP + 1
        LCALL     `??osal_memset::?relay`; Banked call to: osal_memset
//  439     osal_memcpy(buf, pkt->cmd.Data, pkt->cmd.DataLength); //复制到缓冲区
        ; Setup parameters for call to function osal_memcpy
        MOV       A,R6
        ADD       A,#0x22
        MOV       DPL,A
        CLR       A
        ADDC      A,R7
        MOV       DPH,A
        MOVX      A,@DPTR
        MOV       ?V0,A
        INC       DPTR
        MOVX      A,@DPTR
        MOV       ?V1,A
        MOV       ?V2,#0x0
        MOV       R0,#?V0
        LCALL     ?PUSH_XSTACK_I_THREE
          CFI CFA_XSP16 add(XSP16, 142)
        MOV       A,R6
        ADD       A,#0x20
        MOV       DPL,A
        CLR       A
        ADDC      A,R7
        MOV       DPH,A
        MOVX      A,@DPTR
        MOV       R4,A
        INC       DPTR
        MOVX      A,@DPTR
        MOV       R5,A
        MOV       A,#0x3
        LCALL     ?XSTACK_DISP101_8
        LCALL     `??osal_memcpy::?relay`; Banked call to: osal_memcpy
        MOV       A,#0x3
        LCALL     ?DEALLOC_XSTACK8
          CFI CFA_XSP16 add(XSP16, 139)
//  440     HalUARTWrite(0, buf, osal_strlen(buf));               //串口输出提示信息
        ; Setup parameters for call to function osal_strlen
        MOV       R2,?XSP + 0
        MOV       R3,?XSP + 1
        LCALL     ?Subroutine1 & 0xFFFF
??CrossCallReturnLabel_2:
        ; Setup parameters for call to function HalUARTWrite
        MOV       R2,?XSP + 0
        MOV       R3,?XSP + 1
        LCALL     ?Subroutine0 & 0xFFFF
//  441     HalUARTWrite(0, "\r\n", 2);                           //串口输出提示信息
//  442 
//  443     if (strstr(buf, "D2:0"))
??CrossCallReturnLabel_0:
        ; Setup parameters for call to function strstr
        MOV       R4,#`?<Constant "D2:0">` & 0xff
        MOV       R5,#(`?<Constant "D2:0">` >> 8) & 0xff
        MOV       R2,?XSP + 0
        MOV       R3,?XSP + 1
        LCALL     `??strstr::?relay`; Banked call to: strstr
        MOV       A,R2
        ORL       A,R3
        JZ        ??SampleApp_ProcessMSGCmd_2
//  444       HalLedSet(HAL_LED_2, HAL_LED_MODE_OFF); //LED2
        ; Setup parameters for call to function HalLedSet
        MOV       R2,#0x0
        SJMP      ??SampleApp_ProcessMSGCmd_3
//  445     else if (strstr(buf, "D2:1"))
??SampleApp_ProcessMSGCmd_2:
        ; Setup parameters for call to function strstr
        MOV       R4,#`?<Constant "D2:1">` & 0xff
        MOV       R5,#(`?<Constant "D2:1">` >> 8) & 0xff
        MOV       R2,?XSP + 0
        MOV       R3,?XSP + 1
        LCALL     `??strstr::?relay`; Banked call to: strstr
        MOV       A,R2
        ORL       A,R3
        JZ        ??SampleApp_ProcessMSGCmd_4
//  446       HalLedSet(HAL_LED_2, HAL_LED_MODE_ON); //LED2
        ; Setup parameters for call to function HalLedSet
        MOV       R2,#0x1
??SampleApp_ProcessMSGCmd_3:
        MOV       R1,#0x2
        LCALL     `??HalLedSet::?relay`; Banked call to: HalLedSet
//  447 
//  448     // 蜂鸣器改为烟雾检测 P0_4
//  449     // if (strstr(buf, "B:1"))
//  450     //   P0_4 = 0;
//  451     // else if (strstr(buf, "B:0"))
//  452     //   P0_4 = 1;
//  453 
//  454     osal_memset(buf, '\0', 128);
??SampleApp_ProcessMSGCmd_4:
        ; Setup parameters for call to function osal_memset
        MOV       R4,#-0x80
        MOV       R5,#0x0
        MOV       R1,#0x0
        MOV       R2,?XSP + 0
        MOV       R3,?XSP + 1
        LCALL     `??osal_memset::?relay`; Banked call to: osal_memset
//  455     break;
//  456   default:
//  457     break;
//  458   }
//  459 }
??SampleApp_ProcessMSGCmd_1:
        MOV       A,#-0x80
        LCALL     ?DEALLOC_XSTACK8
          CFI CFA_XSP16 add(XSP16, 11)
        MOV       R7,#0x3
        LJMP      ?BANKED_LEAVE_XDATA
          CFI EndBlock cfiBlock3
//  460 
//  461 #ifdef ZDO_COORDINATOR
//  462 
//  463 //发送MQTT数据
//  464 void ESP8266_SendData(char *buff, int len)
//  465 {
//  466   if (len == 0)
//  467     return;
//  468 
//  469   HalUARTWrite(0, buff, len);
//  470 }
//  471 
//  472 //接收到下发命令，或者接收到订阅的消息
//  473 //topic:收到的主题
//  474 //cmd::主题对应的内容
//  475 void mqtt_rx(uint8 *topic, uint8 *cmd)
//  476 {
//  477   char *ptr_led3_on = NULL;
//  478   char *ptr_led3_off = NULL;
//  479 
//  480   char *this_topic = NULL;
//  481   //控制命令格式
//  482   char uartbuf[] = {'D', '2', ':', ' ',
//  483                     'B', ':', ' ', '\0'};
//  484   //协调器收到数据后
//  485   //根据设计决定数据如何处理
//  486 
//  487   if (topic == NULL || cmd == NULL)
//  488     return;
//  489 
//  490   //我们只关心内容，即只关心CMD，不处理主题
//  491 
//  492   ptr_led3_on = strstr((char *)cmd, "\"led\":1");
//  493   ptr_led3_off = strstr((char *)cmd, "\"led\":0");
//  494 
//  495   if (ptr_led3_on != NULL)
//  496   {
//  497     // coor led3
//  498     //P1_4 = 0; //D3亮
//  499     //cor_led3 = 1;
//  500     uartbuf[3] = '1';
//  501     uartbuf[6] = '1';
//  502   }
//  503   else if (ptr_led3_off != NULL)
//  504   {
//  505     // coor led3
//  506     //P1_4 = 1; //D3灭
//  507     //cor_led3 = 0;
//  508     uartbuf[3] = '0';
//  509     uartbuf[6] = '0';
//  510   }
//  511   HalLedBlink(HAL_LED_1, 5, 50, 500);
//  512 
//  513   AF_DataRequest(&SampleApp_P2P_DstAddr,  //&Endevice_Add,  //目的节点网络地址和发送格式
//  514                  &SampleApp_epDesc,       //目的地址端口号
//  515                  SAMPLEAPP_CTE_CLUSTERID, //命令号，用于区别命令 coor to end
//  516                  7,                       //osal_strlen(uartbuf),    //发送数据的长度
//  517                  uartbuf,                 //发送数据的缓冲区
//  518                  &SampleApp_MsgID,        //发送序号,发完+1
//  519                  AF_DISCV_ROUTE,
//  520                  AF_DEFAULT_RADIUS);
//  521 }
//  522 
//  523 void OneNet_publish_topic()
//  524 {
//  525   uint8 buff[20] = {0};
//  526 
//  527   sprintf(buff, "t:%d,h:%d", end_temp, end_hum);
//  528 
//  529   /*  发布主题为"hello_topic_public"，消息为温度和湿度 */
//  530   if (0 == mqtt_publish_topic("hello_topic_public", buff))
//  531   {
//  532     ;
//  533   }
//  534 }
//  535 
//  536 /*********************************************************************
//  537  * @fn      SampleApp_CallBack
//  538  *
//  539  * @brief   Send data OTA.
//  540  *
//  541  * @param   port - UART port.
//  542  * @param   event - the UART port event flag.
//  543  *
//  544  * @return  none
//  545  */
//  546 uint32 lastReadMs = 0;
//  547 void SampleApp_CallBack(uint8 port, uint8 event)
//  548 {
//  549   (void)port;
//  550 
//  551   if (0 == onenet_login_ok)
//  552   {
//  553     HalUARTRead(SAMPLE_APP_PORT, SampleApp_RxBuf, SAMPLE_APP_RX_MAX);
//  554     SampleApp_RxLen = 0;
//  555     osal_memset(SampleApp_RxBuf, 0, SAMPLE_APP_RX_MAX);
//  556   }
//  557   else if (1 == onenet_login_ok) //onenet注册成功 0:未注册，1：注册中　2：注册成功
//  558   {
//  559     //一个一个字节读
//  560     SampleApp_RxLen += HalUARTRead(SAMPLE_APP_PORT, SampleApp_RxBuf + SampleApp_RxLen, 4);
//  561 
//  562     //判断是否是注册成功
//  563     if (SampleApp_RxLen >= 4)
//  564     {
//  565       //        debug("rx len=%d(%x,%x,%x,%x)\r\n", SampleApp_RxLen,SampleApp_RxBuf[0],SampleApp_RxBuf[1],SampleApp_RxBuf[2],SampleApp_RxBuf[3]);
//  566 
//  567       //等待接入响应
//  568       if (MQTT_UnPacketRecv(SampleApp_RxBuf) == MQTT_PKT_CONNACK)
//  569       {
//  570         if (0 == MQTT_UnPacketConnectAck(SampleApp_RxBuf))
//  571         {
//  572           onenet_login_ok = 2; //注册成功
//  573           SampleApp_RxLen = 0;
//  574 
//  575           //请求订阅主题
//  576           if (mqtt_subscribe_topic(g_mqtt_topics_set, 1) == 0)
//  577           {
//  578             //订阅成功P1_4  D3变为亮
//  579             P1_4 = 0;
//  580           }
//  581         }
//  582       }
//  583     }
//  584 
//  585     //数组满，清0
//  586     if (SampleApp_RxLen >= SAMPLE_APP_RX_MAX)
//  587     {
//  588       SampleApp_RxLen = 0;
//  589     }
//  590   }
//  591   else if (2 == onenet_login_ok)
//  592   {
//  593     //如果是注册成功，读服务器的控制命令
//  594 
//  595     uint32 curMs = osal_GetSystemClock();
//  596 
//  597     if ((curMs - lastReadMs) < 1000)
//  598       return;
//  599 
//  600     lastReadMs = curMs;
//  601     SampleApp_RxLen = 0;
//  602     osal_memset(SampleApp_RxBuf, 0, SAMPLE_APP_RX_MAX + 1);
//  603     SampleApp_RxLen = HalUARTRead(SAMPLE_APP_PORT, SampleApp_RxBuf, SAMPLE_APP_RX_MAX); //读长200的数据
//  604 
//  605     if (SampleApp_RxLen > 0)
//  606     {
//  607       debug("rx len=%d.\r\n", SampleApp_RxLen);
//  608       //接收消息
//  609       OneNet_RevPro(SampleApp_RxBuf);
//  610       //debug LED3
//  611       //        HalLedBlink (HAL_LED_3, 5, 50, 500); //HalLedSet
//  612       SampleApp_RxLen = 0;
//  613       osal_memset(SampleApp_RxBuf, 0, SAMPLE_APP_RX_MAX + 1);
//  614     }
//  615   }
//  616 }
//  617 
//  618 #else
//  619 #include "hal_ADC.h"
//  620 /*********************************************************************
//  621  * @fn      SampleApp_Send_P2P_Message
//  622  *
//  623  * @brief   point to point.
//  624  *
//  625  * @param   none
//  626  *
//  627  * @return  none
//  628  */

        RSEG BANKED_CODE:HUGECODE:NOROOT(0)
//  629 void SampleApp_Send_P2P_Message(void)
SampleApp_Send_P2P_Message:
          CFI Block cfiBlock4 Using cfiCommon0
          CFI Function SampleApp_Send_P2P_Message
        CODE
//  630 {
        FUNCALL SampleApp_Send_P2P_Message, osal_memset
        LOCFRAME ISTACK, 0, STACK
        LOCFRAME PSTACK, 0, STACK
        LOCFRAME XSTACK, 40, STACK
        LOCFRAME IOVERLAY, 0, STATIC
        LOCFRAME DOVERLAY, 0, STATIC
        ARGFRAME ISTACK, 0, STACK
        ARGFRAME PSTACK, 0, STACK
        ARGFRAME XSTACK, 40, STACK
        ARGFRAME IOVERLAY, 0, STATIC
        ARGFRAME DOVERLAY, 0, STATIC
        FUNCALL SampleApp_Send_P2P_Message, osal_memset
        LOCFRAME ISTACK, 0, STACK
        LOCFRAME PSTACK, 0, STACK
        LOCFRAME XSTACK, 40, STACK
        LOCFRAME IOVERLAY, 0, STATIC
        LOCFRAME DOVERLAY, 0, STATIC
        ARGFRAME ISTACK, 0, STACK
        ARGFRAME PSTACK, 0, STACK
        ARGFRAME XSTACK, 40, STACK
        ARGFRAME IOVERLAY, 0, STATIC
        ARGFRAME DOVERLAY, 0, STATIC
        FUNCALL SampleApp_Send_P2P_Message, DHT11
        LOCFRAME ISTACK, 0, STACK
        LOCFRAME PSTACK, 0, STACK
        LOCFRAME XSTACK, 40, STACK
        LOCFRAME IOVERLAY, 0, STATIC
        LOCFRAME DOVERLAY, 0, STATIC
        ARGFRAME ISTACK, 0, STACK
        ARGFRAME PSTACK, 0, STACK
        ARGFRAME XSTACK, 40, STACK
        ARGFRAME IOVERLAY, 0, STATIC
        ARGFRAME DOVERLAY, 0, STATIC
        FUNCALL SampleApp_Send_P2P_Message, HalAdcInit
        LOCFRAME ISTACK, 0, STACK
        LOCFRAME PSTACK, 0, STACK
        LOCFRAME XSTACK, 40, STACK
        LOCFRAME IOVERLAY, 0, STATIC
        LOCFRAME DOVERLAY, 0, STATIC
        ARGFRAME ISTACK, 0, STACK
        ARGFRAME PSTACK, 0, STACK
        ARGFRAME XSTACK, 40, STACK
        ARGFRAME IOVERLAY, 0, STATIC
        ARGFRAME DOVERLAY, 0, STATIC
        FUNCALL SampleApp_Send_P2P_Message, HalAdcRead
        LOCFRAME ISTACK, 0, STACK
        LOCFRAME PSTACK, 0, STACK
        LOCFRAME XSTACK, 40, STACK
        LOCFRAME IOVERLAY, 0, STATIC
        LOCFRAME DOVERLAY, 0, STATIC
        ARGFRAME ISTACK, 0, STACK
        ARGFRAME PSTACK, 0, STACK
        ARGFRAME XSTACK, 40, STACK
        ARGFRAME IOVERLAY, 0, STATIC
        ARGFRAME DOVERLAY, 0, STATIC
        FUNCALL SampleApp_Send_P2P_Message, HalAdcRead
        LOCFRAME ISTACK, 0, STACK
        LOCFRAME PSTACK, 0, STACK
        LOCFRAME XSTACK, 40, STACK
        LOCFRAME IOVERLAY, 0, STATIC
        LOCFRAME DOVERLAY, 0, STATIC
        ARGFRAME ISTACK, 0, STACK
        ARGFRAME PSTACK, 0, STACK
        ARGFRAME XSTACK, 40, STACK
        ARGFRAME IOVERLAY, 0, STATIC
        ARGFRAME DOVERLAY, 0, STATIC
        FUNCALL SampleApp_Send_P2P_Message, sprintf
        LOCFRAME ISTACK, 0, STACK
        LOCFRAME PSTACK, 0, STACK
        LOCFRAME XSTACK, 44, STACK
        LOCFRAME IOVERLAY, 0, STATIC
        LOCFRAME DOVERLAY, 0, STATIC
        ARGFRAME ISTACK, 0, STACK
        ARGFRAME PSTACK, 0, STACK
        ARGFRAME XSTACK, 44, STACK
        ARGFRAME IOVERLAY, 0, STATIC
        ARGFRAME DOVERLAY, 0, STATIC
        FUNCALL SampleApp_Send_P2P_Message, HalLcdWriteString
        LOCFRAME ISTACK, 0, STACK
        LOCFRAME PSTACK, 0, STACK
        LOCFRAME XSTACK, 40, STACK
        LOCFRAME IOVERLAY, 0, STATIC
        LOCFRAME DOVERLAY, 0, STATIC
        ARGFRAME ISTACK, 0, STACK
        ARGFRAME PSTACK, 0, STACK
        ARGFRAME XSTACK, 40, STACK
        ARGFRAME IOVERLAY, 0, STATIC
        ARGFRAME DOVERLAY, 0, STATIC
        FUNCALL SampleApp_Send_P2P_Message, osal_strlen
        LOCFRAME ISTACK, 0, STACK
        LOCFRAME PSTACK, 0, STACK
        LOCFRAME XSTACK, 40, STACK
        LOCFRAME IOVERLAY, 0, STATIC
        LOCFRAME DOVERLAY, 0, STATIC
        ARGFRAME ISTACK, 0, STACK
        ARGFRAME PSTACK, 0, STACK
        ARGFRAME XSTACK, 40, STACK
        ARGFRAME IOVERLAY, 0, STATIC
        ARGFRAME DOVERLAY, 0, STATIC
        FUNCALL SampleApp_Send_P2P_Message, HalUARTWrite
        LOCFRAME ISTACK, 0, STACK
        LOCFRAME PSTACK, 0, STACK
        LOCFRAME XSTACK, 40, STACK
        LOCFRAME IOVERLAY, 0, STATIC
        LOCFRAME DOVERLAY, 0, STATIC
        ARGFRAME ISTACK, 0, STACK
        ARGFRAME PSTACK, 0, STACK
        ARGFRAME XSTACK, 40, STACK
        ARGFRAME IOVERLAY, 0, STATIC
        ARGFRAME DOVERLAY, 0, STATIC
        FUNCALL SampleApp_Send_P2P_Message, HalUARTWrite
        LOCFRAME ISTACK, 0, STACK
        LOCFRAME PSTACK, 0, STACK
        LOCFRAME XSTACK, 40, STACK
        LOCFRAME IOVERLAY, 0, STATIC
        LOCFRAME DOVERLAY, 0, STATIC
        ARGFRAME ISTACK, 0, STACK
        ARGFRAME PSTACK, 0, STACK
        ARGFRAME XSTACK, 40, STACK
        ARGFRAME IOVERLAY, 0, STATIC
        ARGFRAME DOVERLAY, 0, STATIC
        FUNCALL SampleApp_Send_P2P_Message, AF_DataRequest
        LOCFRAME ISTACK, 0, STACK
        LOCFRAME PSTACK, 0, STACK
        LOCFRAME XSTACK, 49, STACK
        LOCFRAME IOVERLAY, 0, STATIC
        LOCFRAME DOVERLAY, 0, STATIC
        ARGFRAME ISTACK, 0, STACK
        ARGFRAME PSTACK, 0, STACK
        ARGFRAME XSTACK, 49, STACK
        ARGFRAME IOVERLAY, 0, STATIC
        ARGFRAME DOVERLAY, 0, STATIC
        REQUIRE ?V0
        REQUIRE ?V1
        MOV       A,#-0xa
        LCALL     ?BANKED_ENTER_XDATA
          CFI DPH0 load(1, XDATA, add(CFA_XSP16, literal(-1)))
          CFI DPL0 load(1, XDATA, add(CFA_XSP16, literal(-2)))
          CFI ?BRET_EXT load(1, XDATA, add(CFA_XSP16, literal(-3)))
          CFI ?RET_HIGH load(1, XDATA, add(CFA_XSP16, literal(-4)))
          CFI ?RET_LOW load(1, XDATA, add(CFA_XSP16, literal(-5)))
          CFI R7 load(1, XDATA, add(CFA_XSP16, literal(-6)))
          CFI V1 load(1, XDATA, add(CFA_XSP16, literal(-7)))
          CFI V0 load(1, XDATA, add(CFA_XSP16, literal(-8)))
          CFI VB load(1, XDATA, add(CFA_XSP16, literal(-9)))
          CFI R6 load(1, XDATA, add(CFA_XSP16, literal(-10)))
          CFI CFA_SP SP+0
          CFI CFA_XSP16 add(XSP16, 10)
        ; Saved register size: 10
        ; Auto size: 30
        MOV       A,#-0x1e
        LCALL     ?ALLOC_XSTACK8
          CFI CFA_XSP16 add(XSP16, 40)
//  631   uint8 str[10] = {0};
        MOV       DPTR,#`?<Constant {0, 0, 0, 0, 0, 0, 0, 0, 0, 0}>`
        MOV       R4,?XSP + 0
        MOV       R5,?XSP + 1
        MOV       A,#0xa
        LCALL     ?MOVE_LONG8_XDATA_XDATA
//  632   uint8 strTemp[20] = {0};
        MOV       DPTR,#`?<Constant {0, 0, 0, 0, 0, 0, 0, 0, 0, 0, 0, 0`
        MOV       A,#0xa
        LCALL     ?XSTACK_DISP102_8
        MOV       A,#0x14
        LCALL     ?MOVE_LONG8_XDATA_XDATA
//  633   uint8 end_obstacles_temp = 0;
//  634   uint8 end_buzzer_temp = 0;
//  635   uint8 end_man_temp = 0;
//  636   int len = 0;
//  637 
//  638   osal_memset(str, '\0', 10);
        ; Setup parameters for call to function osal_memset
        MOV       R4,#0xa
        MOV       R5,A
        MOV       R1,A
        MOV       R2,?XSP + 0
        MOV       R3,?XSP + 1
        LCALL     `??osal_memset::?relay`; Banked call to: osal_memset
//  639   osal_memset(strTemp, '\0', 20);
        ; Setup parameters for call to function osal_memset
        MOV       R4,#0x14
        MOV       R5,#0x0
        MOV       R1,#0x0
        MOV       A,#0xa
        LCALL     ?XSTACK_DISP101_8
        LCALL     `??osal_memset::?relay`; Banked call to: osal_memset
//  640 
//  641   DHT11(); //获取温湿度
        ; Setup parameters for call to function DHT11
        LCALL     `??DHT11::?relay`; Banked call to: DHT11
//  642 
//  643   HalAdcInit();
        ; Setup parameters for call to function HalAdcInit
        LCALL     `??HalAdcInit::?relay`; Banked call to: HalAdcInit
//  644   uint8 end_light_temp = HalAdcRead(HAL_ADC_CHANNEL_6, HAL_ADC_RESOLUTION_8); //P0_6
        ; Setup parameters for call to function HalAdcRead
        MOV       R2,#0x1
        MOV       R1,#0x6
        LCALL     `??HalAdcRead::?relay`; Banked call to: HalAdcRead
        MOV       ?V0,R2
        MOV       R6,?V0
//  645   uint8 end_smoke_temp = HalAdcRead(HAL_ADC_CHANNEL_4, HAL_ADC_RESOLUTION_8); //P0_4
        ; Setup parameters for call to function HalAdcRead
        MOV       R2,#0x1
        MOV       R1,#0x4
        LCALL     `??HalAdcRead::?relay`; Banked call to: HalAdcRead
        MOV       ?V0,R2
//  646   uint8 end_led2_temp = 0;
//  647 
//  648   if (P1_1 == 1)
        MOV       R4,0x90+0x0
//  649     end_led2_temp = 0;
//  650   else
//  651     end_led2_temp = 1;
//  652 
//  653   //障碍物检查
//  654   if (P0_5 == 1) //拉高
        MOV       R3,0x80+0x0
//  655   {
//  656     end_obstacles_temp = 0;
//  657   }
//  658   else
//  659     end_obstacles_temp = 1;
//  660   if (P2_0 == 0) //
        MOV       R2,0xa0+0x0
//  661     end_man_temp = 0;
//  662   else
//  663     end_man_temp = 1;
//  664   str[0] = wendu; //温度
        MOV       DPTR,#wendu
        MOVX      A,@DPTR
        MOV       DPL,?XSP + 0
        MOV       DPH,?XSP + 1
        MOVX      @DPTR,A
//  665   str[1] = shidu; //湿度
        MOV       DPTR,#shidu
        MOVX      A,@DPTR
        PUSH      A
          CFI CFA_SP SP+-1
        MOV       A,#0x1
        LCALL     ?XSTACK_DISP0_8
        POP       A
          CFI CFA_SP SP+0
        MOVX      @DPTR,A
//  666 
//  667   str[2] = end_light_temp;     //亮度
        MOV       A,#0x2
        LCALL     ?XSTACK_DISP0_8
        MOV       A,R6
        MOVX      @DPTR,A
//  668   str[3] = end_led2_temp;      //led3状态
        MOV       A,R4
        MOV       C,0xE0 /* A   */.1
        JC        ??SampleApp_Send_P2P_Message_0
        SETB      B.0
        SJMP      ??SampleApp_Send_P2P_Message_1
??SampleApp_Send_P2P_Message_0:
        CLR       B.0
??SampleApp_Send_P2P_Message_1:
        MOV       C,B.0
        CLR       A
        RLC       A
        PUSH      A
          CFI CFA_SP SP+-1
        MOV       A,#0x3
        LCALL     ?XSTACK_DISP0_8
        POP       A
          CFI CFA_SP SP+0
        MOVX      @DPTR,A
//  669   str[4] = end_obstacles_temp; //障碍物情况
        MOV       A,R3
        MOV       C,0xE0 /* A   */.5
        JC        ??SampleApp_Send_P2P_Message_2
        SETB      B.0
        SJMP      ??SampleApp_Send_P2P_Message_3
??SampleApp_Send_P2P_Message_2:
        CLR       B.0
??SampleApp_Send_P2P_Message_3:
        MOV       C,B.0
        CLR       A
        RLC       A
        PUSH      A
          CFI CFA_SP SP+-1
        MOV       A,#0x4
        LCALL     ?XSTACK_DISP0_8
        POP       A
          CFI CFA_SP SP+0
        MOVX      @DPTR,A
//  670   str[5] = end_smoke_temp;     //烟雾数值
        MOV       A,#0x5
        LCALL     ?XSTACK_DISP0_8
        MOV       A,?V0
        MOVX      @DPTR,A
//  671   str[6] = end_man_temp;       //人体
        MOV       A,R2
        MOV       C,0xE0 /* A   */.0
        CLR       A
        RLC       A
        PUSH      A
          CFI CFA_SP SP+-1
        MOV       A,#0x6
        LCALL     ?XSTACK_DISP0_8
        POP       A
          CFI CFA_SP SP+0
        MOVX      @DPTR,A
//  672   //str[5] = end_buzzer_temp;    //buzzer情况
//  673   len = 6;
//  674   sprintf(strTemp, "T&H:%d %d", str[0], str[1]);
        ; Setup parameters for call to function sprintf
        MOV       A,#0x1
        LCALL     ?XSTACK_DISP0_8
        MOVX      A,@DPTR
        MOV       ?V0,A
        MOV       ?V1,#0x0
        MOV       R0,#?V0
        LCALL     ?PUSH_XSTACK_I_TWO
          CFI CFA_XSP16 add(XSP16, 42)
        MOV       A,#0x2
        LCALL     ?XSTACK_DISP0_8
        MOVX      A,@DPTR
        MOV       ?V0,A
        MOV       R0,#?V0
        LCALL     ?PUSH_XSTACK_I_TWO
          CFI CFA_XSP16 add(XSP16, 44)
        MOV       R4,#`?<Constant "T&H:%d %d">` & 0xff
        MOV       R5,#(`?<Constant "T&H:%d %d">` >> 8) & 0xff
        MOV       A,#0xe
        LCALL     ?XSTACK_DISP101_8
        LCALL     `??sprintf::?relay`; Banked call to: sprintf
        MOV       A,#0x4
        LCALL     ?DEALLOC_XSTACK8
          CFI CFA_XSP16 add(XSP16, 40)
//  675   HalLcdWriteString(strTemp, HAL_LCD_LINE_3); //LCD显示
        ; Setup parameters for call to function HalLcdWriteString
        MOV       R1,#0x3
        MOV       A,#0xa
        LCALL     ?XSTACK_DISP101_8
        LCALL     `??HalLcdWriteString::?relay`; Banked call to: HalLcdWriteString
//  676 
//  677   HalUARTWrite(0, strTemp, osal_strlen(strTemp)); //串口输出提示信息
        ; Setup parameters for call to function osal_strlen
        MOV       A,#0xa
        LCALL     ?XSTACK_DISP101_8
        LCALL     ?Subroutine1 & 0xFFFF
??CrossCallReturnLabel_3:
        ; Setup parameters for call to function HalUARTWrite
        MOV       A,#0xa
        LCALL     ?XSTACK_DISP101_8
        LCALL     ?Subroutine0 & 0xFFFF
//  678   HalUARTWrite(0, "\r\n", 2);
//  679 
//  680   //无线发送到协调器
//  681   if (AF_DataRequest(&SampleApp_P2P_DstAddr, &SampleApp_epDesc,
//  682                      SAMPLEAPP_P2P_CLUSTERID,
//  683                      7,//osal_strlen(str), //这个有bugosal得出33 这个的长度得指定，不然bug不定期出现
//  684                      str,
//  685                      &SampleApp_MsgID,
//  686                      AF_DISCV_ROUTE,
//  687                      AF_DEFAULT_RADIUS) == afStatus_SUCCESS)
??CrossCallReturnLabel_1:
        ; Setup parameters for call to function AF_DataRequest
        MOV       ?V0,#0x1e
        MOV       R0,#?V0
        LCALL     ?PUSH_XSTACK_I_ONE
          CFI CFA_XSP16 add(XSP16, 41)
        MOV       ?V0,#SampleApp_MsgID & 0xff
        MOV       ?V1,#(SampleApp_MsgID >> 8) & 0xff
        MOV       R0,#?V0
        LCALL     ?PUSH_XSTACK_I_TWO
          CFI CFA_XSP16 add(XSP16, 43)
        MOV       A,#0x3
        LCALL     ?XSTACK_DISP100_8
        MOV       ?V0,R0
        MOV       ?V1,R1
        MOV       R0,#?V0
        LCALL     ?PUSH_XSTACK_I_TWO
          CFI CFA_XSP16 add(XSP16, 45)
        MOV       ?V0,#0x7
        MOV       ?V1,#0x0
        MOV       R0,#?V0
        LCALL     ?PUSH_XSTACK_I_TWO
          CFI CFA_XSP16 add(XSP16, 47)
        MOV       ?V0,#0x1
        MOV       R0,#?V0
        LCALL     ?PUSH_XSTACK_I_TWO
          CFI CFA_XSP16 add(XSP16, 49)
        MOV       R1,#0x20
        MOV       R4,#SampleApp_epDesc & 0xff
        MOV       R5,#(SampleApp_epDesc >> 8) & 0xff
        MOV       R2,#SampleApp_P2P_DstAddr & 0xff
        MOV       R3,#(SampleApp_P2P_DstAddr >> 8) & 0xff
        LCALL     `??AF_DataRequest::?relay`; Banked call to: AF_DataRequest
        MOV       A,#0x9
        LCALL     ?DEALLOC_XSTACK8
          CFI CFA_XSP16 add(XSP16, 40)
//  688   {
//  689   }
//  690   else
//  691   {
//  692     // Error occurred in request to send.
//  693   }
//  694 }
        MOV       A,#0x1e
        LCALL     ?DEALLOC_XSTACK8
          CFI CFA_XSP16 add(XSP16, 10)
        MOV       R7,#0x2
        LJMP      ?BANKED_LEAVE_XDATA
          CFI EndBlock cfiBlock4
        REQUIRE _A_P1
        REQUIRE _A_P0
        REQUIRE _A_P2

        RSEG BANKED_CODE:HUGECODE:NOROOT(0)
?Subroutine1:
          CFI Block cfiCond5 Using cfiCommon0
          CFI Function SampleApp_ProcessMSGCmd
          CFI Conditional ??CrossCallReturnLabel_2
          CFI R6 load(1, XDATA, add(CFA_XSP16, literal(-11)))
          CFI VB load(1, XDATA, add(CFA_XSP16, literal(-10)))
          CFI V0 load(1, XDATA, add(CFA_XSP16, literal(-9)))
          CFI V1 load(1, XDATA, add(CFA_XSP16, literal(-8)))
          CFI V2 load(1, XDATA, add(CFA_XSP16, literal(-7)))
          CFI R7 load(1, XDATA, add(CFA_XSP16, literal(-6)))
          CFI ?RET_LOW load(1, XDATA, add(CFA_XSP16, literal(-5)))
          CFI ?RET_HIGH load(1, XDATA, add(CFA_XSP16, literal(-4)))
          CFI ?BRET_EXT load(1, XDATA, add(CFA_XSP16, literal(-3)))
          CFI DPL0 load(1, XDATA, add(CFA_XSP16, literal(-2)))
          CFI DPH0 load(1, XDATA, add(CFA_XSP16, literal(-1)))
          CFI CFA_SP SP+-2
          CFI CFA_XSP16 add(XSP16, 139)
          CFI Block cfiCond6 Using cfiCommon0
          CFI (cfiCond6) Function SampleApp_Send_P2P_Message
          CFI (cfiCond6) Conditional ??CrossCallReturnLabel_3
          CFI (cfiCond6) R6 load(1, XDATA, add(CFA_XSP16, literal(-10)))
          CFI (cfiCond6) VB load(1, XDATA, add(CFA_XSP16, literal(-9)))
          CFI (cfiCond6) V0 load(1, XDATA, add(CFA_XSP16, literal(-8)))
          CFI (cfiCond6) V1 load(1, XDATA, add(CFA_XSP16, literal(-7)))
          CFI (cfiCond6) R7 load(1, XDATA, add(CFA_XSP16, literal(-6)))
          CFI (cfiCond6) ?RET_LOW load(1, XDATA, add(CFA_XSP16, literal(-5)))
          CFI (cfiCond6) ?RET_HIGH load(1, XDATA, add(CFA_XSP16, literal(-4)))
          CFI (cfiCond6) ?BRET_EXT load(1, XDATA, add(CFA_XSP16, literal(-3)))
          CFI (cfiCond6) DPL0 load(1, XDATA, add(CFA_XSP16, literal(-2)))
          CFI (cfiCond6) DPH0 load(1, XDATA, add(CFA_XSP16, literal(-1)))
          CFI (cfiCond6) CFA_SP SP+-2
          CFI (cfiCond6) CFA_XSP16 add(XSP16, 40)
          CFI Block cfiPicker7 Using cfiCommon1
          CFI (cfiPicker7) NoFunction
          CFI (cfiPicker7) Picker
        LCALL     `??osal_strlen::?relay`; Banked call to: osal_strlen
        MOV       ?V0,R2
        MOV       ?V1,R3
        MOV       R4,?V0
        MOV       R5,?V1
        RET
          CFI EndBlock cfiCond5
          CFI EndBlock cfiCond6
          CFI EndBlock cfiPicker7

        RSEG BANKED_CODE:HUGECODE:NOROOT(0)
?Subroutine0:
          CFI Block cfiCond8 Using cfiCommon0
          CFI Function SampleApp_ProcessMSGCmd
          CFI Conditional ??CrossCallReturnLabel_0
          CFI R6 load(1, XDATA, add(CFA_XSP16, literal(-11)))
          CFI VB load(1, XDATA, add(CFA_XSP16, literal(-10)))
          CFI V0 load(1, XDATA, add(CFA_XSP16, literal(-9)))
          CFI V1 load(1, XDATA, add(CFA_XSP16, literal(-8)))
          CFI V2 load(1, XDATA, add(CFA_XSP16, literal(-7)))
          CFI R7 load(1, XDATA, add(CFA_XSP16, literal(-6)))
          CFI ?RET_LOW load(1, XDATA, add(CFA_XSP16, literal(-5)))
          CFI ?RET_HIGH load(1, XDATA, add(CFA_XSP16, literal(-4)))
          CFI ?BRET_EXT load(1, XDATA, add(CFA_XSP16, literal(-3)))
          CFI DPL0 load(1, XDATA, add(CFA_XSP16, literal(-2)))
          CFI DPH0 load(1, XDATA, add(CFA_XSP16, literal(-1)))
          CFI CFA_SP SP+-2
          CFI CFA_XSP16 add(XSP16, 139)
          CFI Block cfiCond9 Using cfiCommon0
          CFI (cfiCond9) Function SampleApp_Send_P2P_Message
          CFI (cfiCond9) Conditional ??CrossCallReturnLabel_1
          CFI (cfiCond9) R6 load(1, XDATA, add(CFA_XSP16, literal(-10)))
          CFI (cfiCond9) VB load(1, XDATA, add(CFA_XSP16, literal(-9)))
          CFI (cfiCond9) V0 load(1, XDATA, add(CFA_XSP16, literal(-8)))
          CFI (cfiCond9) V1 load(1, XDATA, add(CFA_XSP16, literal(-7)))
          CFI (cfiCond9) R7 load(1, XDATA, add(CFA_XSP16, literal(-6)))
          CFI (cfiCond9) ?RET_LOW load(1, XDATA, add(CFA_XSP16, literal(-5)))
          CFI (cfiCond9) ?RET_HIGH load(1, XDATA, add(CFA_XSP16, literal(-4)))
          CFI (cfiCond9) ?BRET_EXT load(1, XDATA, add(CFA_XSP16, literal(-3)))
          CFI (cfiCond9) DPL0 load(1, XDATA, add(CFA_XSP16, literal(-2)))
          CFI (cfiCond9) DPH0 load(1, XDATA, add(CFA_XSP16, literal(-1)))
          CFI (cfiCond9) CFA_SP SP+-2
          CFI (cfiCond9) CFA_XSP16 add(XSP16, 40)
          CFI Block cfiPicker10 Using cfiCommon1
          CFI (cfiPicker10) NoFunction
          CFI (cfiPicker10) Picker
        MOV       R1,#0x0
        LCALL     `??HalUARTWrite::?relay`; Banked call to: HalUARTWrite
        ; Setup parameters for call to function HalUARTWrite
        ; Setup parameters for call to function HalUARTWrite
        MOV       R4,#0x2
        MOV       R5,#0x0
        MOV       R2,#`?<Constant "\\r\\n">` & 0xff
        MOV       R3,#(`?<Constant "\\r\\n">` >> 8) & 0xff
        MOV       R1,#0x0
        LCALL     `??HalUARTWrite::?relay`; Banked call to: HalUARTWrite
        RET
          CFI EndBlock cfiCond8
          CFI EndBlock cfiCond9
          CFI EndBlock cfiPicker10
//  695 

        RSEG BANKED_CODE:HUGECODE:NOROOT(0)
//  696 void SampleApp_CallBack(uint8 port, uint8 event)
SampleApp_CallBack:
          CFI Block cfiBlock11 Using cfiCommon0
          CFI Function SampleApp_CallBack
        CODE
//  697 {
        FUNCALL SampleApp_CallBack, HalUARTRead
        LOCFRAME ISTACK, 2, STACK
        LOCFRAME PSTACK, 0, STACK
        LOCFRAME XSTACK, 0, STACK
        LOCFRAME IOVERLAY, 0, STATIC
        LOCFRAME DOVERLAY, 0, STATIC
        ARGFRAME ISTACK, 2, STACK
        ARGFRAME PSTACK, 0, STACK
        ARGFRAME XSTACK, 0, STACK
        ARGFRAME IOVERLAY, 0, STATIC
        ARGFRAME DOVERLAY, 0, STATIC
        PUSH      DPL
          CFI DPL0 Frame(CFA_SP, 4)
          CFI CFA_SP SP+-4
        PUSH      DPH
          CFI DPH0 Frame(CFA_SP, 5)
          CFI CFA_SP SP+-5
        ; Saved register size: 2
        ; Auto size: 0
//  698   (void)port;
//  699 
//  700   HalUARTRead(SAMPLE_APP_PORT, SampleApp_RxBuf, 1);
        ; Setup parameters for call to function HalUARTRead
        MOV       R4,#0x1
        MOV       R5,#0x0
        MOV       R2,#SampleApp_RxBuf & 0xff
        MOV       R3,#(SampleApp_RxBuf >> 8) & 0xff
        MOV       R1,#0x0
        LCALL     `??HalUARTRead::?relay`; Banked call to: HalUARTRead
//  701 }
        POP       DPH
          CFI DPH0 SameValue
          CFI CFA_SP SP+-4
        POP       DPL
          CFI DPL0 SameValue
          CFI CFA_SP SP+-3
        LJMP      ?BRET
          CFI EndBlock cfiBlock11
//  702 
//  703 #endif
//  704 
//  705 //调试信息输出

        RSEG BANKED_CODE:HUGECODE:NOROOT(0)
//  706 void debug(uint8 *msg, ...)
debug:
          CFI Block cfiBlock12 Using cfiCommon0
          CFI Function debug
        CODE
//  707 {
        ; Saved register size: 0
        ; Auto size: 0
//  708 #if 0
//  709     uint8 len=0;
//  710     char info[200] = {0};
//  711     va_list args;
//  712 
//  713     if(msg==NULL) return;
//  714 
//  715     va_start(args, msg);
//  716     vsprintf(info, (const char*)msg, args);//从头插入到info中
//  717     va_end(args);
//  718     
//  719     
//  720     len=osal_strlen((char *)info);
//  721     if(len==0) return;
//  722     
//  723     
//  724 
//  725     HalUARTWrite(1,info, len);//串口1发送
//  726     osal_memset(info,'\0',200);
//  727 //    HAL_UART_PORT_0
//  728 #endif
//  729 }
        LJMP      ?BRET
          CFI EndBlock cfiBlock12

        RSEG XDATA_ID:CODE:NOROOT(0)
`?<Initializer for SampleApp_epDesc>`:
        DATA8
        DB 11
        DATA16
        DW SampleApp_TaskID
        DW SampleApp_SimpleDesc
        DATA8
        DB 0

        RSEG BANK_RELAYS:CODE:REORDER:NOROOT(0)
`??SampleApp_Init::?relay`:
        CODE
        LCALL   ?BDISPATCH
        DATA24
        DC24    SampleApp_Init

        RSEG BANK_RELAYS:CODE:REORDER:NOROOT(0)
`??SampleApp_HandleKeys::?relay`:
        CODE
        LCALL   ?BDISPATCH
        DATA24
        DC24    SampleApp_HandleKeys

        RSEG BANK_RELAYS:CODE:REORDER:NOROOT(0)
`??SampleApp_ProcessEvent::?relay`:
        CODE
        LCALL   ?BDISPATCH
        DATA24
        DC24    SampleApp_ProcessEvent

        RSEG BANK_RELAYS:CODE:REORDER:NOROOT(0)
`??SampleApp_ProcessMSGCmd::?relay`:
        CODE
        LCALL   ?BDISPATCH
        DATA24
        DC24    SampleApp_ProcessMSGCmd

        RSEG BANK_RELAYS:CODE:REORDER:NOROOT(0)
`??SampleApp_Send_P2P_Message::?relay`:
        CODE
        LCALL   ?BDISPATCH
        DATA24
        DC24    SampleApp_Send_P2P_Message

        RSEG BANK_RELAYS:CODE:REORDER:NOROOT(0)
`??SampleApp_CallBack::?relay`:
        CODE
        LCALL   ?BDISPATCH
        DATA24
        DC24    SampleApp_CallBack

        RSEG BANK_RELAYS:CODE:REORDER:NOROOT(0)
`??debug::?relay`:
        CODE
        LCALL   ?BDISPATCH
        DATA24
        DC24    debug

        RSEG XDATA_ROM_C:CONST:REORDER:NOROOT(0)
        DATA8
`?<Constant "\\r\\n">`:
        DB "\015\012"

        RSEG XDATA_ROM_C:CONST:REORDER:NOROOT(0)
        DATA8
`?<Constant "D2:0">`:
        DB "D2:0"

        RSEG XDATA_ROM_C:CONST:REORDER:NOROOT(0)
        DATA8
`?<Constant "D2:1">`:
        DB "D2:1"

        RSEG XDATA_ROM_C:CONST:REORDER:NOROOT(0)
        DATA8
`?<Constant {0, 0, 0, 0, 0, 0, 0, 0, 0, 0}>`:
        DB 0
        DB 0
        DB 0
        DB 0
        DB 0
        DB 0
        DB 0
        DB 0
        DB 0
        DB 0

        RSEG XDATA_ROM_C:CONST:REORDER:NOROOT(0)
        DATA8
`?<Constant {0, 0, 0, 0, 0, 0, 0, 0, 0, 0, 0, 0`:
        DB 0
        DB 0
        DB 0
        DB 0
        DB 0
        DB 0
        DB 0
        DB 0
        DB 0
        DB 0
        DB 0
        DB 0
        DB 0
        DB 0
        DB 0
        DB 0
        DB 0
        DB 0
        DB 0
        DB 0

        RSEG XDATA_ROM_C:CONST:REORDER:NOROOT(0)
        DATA8
`?<Constant "T&H:%d %d">`:
        DB "T&H:%d %d"

        END
// 
// 809 bytes in segment BANKED_CODE
//  42 bytes in segment BANK_RELAYS
//   8 bytes in segment SFR_AN
//   6 bytes in segment XDATA_I
//   6 bytes in segment XDATA_ID
//  73 bytes in segment XDATA_ROM_C
// 226 bytes in segment XDATA_Z
// 
//  48 bytes of CODE     memory
//  73 bytes of CONST    memory
//   0 bytes of DATA     memory (+ 8 bytes shared)
// 809 bytes of HUGECODE memory
// 232 bytes of XDATA    memory
//
//Errors: none
//Warnings: 12
