###############################################################################
#
# IAR C/C++ Compiler V10.30.1.6000 for 8051               04/Sep/2021  10:07:20
# Copyright 2004-2018 IAR Systems AB.
# PC-locked license - IAR Embedded Workbench for 8051
#
#    Core               =  plain
#    Code model         =  banked
#    Data model         =  large
#    Calling convention =  xdata reentrant
#    Constant location  =  data_rom
#    Dptr setup         =  1,16
#                          
#    Source file        =  
#        C:\Users\OY\Desktop\ing\new\ZStack-2.5.1a\Projects\zstack\Samples\SampleApp\Source\SampleApp.c
#    Command line       =  
#        -f C:\Users\OY\AppData\Local\Temp\EW509E.tmp
#        (C:\Users\OY\Desktop\ing\new\ZStack-2.5.1a\Projects\zstack\Samples\SampleApp\Source\SampleApp.c
#        -D NWK_AUTO_POLL -D ZTOOL_P1 -D MT_TASK -D MT_SYS_FUNC -D MT_ZDO_FUNC
#        -D LCD_SUPPORTED=DEBUG -lC
#        C:\Users\OY\Desktop\ing\new\ZStack-2.5.1a\Projects\zstack\Samples\SampleApp\CC2530DB\EndDeviceEB\List
#        -lA
#        C:\Users\OY\Desktop\ing\new\ZStack-2.5.1a\Projects\zstack\Samples\SampleApp\CC2530DB\EndDeviceEB\List
#        --diag_suppress Pe001,Pa010 -o
#        C:\Users\OY\Desktop\ing\new\ZStack-2.5.1a\Projects\zstack\Samples\SampleApp\CC2530DB\EndDeviceEB\Obj
#        -e --debug --core=plain --dptr=16,1 --data_model=large
#        --code_model=banked --calling_convention=xdata_reentrant
#        --place_constants=data_rom --nr_virtual_regs 8 -f
#        C:\Users\OY\Desktop\ing\new\ZStack-2.5.1a\Projects\zstack\Samples\SampleApp\CC2530DB\..\..\..\Tools\CC2530DB\f8wEndev.cfg
#        (-DCPU32MHZ -DROOT=__near_func -DMAC_CFG_TX_DATA_MAX=3
#        -DMAC_CFG_TX_MAX=6 -DMAC_CFG_RX_MAX=3) -f
#        C:\Users\OY\Desktop\ing\new\ZStack-2.5.1a\Projects\zstack\Samples\SampleApp\CC2530DB\..\..\..\Tools\CC2530DB\f8wConfig.cfg
#        (-DZIGBEEPRO -DSECURE=0 -DZG_SECURE_DYNAMIC=0 -DREFLECTOR
#        -DDEFAULT_CHANLIST=0x00000800 -DZDAPP_CONFIG_PAN_ID=0xFFF1
#        -DNWK_START_DELAY=100 -DEXTENDED_JOINING_RANDOM_MASK=0x007F
#        -DBEACON_REQUEST_DELAY=100 -DBEACON_REQ_DELAY_MASK=0x00FF
#        -DLINK_STATUS_JITTER_MASK=0x007F -DROUTE_EXPIRY_TIME=30
#        -DAPSC_ACK_WAIT_DURATION_POLLED=3000 -DNWK_INDIRECT_MSG_TIMEOUT=7
#        -DMAX_RREQ_ENTRIES=8 -DAPSC_MAX_FRAME_RETRIES=3
#        -DNWK_MAX_DATA_RETRIES=2 -DMAX_POLL_FAILURE_RETRIES=2 -DMAX_BCAST=9
#        -DAPS_MAX_GROUPS=16 -DMAX_RTG_ENTRIES=40 -DNWK_MAX_BINDING_ENTRIES=4
#        -DMAX_BINDING_CLUSTER_IDS=4 "-DDEFAULT_KEY={0x01, 0x03, 0x05, 0x07,
#        0x09, 0x0B, 0x0D, 0x0F, 0x00, 0x02, 0x04, 0x06, 0x08, 0x0A, 0x0C,
#        0x0D}" -DMAC_MAX_FRAME_SIZE=116 -DZDNWKMGR_MIN_TRANSMISSIONS=20
#        "-DCONST=const __code" -DGENERIC=__generic -DRFD_RCVC_ALWAYS_ON=FALSE
#        -DPOLL_RATE=1000 -DQUEUED_POLL_RATE=100 -DRESPONSE_POLL_RATE=100
#        -DREJOIN_POLL_RATE=440) -I
#        C:\Users\OY\Desktop\ing\new\ZStack-2.5.1a\Projects\zstack\Samples\SampleApp\CC2530DB\
#        -I
#        C:\Users\OY\Desktop\ing\new\ZStack-2.5.1a\Projects\zstack\Samples\SampleApp\CC2530DB\..\Source\
#        -I
#        C:\Users\OY\Desktop\ing\new\ZStack-2.5.1a\Projects\zstack\Samples\SampleApp\CC2530DB\..\..\..\ZMain\TI2530DB\
#        -I
#        C:\Users\OY\Desktop\ing\new\ZStack-2.5.1a\Projects\zstack\Samples\SampleApp\CC2530DB\..\..\..\..\..\Components\hal\include\
#        -I
#        C:\Users\OY\Desktop\ing\new\ZStack-2.5.1a\Projects\zstack\Samples\SampleApp\CC2530DB\..\..\..\..\..\Components\hal\target\CC2530EB\
#        -I
#        C:\Users\OY\Desktop\ing\new\ZStack-2.5.1a\Projects\zstack\Samples\SampleApp\CC2530DB\..\..\..\..\..\Components\mac\include\
#        -I
#        C:\Users\OY\Desktop\ing\new\ZStack-2.5.1a\Projects\zstack\Samples\SampleApp\CC2530DB\..\..\..\..\..\Components\mac\high_level\
#        -I
#        C:\Users\OY\Desktop\ing\new\ZStack-2.5.1a\Projects\zstack\Samples\SampleApp\CC2530DB\..\..\..\..\..\Components\mac\low_level\srf04\
#        -I
#        C:\Users\OY\Desktop\ing\new\ZStack-2.5.1a\Projects\zstack\Samples\SampleApp\CC2530DB\..\..\..\..\..\Components\mac\low_level\srf04\single_chip\
#        -I
#        C:\Users\OY\Desktop\ing\new\ZStack-2.5.1a\Projects\zstack\Samples\SampleApp\CC2530DB\..\..\..\..\..\Components\mt\
#        -I
#        C:\Users\OY\Desktop\ing\new\ZStack-2.5.1a\Projects\zstack\Samples\SampleApp\CC2530DB\..\..\..\..\..\Components\osal\include\
#        -I
#        C:\Users\OY\Desktop\ing\new\ZStack-2.5.1a\Projects\zstack\Samples\SampleApp\CC2530DB\..\..\..\..\..\Components\services\saddr\
#        -I
#        C:\Users\OY\Desktop\ing\new\ZStack-2.5.1a\Projects\zstack\Samples\SampleApp\CC2530DB\..\..\..\..\..\Components\services\sdata\
#        -I
#        C:\Users\OY\Desktop\ing\new\ZStack-2.5.1a\Projects\zstack\Samples\SampleApp\CC2530DB\..\..\..\..\..\Components\stack\af\
#        -I
#        C:\Users\OY\Desktop\ing\new\ZStack-2.5.1a\Projects\zstack\Samples\SampleApp\CC2530DB\..\..\..\..\..\Components\stack\nwk\
#        -I
#        C:\Users\OY\Desktop\ing\new\ZStack-2.5.1a\Projects\zstack\Samples\SampleApp\CC2530DB\..\..\..\..\..\Components\stack\sapi\
#        -I
#        C:\Users\OY\Desktop\ing\new\ZStack-2.5.1a\Projects\zstack\Samples\SampleApp\CC2530DB\..\..\..\..\..\Components\stack\sec\
#        -I
#        C:\Users\OY\Desktop\ing\new\ZStack-2.5.1a\Projects\zstack\Samples\SampleApp\CC2530DB\..\..\..\..\..\Components\stack\sys\
#        -I
#        C:\Users\OY\Desktop\ing\new\ZStack-2.5.1a\Projects\zstack\Samples\SampleApp\CC2530DB\..\..\..\..\..\Components\stack\zdo\
#        -I
#        C:\Users\OY\Desktop\ing\new\ZStack-2.5.1a\Projects\zstack\Samples\SampleApp\CC2530DB\..\..\..\..\..\Components\zmac\
#        -I
#        C:\Users\OY\Desktop\ing\new\ZStack-2.5.1a\Projects\zstack\Samples\SampleApp\CC2530DB\..\..\..\..\..\Components\zmac\f8w\
#        -Ohz --no_code_motion)
#    Locale             =  Chinese (Simplified)_CHN.936
#    List file          =  
#        C:\Users\OY\Desktop\ing\new\ZStack-2.5.1a\Projects\zstack\Samples\SampleApp\CC2530DB\EndDeviceEB\List\SampleApp.lst
#    Object file        =  
#        C:\Users\OY\Desktop\ing\new\ZStack-2.5.1a\Projects\zstack\Samples\SampleApp\CC2530DB\EndDeviceEB\Obj\SampleApp.r51
#
###############################################################################

C:\Users\OY\Desktop\ing\new\ZStack-2.5.1a\Projects\zstack\Samples\SampleApp\Source\SampleApp.c
      1          /*********************************************************************
      2           * INCLUDES
      3           */
      4          
      5          #include <stdio.h>
      6          #include <string.h>
      7          #include "AF.h"
      8          #include "OnBoard.h"

   \                                 In  segment SFR_AN, at 0x80
   \   union <unnamed> volatile __sfr _A_P0
   \                     _A_P0:
   \   000000                DS 1

   \                                 In  segment SFR_AN, at 0x90
   \   union <unnamed> volatile __sfr _A_P1
   \                     _A_P1:
   \   000000                DS 1
      9          #include "OSAL_Tasks.h"
     10          #include "SampleApp.h"
     11          #include "ZDApp.h"
     12          #include "ZDObject.h"
     13          #include "ZDProfile.h"
     14          
     15          #include "hal_drivers.h"
     16          #include "hal_key.h"
     17          #if defined(LCD_SUPPORTED)
     18          #include "hal_lcd.h"
     19          #endif
     20          #include "hal_led.h"
     21          #include "hal_uart.h"
     22          
     23          #ifdef ZDO_COORDINATOR
     24          //协议文件
     25          #include "mqtt.h"
     26          #include "mqttkit.h"
     27          
     28          #else
     29          
     30          #include "dht11.h"
     31          
     32          #endif
     33          
     34          /*********************************************************************
     35           * MACROS
     36           */
     37          
     38          /*********************************************************************
     39           * CONSTANTS
     40           */
     41          
     42          #if !defined(SAMPLE_APP_PORT)
     43          #define SAMPLE_APP_PORT 0
     44          #endif
     45          
     46          #if !defined(SAMPLE_APP_RX_MAX)
     47          #define SAMPLE_APP_RX_MAX 200
     48          #endif
     49          
     50          // This list should be filled with Application specific Cluster IDs.

   \                                 In  segment XDATA_ROM_C, align 1
     51          const cId_t SampleApp_ClusterList[SAMPLE_MAX_CLUSTERS] =
   \                     SampleApp_ClusterList:
   \   000000   0100         DW 1
   \   000002   0200         DW 2
   \   000004   0300         DW 3
   \   000006   0400         DW 4
     52              {
     53                  SAMPLEAPP_P2P_CLUSTERID,
     54                  SAMPLEAPP_PERIODIC_CLUSTERID,
     55                  SERIALAPP_CONNECTREQ_CLUSTER,
     56                  SAMPLEAPP_CTE_CLUSTERID // coor to end
     57          };
     58          

   \                                 In  segment XDATA_ROM_C, align 1
     59          const SimpleDescriptionFormat_t SampleApp_SimpleDesc =
   \                     SampleApp_SimpleDesc:
   \   000000   0B           DB 11
   \   000001   050F         DW 3845
   \   000003   0100         DW 1
   \   000005   00           DB 0
   \   000006   04           DB 4
   \   000007   ....         DW SampleApp_ClusterList
   \   000009   04           DB 4
   \   00000A   ....         DW SampleApp_ClusterList
     60              {
     61                  SAMPLEAPP_ENDPOINT,             //  int   Endpoint;
     62                  SAMPLEAPP_PROFID,               //  uint16 AppProfId[2];
     63                  SAMPLEAPP_DEVICEID,             //  uint16 AppDeviceId[2];
     64                  SAMPLEAPP_DEVICE_VERSION,       //  int   AppDevVer:4;
     65                  SAMPLEAPP_FLAGS,                //  int   AppFlags:4;
     66                  SAMPLE_MAX_CLUSTERS,            //  byte  AppNumInClusters;
     67                  (cId_t *)SampleApp_ClusterList, //  byte *pAppInClusterList;
     68                  SAMPLE_MAX_CLUSTERS,            //  byte  AppNumOutClusters;
     69                  (cId_t *)SampleApp_ClusterList  //  byte *pAppOutClusterList;
     70          };
     71          

   \                                 In  segment XDATA_I, align 1, keep-with-next
     72          endPointDesc_t SampleApp_epDesc =
   \                     SampleApp_epDesc:
   \   000000                DS 6
   \   000006                REQUIRE `?<Initializer for SampleApp_epDesc>`
   \   000006                REQUIRE __INIT_XDATA_I
     73              {
     74                  SAMPLEAPP_ENDPOINT,
     75                  &SampleApp_TaskID,
     76                  (SimpleDescriptionFormat_t *)&SampleApp_SimpleDesc,
     77                  noLatencyReqs};
     78          
     79          /*********************************************************************
     80           * TYPEDEFS
     81           */
     82          
     83          /*********************************************************************
     84           * GLOBAL VARIABLES
     85           */

   \                                 In  segment XDATA_Z, align 1, keep-with-next
     86          devStates_t SampleApp_NwkState;
   \                     SampleApp_NwkState:
   \   000000                DS 1
   \   000001                REQUIRE __INIT_XDATA_Z

   \                                 In  segment XDATA_Z, align 1, keep-with-next
     87          uint8 SampleApp_TaskID; // Task ID for internal task/event processing.
   \                     SampleApp_TaskID:
   \   000000                DS 1
   \   000001                REQUIRE __INIT_XDATA_Z
     88          
     89          /*********************************************************************
     90           * EXTERNAL VARIABLES
     91           */
     92          
     93          /*********************************************************************
     94           * EXTERNAL FUNCTIONS
     95           */
     96          
     97          /*********************************************************************
     98           * LOCAL VARIABLES
     99           */
    100          

   \                                 In  segment XDATA_Z, align 1, keep-with-next
    101          static uint8 SampleApp_MsgID; //消息id
   \                     SampleApp_MsgID:
   \   000000                DS 1
   \   000001                REQUIRE __INIT_XDATA_Z
    102          

   \                                 In  segment XDATA_Z, align 1, keep-with-next
    103          afAddrType_t SampleApp_P2P_DstAddr; //播类型
   \                     SampleApp_P2P_DstAddr:
   \   000000                DS 12
   \   00000C                REQUIRE __INIT_XDATA_Z
    104          

   \                                 In  segment XDATA_Z, align 1, keep-with-next
    105          static uint8 SampleApp_RxBuf[SAMPLE_APP_RX_MAX + 1] = {0};
   \                     SampleApp_RxBuf:
   \   000000                DS 201
   \   0000C9                REQUIRE __INIT_XDATA_Z
    106          static uint16 SampleApp_RxLen = 0;
    107          

   \                                 In  segment XDATA_Z, align 1, keep-with-next
    108          uint8 onenet_login_ok = 0; //onenet注册成功 0:未注册，1：注册中　2：注册成功
   \                     onenet_login_ok:
   \   000000                DS 1
   \   000001                REQUIRE __INIT_XDATA_Z

   \                                 In  segment XDATA_Z, align 1, keep-with-next
    109          uint8 end_temp;            //终端的温度
   \                     end_temp:
   \   000000                DS 1
   \   000001                REQUIRE __INIT_XDATA_Z

   \                                 In  segment XDATA_Z, align 1, keep-with-next
    110          uint8 end_hum;             //终端的湿度
   \                     end_hum:
   \   000000                DS 1
   \   000001                REQUIRE __INIT_XDATA_Z
    111          

   \                                 In  segment XDATA_Z, align 1, keep-with-next
    112          uint8 end_light = 0; //开发板区域亮度     亮0-127灭
   \                     end_light:
   \   000000                DS 1
   \   000001                REQUIRE __INIT_XDATA_Z

   \                                 In  segment XDATA_Z, align 1, keep-with-next
    113          uint8 end_led2 = 0;  //终端节点开发板led3状态     0灭 1亮
   \                     end_led2:
   \   000000                DS 1
   \   000001                REQUIRE __INIT_XDATA_Z

   \                                 In  segment XDATA_Z, align 1, keep-with-next
    114          uint8 cor_led3 = 0;  //协调器led3 0灭 1亮
   \                     cor_led3:
   \   000000                DS 1
   \   000001                REQUIRE __INIT_XDATA_Z
    115          #ifdef ZDO_COORDINATOR
    116          signed char *g_mqtt_topics_set[5] = {NULL};
    117          u8 topics_buff[60] = {0};
    118          u8 topics_post[100] = {0};  //发布的主题
    119          u8 mqtt_message[200] = {0}; //发布的消息
    120          #endif
    121          
    122          /*********************************************************************
    123           * LOCAL FUNCTIONS
    124           */
    125          
    126          static void SampleApp_ProcessMSGCmd(afIncomingMSGPacket_t *pkt);
    127          void SampleApp_CallBack(uint8 port, uint8 event);
    128          static void SampleApp_Send_P2P_Message(void);
    129          static void OneNet_publish_topic();
    130          void debug(uint8 *msg, ...);
    131          
    132          /*********************************************************************
    133           * @fn      SampleApp_Init
    134           *
    135           * @brief   This is called during OSAL tasks' initialization.
    136           *
    137           * @param   task_id - the Task ID assigned by OSAL.
    138           *
    139           * @return  none
    140           */

   \                                 In  segment BANKED_CODE, align 1, keep-with-next
    141          void SampleApp_Init(uint8 task_id)
   \                     SampleApp_Init:
    142          {
   \   000000   74F7         MOV       A,#-0x9
   \   000002   12....       LCALL     ?BANKED_ENTER_XDATA
   \   000005                ; Saved register size: 9
   \   000005                ; Auto size: 0
   \   000005   E9           MOV       A,R1
   \   000006   FE           MOV       R6,A
    143            halUARTCfg_t uartConfig;
    144          
    145            SampleApp_TaskID = task_id;
   \   000007   90....       MOV       DPTR,#SampleApp_TaskID
   \   00000A   F0           MOVX      @DPTR,A
    146            SampleApp_NwkState = DEV_INIT;
   \   00000B   90....       MOV       DPTR,#SampleApp_NwkState
   \   00000E   7401         MOV       A,#0x1
   \   000010   F0           MOVX      @DPTR,A
    147          
    148            MT_UartInit();                  //串口初始化
                   ^
Warning[Pe223]: function "MT_UartInit" declared implicitly
   \   000011                ; Setup parameters for call to function MT_UartInit
   \   000011   12....       LCALL     `??MT_UartInit::?relay`; Banked call to: MT_UartInit
    149            MT_UartRegisterTaskID(task_id); //注册串口任务
                   ^
Warning[Pe223]: function "MT_UartRegisterTaskID" declared implicitly
   \   000014                ; Setup parameters for call to function MT_UartRegisterTaskID
   \   000014   EE           MOV       A,R6
   \   000015   FA           MOV       R2,A
   \   000016   7B00         MOV       R3,#0x0
   \   000018   12....       LCALL     `??MT_UartRegisterTaskID::?relay`; Banked call to: MT_UartRegisterTaskID
    150            afRegister((endPointDesc_t *)&SampleApp_epDesc);
   \   00001B                ; Setup parameters for call to function afRegister
   \   00001B   7A..         MOV       R2,#SampleApp_epDesc & 0xff
   \   00001D   7B..         MOV       R3,#(SampleApp_epDesc >> 8) & 0xff
   \   00001F   12....       LCALL     `??afRegister::?relay`; Banked call to: afRegister
    151            RegisterForKeys(task_id);
   \   000022                ; Setup parameters for call to function RegisterForKeys
   \   000022   EE           MOV       A,R6
   \   000023   F9           MOV       R1,A
   \   000024   12....       LCALL     `??RegisterForKeys::?relay`; Banked call to: RegisterForKeys
    152          
    153          #ifdef ZDO_COORDINATOR
    154            //协调器初始化
    155          
    156            //逢蜂鸣器初始化
    157          
    158            //  P0SEL &= ~0x80;                 //设置P07为普通IO口
    159            //  P0DIR |= 0x80;                 //P07定义为输出口
    160            //
    161            //  //默认蜂鸣器不响
    162            //  P0_7=1;
    163          
    164            //初始化发布的主题
    165            sprintf(topics_post, "/post"); //"/sys/%s/%s/thing/event/property/post",ProductKey,DeviceName);
    166          
    167            //初始化订阅的主题
    168            sprintf(topics_buff, "/set"); //"/sys/%s/%s/thing/service/property/set",ProductKey,DeviceName);// /sys/a1sYYwS4kmH/mytestdev/thing/service/property/set
    169            g_mqtt_topics_set[0] = topics_buff;
    170          
    171            //协调器广播给终端
    172            SampleApp_P2P_DstAddr.addrMode = (afAddrMode_t)AddrBroadcast; //广播模式
    173            SampleApp_P2P_DstAddr.endPoint = SAMPLEAPP_ENDPOINT;
    174            SampleApp_P2P_DstAddr.addr.shortAddr = 0xFFFF; //发给终端
    175          
    176            //目的地址端口号
    177            endPointDesc_t SampleApp_epDesc;
    178            SampleApp_epDesc.endPoint = SAMPLEAPP_ENDPOINT;
    179            SampleApp_epDesc.task_id = &SampleApp_TaskID;
    180            SampleApp_epDesc.simpleDesc = (SimpleDescriptionFormat_t *)&SampleApp_SimpleDesc;
    181            SampleApp_epDesc.latencyReq = noLatencyReqs;
    182            afRegister(&SampleApp_epDesc);
    183          
    184          #else
    185            //终端点播给协调器
    186            SampleApp_P2P_DstAddr.addrMode = (afAddrMode_t)Addr16Bit; //点播
   \   000027   90....       MOV       DPTR,#SampleApp_P2P_DstAddr + 8
   \   00002A   7402         MOV       A,#0x2
   \   00002C   F0           MOVX      @DPTR,A
    187            SampleApp_P2P_DstAddr.endPoint = SAMPLEAPP_ENDPOINT;
   \   00002D   A3           INC       DPTR
   \   00002E   740B         MOV       A,#0xb
   \   000030   F0           MOVX      @DPTR,A
    188            SampleApp_P2P_DstAddr.addr.shortAddr = 0x0000; //发给协调器
   \   000031   90....       MOV       DPTR,#SampleApp_P2P_DstAddr
   \   000034   E4           CLR       A
   \   000035   F0           MOVX      @DPTR,A
   \   000036   A3           INC       DPTR
   \   000037   F0           MOVX      @DPTR,A
    189          
    190          #endif
    191          }
   \   000038   7F01         MOV       R7,#0x1
   \   00003A   02....       LJMP      ?BANKED_LEAVE_XDATA
    192          

   \                                 In  segment BANKED_CODE, align 1, keep-with-next
    193          void SampleApp_HandleKeys(uint8 shift, uint8 keys)
   \                     SampleApp_HandleKeys:
    194          {
   \   000000                ; Saved register size: 0
   \   000000                ; Auto size: 0
    195            (void)shift; // Intentionally unreferenced parameter
    196          
    197          #if defined(ZDO_COORDINATOR)
    198          
    199            if (keys & HAL_KEY_SW_6) //key1
    200            {
    201              const signed char *g_mqtt_topics[] = {"mqtt_topic_test1"};
    202              if (0 == mqtt_subscribe_topic(g_mqtt_topics, 1))
    203              {
    204              }
    205            }
    206          
    207            if (keys & HAL_KEY_SW_1) //key2
    208            {
    209            }
    210          
    211          #endif
    212          }
   \   000000   02....       LJMP      ?BRET
    213          
    214          /*********************************************************************
    215           * @fn      SampleApp_ProcessEvent
    216           *
    217           * @brief   Generic Application Task event processor.
    218           *
    219           * @param   task_id  - The OSAL assigned task ID.
    220           * @param   events   - Bit map of events to process.
    221           *
    222           * @return  Event flags of all unprocessed events.
    223           */

   \                                 In  segment BANKED_CODE, align 1, keep-with-next
    224          UINT16 SampleApp_ProcessEvent(uint8 task_id, UINT16 events)
   \                     SampleApp_ProcessEvent:
    225          {
   \   000000                REQUIRE ?V0
   \   000000                REQUIRE ?V1
   \   000000                REQUIRE ?V2
   \   000000                REQUIRE ?V3
   \   000000   74F4         MOV       A,#-0xc
   \   000002   12....       LCALL     ?BANKED_ENTER_XDATA
   \   000005                ; Saved register size: 12
   \   000005                ; Auto size: 0
   \   000005   EA           MOV       A,R2
   \   000006   FE           MOV       R6,A
   \   000007   EB           MOV       A,R3
   \   000008   FF           MOV       R7,A
    226            (void)task_id; // Intentionally unreferenced parameter
    227          
    228            if (events & SYS_EVENT_MSG)
   \   000009   5480         ANL       A,#0x80
   \   00000B   7051         JNZ       ??SampleApp_ProcessEvent_0
    229            {
    230              afIncomingMSGPacket_t *MSGpkt;
    231          
    232              while ((MSGpkt = (afIncomingMSGPacket_t *)osal_msg_receive(SampleApp_TaskID)))
    233              {
    234                switch (MSGpkt->hdr.event)
    235                {
    236                case KEY_CHANGE:
    237                  SampleApp_HandleKeys(((keyChange_t *)MSGpkt)->state, ((keyChange_t *)MSGpkt)->keys);
    238                  break;
    239          
    240                case AF_INCOMING_MSG_CMD:
    241                  SampleApp_ProcessMSGCmd(MSGpkt);
    242                  break;
    243          
    244                case ZDO_STATE_CHANGE:
    245                  SampleApp_NwkState = (devStates_t)(MSGpkt->hdr.status);
    246                  if ((SampleApp_NwkState == DEV_ZB_COORD) ||
    247                      (SampleApp_NwkState == DEV_ROUTER) || (SampleApp_NwkState == DEV_END_DEVICE))
    248                  {
    249                    //连网成功后，启动一个定时器
    250                    osal_start_timerEx(SampleApp_TaskID,
    251                                       SAMPLEAPP_SEND_PERIODIC_MSG_EVT,
    252                                       SAMPLEAPP_SEND_PERIODIC_MSG_TIMEOUT);
    253                  }
    254                  else
    255                  {
    256                    // Device is no longer in the network
    257                  }
    258                  break;
    259          
    260                default:
    261                  break;
    262                }
    263          
    264                osal_msg_deallocate((uint8 *)MSGpkt);
    265              }
    266          
    267              return (events ^ SYS_EVENT_MSG);
    268            }
    269          
    270          #ifdef ZDO_COORDINATOR
    271          
    272            //定时器时间到
    273            if (events & SAMPLEAPP_SEND_PERIODIC_MSG_EVT)
    274            {
    275              if (onenet_login_ok == 2)
    276              {
    277                //如果接入onenet成功，启动心跳和发送数据定A器
    278          
    279                P1_1 = 0; //点亮D2
    280          
    281                // 启动心跳定时器，15秒一次
    282                osal_start_timerEx(SampleApp_TaskID, SAMPLEAPP_ONENET_HEART_BEAT_EVT, 15000);
    283          
    284                // 启动发送数据定时器，5秒一次
    285                osal_start_timerEx(SampleApp_TaskID, SAMPLEAPP_ONENET_SEND_DATA_EVT, 5000);
    286              }
    287              else
    288              {
    289                onenet_login_ok = 1; //onenet注册成功 0:未注册，1：注册中　2：注册成功
    290                SampleApp_RxLen = 0;
    291          
    292                //如果没有接入onenet成功，重新发起接入
    293                OneNet_DevLink(); //接入onenet服务器
    294          
    295                //LED2闪，表示正在接入onenet
    296                HalLedBlink(HAL_LED_2, 5, 50, 500);
    297          
    298                // 每5秒尝试接入一次
    299                osal_start_timerEx(SampleApp_TaskID, SAMPLEAPP_SEND_PERIODIC_MSG_EVT, 5000);
    300              }
    301          
    302              // return unprocessed events
    303              return (events ^ SAMPLEAPP_SEND_PERIODIC_MSG_EVT);
    304            }
    305          
    306            //心跳定时器时间到
    307            if (events & SAMPLEAPP_ONENET_HEART_BEAT_EVT)
    308            {
    309              if (onenet_login_ok == 2)
    310              {
    311                //发送心跳
    312                onenet_mqtt_send_heart();
    313              }
    314          
    315              // 启动心跳定时器，15秒一次
    316              osal_start_timerEx(SampleApp_TaskID, SAMPLEAPP_ONENET_HEART_BEAT_EVT, 15000);
    317          
    318              // return unprocessed events
    319              return (events ^ SAMPLEAPP_ONENET_HEART_BEAT_EVT);
    320            }
    321          
    322            //发送数据定时器时间到
    323            if (events & SAMPLEAPP_ONENET_SEND_DATA_EVT)
    324            {
    325              if (onenet_login_ok == 2)
    326              {
    327                //发送温湿度数据到onenet
    328                //    OneNet_SendData(end_temp, end_hum);
    329          
    330                sprintf(mqtt_message,
    331                        "{\"method\":\"thing.service.property.set\",\"id\":\"630262306\",\"params\":{\
    332                      \"temp\":%d,\
    333                      \"hum\":%d,\
    334                         \"end_light\":%d,\
    335                        \"end_led2\":%d}\
    336                  }",
    337                        end_temp,
    338                        end_hum,
    339                        end_light,
    340                        end_led2);
    341          
    342                //发布主题
    343                mqtt_publish_topic(topics_post, mqtt_message);
    344          
    345                //  OneNet_publish_topic();
    346              }
    347          
    348              // 启动发送数据定时器，5秒一次
    349              osal_start_timerEx(SampleApp_TaskID, SAMPLEAPP_ONENET_SEND_DATA_EVT, 5000);
    350          
    351              // return unprocessed events
    352              return (events ^ SAMPLEAPP_ONENET_SEND_DATA_EVT);
    353            }
    354          
    355          #else
    356          
    357            //定时器时间到
    358            if (events & SAMPLEAPP_SEND_PERIODIC_MSG_EVT)
   \   00000D   EA           MOV       A,R2
   \   00000E   A2E0         MOV       C,0xE0 /* A   */.0
   \   000010   5078         JNC       ??SampleApp_ProcessEvent_1
    359            {
    360          
    361              // DHT11采集
    362              SampleApp_Send_P2P_Message();
   \   000012                ; Setup parameters for call to function SampleApp_Send_P2P_Message
   \   000012   12....       LCALL     `??SampleApp_Send_P2P_Message::?relay`; Banked call to: SampleApp_Send_P2P_Message
    363          
    364              // Setup to send message again in normal period (+ a little jitter)
    365              osal_start_timerEx(SampleApp_TaskID, SAMPLEAPP_SEND_PERIODIC_MSG_EVT,
    366                                 (SAMPLEAPP_SEND_PERIODIC_MSG_TIMEOUT + (osal_rand() & 0x00FF)));
   \   000015                ; Setup parameters for call to function osal_rand
   \   000015   12....       LCALL     `??osal_rand::?relay`; Banked call to: osal_rand
   \   000018                ; Setup parameters for call to function osal_start_timerEx
   \   000018   EA           MOV       A,R2
   \   000019   24B8         ADD       A,#-0x48
   \   00001B   FC           MOV       R4,A
   \   00001C   E4           CLR       A
   \   00001D   340B         ADDC      A,#0xb
   \   00001F   FD           MOV       R5,A
   \   000020   7A01         MOV       R2,#0x1
   \   000022   7B00         MOV       R3,#0x0
   \   000024   90....       MOV       DPTR,#SampleApp_TaskID
   \   000027   E0           MOVX      A,@DPTR
   \   000028   F9           MOV       R1,A
   \   000029   12....       LCALL     `??osal_start_timerEx::?relay`; Banked call to: osal_start_timerEx
    367          
    368              // return unprocessed events
    369              return (events ^ SAMPLEAPP_SEND_PERIODIC_MSG_EVT);
   \   00002C   EE           MOV       A,R6
   \   00002D   6401         XRL       A,#0x1
   \   00002F   FA           MOV       R2,A
   \   000030   EF           MOV       A,R7
   \   000031   8054         SJMP      ??SampleApp_ProcessEvent_2
    370            }
   \                     ??SampleApp_ProcessEvent_3:
   \   000033   A3           INC       DPTR
   \   000034   E0           MOVX      A,@DPTR
   \   000035   90....       MOV       DPTR,#SampleApp_NwkState
   \   000038   F0           MOVX      @DPTR,A
   \   000039   6409         XRL       A,#0x9
   \   00003B   600A         JZ        ??SampleApp_ProcessEvent_4
   \   00003D   E0           MOVX      A,@DPTR
   \   00003E   6407         XRL       A,#0x7
   \   000040   6005         JZ        ??SampleApp_ProcessEvent_4
   \   000042   E0           MOVX      A,@DPTR
   \   000043   6406         XRL       A,#0x6
   \   000045   7010         JNZ       ??SampleApp_ProcessEvent_5
   \                     ??SampleApp_ProcessEvent_4:
   \   000047                ; Setup parameters for call to function osal_start_timerEx
   \   000047   7CB8         MOV       R4,#-0x48
   \   000049   7D0B         MOV       R5,#0xb
   \   00004B   7A01         MOV       R2,#0x1
   \   00004D   7B00         MOV       R3,#0x0
   \   00004F   90....       MOV       DPTR,#SampleApp_TaskID
   \   000052   E0           MOVX      A,@DPTR
   \   000053   F9           MOV       R1,A
   \   000054   12....       LCALL     `??osal_start_timerEx::?relay`; Banked call to: osal_start_timerEx
   \                     ??SampleApp_ProcessEvent_5:
   \   000057                ; Setup parameters for call to function osal_msg_deallocate
   \   000057   AA..         MOV       R2,?V0
   \   000059   AB..         MOV       R3,?V1
   \   00005B   12....       LCALL     `??osal_msg_deallocate::?relay`; Banked call to: osal_msg_deallocate
   \                     ??SampleApp_ProcessEvent_0:
   \   00005E                ; Setup parameters for call to function osal_msg_receive
   \   00005E   90....       MOV       DPTR,#SampleApp_TaskID
   \   000061   E0           MOVX      A,@DPTR
   \   000062   F9           MOV       R1,A
   \   000063   12....       LCALL     `??osal_msg_receive::?relay`; Banked call to: osal_msg_receive
   \   000066   8A..         MOV       ?V0,R2
   \   000068   8B..         MOV       ?V1,R3
   \   00006A   EA           MOV       A,R2
   \   00006B   4B           ORL       A,R3
   \   00006C   6014         JZ        ??SampleApp_ProcessEvent_6
   \   00006E   8A82         MOV       DPL,R2
   \   000070   8B83         MOV       DPH,R3
   \   000072   E0           MOVX      A,@DPTR
   \   000073   24E6         ADD       A,#-0x1a
   \   000075   6006         JZ        ??SampleApp_ProcessEvent_7
   \   000077   2449         ADD       A,#0x49
   \   000079   60B8         JZ        ??SampleApp_ProcessEvent_3
   \   00007B   80DA         SJMP      ??SampleApp_ProcessEvent_5
   \                     ??SampleApp_ProcessEvent_7:
   \   00007D                ; Setup parameters for call to function SampleApp_ProcessMSGCmd
   \   00007D   12....       LCALL     `??SampleApp_ProcessMSGCmd::?relay`; Banked call to: SampleApp_ProcessMSGCmd
   \   000080   80D5         SJMP      ??SampleApp_ProcessEvent_5
   \                     ??SampleApp_ProcessEvent_6:
   \   000082   EE           MOV       A,R6
   \   000083   FA           MOV       R2,A
   \   000084   EF           MOV       A,R7
   \   000085   6480         XRL       A,#0x80
   \                     ??SampleApp_ProcessEvent_2:
   \   000087   FB           MOV       R3,A
   \   000088   8004         SJMP      ??SampleApp_ProcessEvent_8
    371          
    372          #endif
    373          
    374            return (0); // Discard unknown events.
   \                     ??SampleApp_ProcessEvent_1:
   \   00008A   7A00         MOV       R2,#0x0
   \   00008C   7B00         MOV       R3,#0x0
   \                     ??SampleApp_ProcessEvent_8:
   \   00008E   7F04         MOV       R7,#0x4
   \   000090   02....       LJMP      ?BANKED_LEAVE_XDATA
    375          }
    376          
    377          /*********************************************************************
    378           * @fn      SerialApp_ProcessMSGCmd
    379           *
    380           * @brief   Data message processor callback. This function processes
    381           *          any incoming data - probably from other devices. Based
    382           *          on the cluster ID, perform the intended action.
    383           *
    384           * @param   pkt - pointer to the incoming message packet
    385           *
    386           * @return  TRUE if the 'pkt' parameter is being used and will be freed later,
    387           *          FALSE otherwise.
    388           */

   \                                 In  segment BANKED_CODE, align 1, keep-with-next
    389          void SampleApp_ProcessMSGCmd(afIncomingMSGPacket_t *pkt)
   \                     SampleApp_ProcessMSGCmd:
    390          {
   \   000000                REQUIRE ?V0
   \   000000                REQUIRE ?V1
   \   000000                REQUIRE ?V2
   \   000000   74F5         MOV       A,#-0xb
   \   000002   12....       LCALL     ?BANKED_ENTER_XDATA
   \   000005                ; Saved register size: 11
   \   000005                ; Auto size: 128
   \   000005   7480         MOV       A,#-0x80
   \   000007   12....       LCALL     ?ALLOC_XSTACK8
   \   00000A   EA           MOV       A,R2
   \   00000B   FE           MOV       R6,A
   \   00000C   EB           MOV       A,R3
   \   00000D   FF           MOV       R7,A
    391            uint8 buff[20] = {0};
    392          
    393            switch (pkt->clusterId)
   \   00000E   8A82         MOV       DPL,R2
   \   000010   F583         MOV       DPH,A
   \   000012   A3           INC       DPTR
   \   000013   A3           INC       DPTR
   \   000014   A3           INC       DPTR
   \   000015   A3           INC       DPTR
   \   000016   E0           MOVX      A,@DPTR
   \   000017   6404         XRL       A,#0x4
   \   000019   7002         JNZ       ??SampleApp_ProcessMSGCmd_0
   \   00001B   A3           INC       DPTR
   \   00001C   E0           MOVX      A,@DPTR
   \                     ??SampleApp_ProcessMSGCmd_0:
   \   00001D   6003         JZ        $+5
   \   00001F   02....       LJMP      ??SampleApp_ProcessMSGCmd_1 & 0xFFFF
    394            {
    395            // 接收终端上传的温度数据
    396            case SAMPLEAPP_P2P_CLUSTERID:
    397          #ifdef ZDO_COORDINATOR
    398            {
    399              end_temp = pkt->cmd.Data[0]; //终端温度
    400              end_hum = pkt->cmd.Data[1];  //终端湿度
    401          
    402              end_light = pkt->cmd.Data[2]; //终端亮度
    403              end_led2 = pkt->cmd.Data[3];
    404              //cor_led3 = P1_4;              //终端LED3状态
    405          
    406              //cor_led3 = !cor_led3;
    407              sprintf(buff, "T:%d", end_temp);
    408              HalLcdWriteString(buff, HAL_LCD_LINE_3); //LCD显示
    409          
    410              sprintf(buff, "H:%d", end_hum);
    411              HalLcdWriteString(buff, HAL_LCD_LINE_4); //LCD显示
    412            }
    413          #endif
    414            break;
    415          
    416            case SAMPLEAPP_PERIODIC_CLUSTERID:
    417          
    418              break;
    419            case SAMPLEAPP_CTE_CLUSTERID: //coor to end 终端进行命令解析和处理
    420              char buf[128];
                     ^
Warning[Pe1072]: a declaration cannot have a label
    421              osal_memset(buf, '\0', 128);
   \   000022                ; Setup parameters for call to function osal_memset
   \   000022   7C80         MOV       R4,#-0x80
   \   000024   7D00         MOV       R5,#0x0
   \   000026   7900         MOV       R1,#0x0
   \   000028   AA..         MOV       R2,?XSP + 0
   \   00002A   AB..         MOV       R3,?XSP + 1
   \   00002C   12....       LCALL     `??osal_memset::?relay`; Banked call to: osal_memset
    422              osal_memcpy(buf, pkt->cmd.Data, pkt->cmd.DataLength); //复制到缓冲区
   \   00002F                ; Setup parameters for call to function osal_memcpy
   \   00002F   EE           MOV       A,R6
   \   000030   2422         ADD       A,#0x22
   \   000032   F582         MOV       DPL,A
   \   000034   E4           CLR       A
   \   000035   3F           ADDC      A,R7
   \   000036   F583         MOV       DPH,A
   \   000038   E0           MOVX      A,@DPTR
   \   000039   F5..         MOV       ?V0,A
   \   00003B   A3           INC       DPTR
   \   00003C   E0           MOVX      A,@DPTR
   \   00003D   F5..         MOV       ?V1,A
   \   00003F   75..00       MOV       ?V2,#0x0
   \   000042   78..         MOV       R0,#?V0
   \   000044   12....       LCALL     ?PUSH_XSTACK_I_THREE
   \   000047   EE           MOV       A,R6
   \   000048   2420         ADD       A,#0x20
   \   00004A   F582         MOV       DPL,A
   \   00004C   E4           CLR       A
   \   00004D   3F           ADDC      A,R7
   \   00004E   F583         MOV       DPH,A
   \   000050   E0           MOVX      A,@DPTR
   \   000051   FC           MOV       R4,A
   \   000052   A3           INC       DPTR
   \   000053   E0           MOVX      A,@DPTR
   \   000054   FD           MOV       R5,A
   \   000055   7403         MOV       A,#0x3
   \   000057   12....       LCALL     ?XSTACK_DISP101_8
   \   00005A   12....       LCALL     `??osal_memcpy::?relay`; Banked call to: osal_memcpy
   \   00005D   7403         MOV       A,#0x3
   \   00005F   12....       LCALL     ?DEALLOC_XSTACK8
    423              HalUARTWrite(0, buf, osal_strlen(buf));               //串口输出提示信息
                                     ^
Warning[Pe167]: argument of type "char *" is incompatible with parameter of
          type "uint8 *"

    uint8 buff[20] = {0};
          ^
"C:\Users\OY\Desktop\ing\new\ZStack-2.5.1a\Projects\zstack\Samples\SampleApp\Source\SampleApp.c",391  Warning[Pe177]: 
          variable "buff" was declared but never referenced
   \   000062                ; Setup parameters for call to function osal_strlen
   \   000062   AA..         MOV       R2,?XSP + 0
   \   000064   AB..         MOV       R3,?XSP + 1
   \   000066   12....       LCALL     ?Subroutine1 & 0xFFFF
   \                     ??CrossCallReturnLabel_2:
   \   000069                ; Setup parameters for call to function HalUARTWrite
   \   000069   AA..         MOV       R2,?XSP + 0
   \   00006B   AB..         MOV       R3,?XSP + 1
   \   00006D   12....       LCALL     ?Subroutine0 & 0xFFFF
    424              HalUARTWrite(0, "\r\n", 2);                           //串口输出提示信息
    425          
    426              if (strstr(buf, "D2:0"))
   \                     ??CrossCallReturnLabel_0:
   \   000070                ; Setup parameters for call to function strstr
   \   000070   7C..         MOV       R4,#`?<Constant "D2:0">` & 0xff
   \   000072   7D..         MOV       R5,#(`?<Constant "D2:0">` >> 8) & 0xff
   \   000074   12....       LCALL     ?Subroutine2 & 0xFFFF
   \                     ??CrossCallReturnLabel_4:
   \   000077   6004         JZ        ??SampleApp_ProcessMSGCmd_2
    427                HalLedSet(HAL_LED_2, HAL_LED_MODE_OFF); //LED2
   \   000079                ; Setup parameters for call to function HalLedSet
   \   000079   7A00         MOV       R2,#0x0
   \   00007B   800B         SJMP      ??SampleApp_ProcessMSGCmd_3
    428              else if (strstr(buf, "D2:1"))
   \                     ??SampleApp_ProcessMSGCmd_2:
   \   00007D                ; Setup parameters for call to function strstr
   \   00007D   7C..         MOV       R4,#`?<Constant "D2:1">` & 0xff
   \   00007F   7D..         MOV       R5,#(`?<Constant "D2:1">` >> 8) & 0xff
   \   000081   12....       LCALL     ?Subroutine2 & 0xFFFF
   \                     ??CrossCallReturnLabel_5:
   \   000084   6007         JZ        ??SampleApp_ProcessMSGCmd_4
    429                HalLedSet(HAL_LED_2, HAL_LED_MODE_ON); //LED2
   \   000086                ; Setup parameters for call to function HalLedSet
   \   000086   7A01         MOV       R2,#0x1
   \                     ??SampleApp_ProcessMSGCmd_3:
   \   000088   7902         MOV       R1,#0x2
   \   00008A   12....       LCALL     `??HalLedSet::?relay`; Banked call to: HalLedSet
    430          
    431              if (strstr(buf, "B:1"))
   \                     ??SampleApp_ProcessMSGCmd_4:
   \   00008D                ; Setup parameters for call to function strstr
   \   00008D   7C..         MOV       R4,#`?<Constant "B:1">` & 0xff
   \   00008F   7D..         MOV       R5,#(`?<Constant "B:1">` >> 8) & 0xff
   \   000091   12....       LCALL     ?Subroutine2 & 0xFFFF
   \                     ??CrossCallReturnLabel_6:
   \   000094   6004         JZ        ??SampleApp_ProcessMSGCmd_5
    432                P0_4 = 0;
   \   000096   C284         CLR       0x80.4
   \   000098   800B         SJMP      ??SampleApp_ProcessMSGCmd_6
    433              else if (strstr(buf, "B:0"))
   \                     ??SampleApp_ProcessMSGCmd_5:
   \   00009A                ; Setup parameters for call to function strstr
   \   00009A   7C..         MOV       R4,#`?<Constant "B:0">` & 0xff
   \   00009C   7D..         MOV       R5,#(`?<Constant "B:0">` >> 8) & 0xff
   \   00009E   12....       LCALL     ?Subroutine2 & 0xFFFF
   \                     ??CrossCallReturnLabel_7:
   \   0000A1   6002         JZ        ??SampleApp_ProcessMSGCmd_6
    434                P0_4 = 1;
   \   0000A3   D284         SETB      0x80.4
    435          
    436              osal_memset(buf, '\0', 128);
   \                     ??SampleApp_ProcessMSGCmd_6:
   \   0000A5                ; Setup parameters for call to function osal_memset
   \   0000A5   7C80         MOV       R4,#-0x80
   \   0000A7   7D00         MOV       R5,#0x0
   \   0000A9   7900         MOV       R1,#0x0
   \   0000AB   AA..         MOV       R2,?XSP + 0
   \   0000AD   AB..         MOV       R3,?XSP + 1
   \   0000AF   12....       LCALL     `??osal_memset::?relay`; Banked call to: osal_memset
    437              break;
    438            default:
    439              break;
    440            }
    441          }
   \                     ??SampleApp_ProcessMSGCmd_1:
   \   0000B2   7480         MOV       A,#-0x80
   \   0000B4   12....       LCALL     ?DEALLOC_XSTACK8
   \   0000B7   7F03         MOV       R7,#0x3
   \   0000B9   02....       LJMP      ?BANKED_LEAVE_XDATA
   \   0000BC                REQUIRE _A_P0

   \                                 In  segment BANKED_CODE, align 1, keep-with-next
   \                     ?Subroutine2:
   \   000000   AA..         MOV       R2,?XSP + 0
   \   000002   AB..         MOV       R3,?XSP + 1
   \   000004   12....       LCALL     `??strstr::?relay`; Banked call to: strstr
   \   000007   EA           MOV       A,R2
   \   000008   4B           ORL       A,R3
   \   000009   22           RET

   \                                 In  segment BANKED_CODE, align 1, keep-with-next
   \                     ?Subroutine1:
   \   000000   12....       LCALL     `??osal_strlen::?relay`; Banked call to: osal_strlen
   \   000003   8A..         MOV       ?V0,R2
   \   000005   8B..         MOV       ?V1,R3
   \   000007   AC..         MOV       R4,?V0
   \   000009   AD..         MOV       R5,?V1
   \   00000B   22           RET

   \                                 In  segment BANKED_CODE, align 1, keep-with-next
   \                     ?Subroutine0:
   \   000000   7900         MOV       R1,#0x0
   \   000002   12....       LCALL     `??HalUARTWrite::?relay`; Banked call to: HalUARTWrite
   \   000005                ; Setup parameters for call to function HalUARTWrite
   \   000005                ; Setup parameters for call to function HalUARTWrite
   \   000005   7C02         MOV       R4,#0x2
   \   000007   7D00         MOV       R5,#0x0
   \   000009   7A..         MOV       R2,#`?<Constant "\\r\\n">` & 0xff
   \   00000B   7B..         MOV       R3,#(`?<Constant "\\r\\n">` >> 8) & 0xff
   \   00000D   7900         MOV       R1,#0x0
   \   00000F   12....       LCALL     `??HalUARTWrite::?relay`; Banked call to: HalUARTWrite
   \   000012   22           RET
    442          
    443          #ifdef ZDO_COORDINATOR
    444          
    445          //发送MQTT数据
    446          void ESP8266_SendData(char *buff, int len)
    447          {
    448            if (len == 0)
    449              return;
    450          
    451            HalUARTWrite(0, buff, len);
    452          }
    453          
    454          //接收到下发命令，或者接收到订阅的消息
    455          //topic:收到的主题
    456          //cmd::主题对应的内容
    457          void mqtt_rx(uint8 *topic, uint8 *cmd)
    458          {
    459            char *ptr_led3_on = NULL;
    460            char *ptr_led3_off = NULL;
    461          
    462            char *this_topic = NULL;
    463            //控制命令格式
    464            char uartbuf[] = {'D', '2', ':', ' ',
    465                              'B', ':', ' '};
    466            //协调器收到数据后
    467            //根据设计决定数据如何处理
    468          
    469            if (topic == NULL || cmd == NULL)
    470              return;
    471          
    472            //我们只关心内容，即只关心CMD，不处理主题
    473          
    474            ptr_led3_on = strstr((char *)cmd, "\"led\":1");
    475            ptr_led3_off = strstr((char *)cmd, "\"led\":0");
    476          
    477            if (ptr_led3_on != NULL)
    478            {
    479              P1_4 = 0; //D3亮
    480              cor_led3 = 1;
    481              uartbuf[3] = '1';
    482              uartbuf[6] = '1';
    483            }
    484            else if (ptr_led3_off != NULL)
    485            {
    486              P1_4 = 1; //D3灭
    487              cor_led3 = 0;
    488              uartbuf[3] = '0';
    489              uartbuf[6] = '0';
    490            }
    491            HalLedBlink(HAL_LED_1, 5, 50, 500);
    492          
    493            AF_DataRequest(&SampleApp_P2P_DstAddr,  //&Endevice_Add,  //目的节点网络地址和发送格式
    494                           &SampleApp_epDesc,       //目的地址端口号
    495                           SAMPLEAPP_CTE_CLUSTERID, //命令号，用于区别命令 coor to end
    496                           osal_strlen(uartbuf),    //发送数据的长度
    497                           uartbuf,                 //发送数据的缓冲区
    498                           &SampleApp_MsgID,        //发送序号,发完+1
    499                           AF_DISCV_ROUTE,
    500                           AF_DEFAULT_RADIUS);
    501          }
    502          
    503          void OneNet_publish_topic()
    504          {
    505            uint8 buff[20] = {0};
    506          
    507            sprintf(buff, "t:%d,h:%d", end_temp, end_hum);
    508          
    509            /*  发布主题为"hello_topic_public"，消息为温度和湿度 */
    510            if (0 == mqtt_publish_topic("hello_topic_public", buff))
    511            {
    512              ;
    513            }
    514          }
    515          
    516          /*********************************************************************
    517           * @fn      SampleApp_CallBack
    518           *
    519           * @brief   Send data OTA.
    520           *
    521           * @param   port - UART port.
    522           * @param   event - the UART port event flag.
    523           *
    524           * @return  none
    525           */
    526          uint32 lastReadMs = 0;
    527          void SampleApp_CallBack(uint8 port, uint8 event)
    528          {
    529            (void)port;
    530          
    531            if (0 == onenet_login_ok)
    532            {
    533              HalUARTRead(SAMPLE_APP_PORT, SampleApp_RxBuf, SAMPLE_APP_RX_MAX);
    534              SampleApp_RxLen = 0;
    535              osal_memset(SampleApp_RxBuf, 0, SAMPLE_APP_RX_MAX);
    536            }
    537            else if (1 == onenet_login_ok) //onenet注册成功 0:未注册，1：注册中　2：注册成功
    538            {
    539              //一个一个字节读
    540              SampleApp_RxLen += HalUARTRead(SAMPLE_APP_PORT, SampleApp_RxBuf + SampleApp_RxLen, 4);
    541          
    542              //判断是否是注册成功
    543              if (SampleApp_RxLen >= 4)
    544              {
    545                //        debug("rx len=%d(%x,%x,%x,%x)\r\n", SampleApp_RxLen,SampleApp_RxBuf[0],SampleApp_RxBuf[1],SampleApp_RxBuf[2],SampleApp_RxBuf[3]);
    546          
    547                //等待接入响应
    548                if (MQTT_UnPacketRecv(SampleApp_RxBuf) == MQTT_PKT_CONNACK)
    549                {
    550                  if (0 == MQTT_UnPacketConnectAck(SampleApp_RxBuf))
    551                  {
    552                    onenet_login_ok = 2; //注册成功
    553                    SampleApp_RxLen = 0;
    554          
    555                    //请求订阅主题
    556                    if (mqtt_subscribe_topic(g_mqtt_topics_set, 1) == 0)
    557                    {
    558                      //订阅成功P1_4  D3变为亮
    559                      P1_4 = 0;
    560                    }
    561                  }
    562                }
    563              }
    564          
    565              //数组满，清0
    566              if (SampleApp_RxLen >= SAMPLE_APP_RX_MAX)
    567              {
    568                SampleApp_RxLen = 0;
    569              }
    570            }
    571            else if (2 == onenet_login_ok)
    572            {
    573              //如果是注册成功，读服务器的控制命令
    574          
    575              uint32 curMs = osal_GetSystemClock();
    576          
    577              if ((curMs - lastReadMs) < 1000)
    578                return;
    579          
    580              lastReadMs = curMs;
    581              SampleApp_RxLen = 0;
    582              osal_memset(SampleApp_RxBuf, 0, SAMPLE_APP_RX_MAX + 1);
    583              SampleApp_RxLen = HalUARTRead(SAMPLE_APP_PORT, SampleApp_RxBuf, SAMPLE_APP_RX_MAX); //读长200的数据
    584          
    585              if (SampleApp_RxLen > 0)
    586              {
    587                debug("rx len=%d.\r\n", SampleApp_RxLen);
    588                //接收消息
    589                OneNet_RevPro(SampleApp_RxBuf);
    590                //debug LED3
    591                //        HalLedBlink (HAL_LED_3, 5, 50, 500); //HalLedSet
    592                SampleApp_RxLen = 0;
    593                osal_memset(SampleApp_RxBuf, 0, SAMPLE_APP_RX_MAX + 1);
    594              }
    595            }
    596          }
    597          
    598          #else
    599          #include "hal_ADC.h"
    600          /*********************************************************************
    601           * @fn      SampleApp_Send_P2P_Message
    602           *
    603           * @brief   point to point.
    604           *
    605           * @param   none
    606           *
    607           * @return  none
    608           */

   \                                 In  segment BANKED_CODE, align 1, keep-with-next
    609          void SampleApp_Send_P2P_Message(void)
   \                     SampleApp_Send_P2P_Message:
    610          {
   \   000000                REQUIRE ?V0
   \   000000                REQUIRE ?V1
   \   000000   74F6         MOV       A,#-0xa
   \   000002   12....       LCALL     ?BANKED_ENTER_XDATA
   \   000005                ; Saved register size: 10
   \   000005                ; Auto size: 25
   \   000005   74E7         MOV       A,#-0x19
   \   000007   12....       LCALL     ?ALLOC_XSTACK8
    611            uint8 str[5] = {0};
   \   00000A   90....       MOV       DPTR,#`?<Constant {0, 0, 0, 0, 0}>`
   \   00000D   AC..         MOV       R4,?XSP + 0
   \   00000F   AD..         MOV       R5,?XSP + 1
   \   000011   7405         MOV       A,#0x5
   \   000013   12....       LCALL     ?MOVE_LONG8_XDATA_XDATA
    612            uint8 strTemp[20] = {0};
   \   000016   90....       MOV       DPTR,#`?<Constant {0, 0, 0, 0, 0, 0, 0, 0, 0, 0, 0, 0`
   \   000019   7405         MOV       A,#0x5
   \   00001B   12....       LCALL     ?XSTACK_DISP102_8
   \   00001E   7414         MOV       A,#0x14
   \   000020   12....       LCALL     ?MOVE_LONG8_XDATA_XDATA
    613            int len = 0;
    614          
    615            osal_memset(str, '\0', 5);
   \   000023                ; Setup parameters for call to function osal_memset
   \   000023   7C05         MOV       R4,#0x5
   \   000025   FD           MOV       R5,A
   \   000026   F9           MOV       R1,A
   \   000027   AA..         MOV       R2,?XSP + 0
   \   000029   AB..         MOV       R3,?XSP + 1
   \   00002B   12....       LCALL     `??osal_memset::?relay`; Banked call to: osal_memset
    616            osal_memset(strTemp, '\0', 20);
   \   00002E                ; Setup parameters for call to function osal_memset
   \   00002E   7C14         MOV       R4,#0x14
   \   000030   7D00         MOV       R5,#0x0
   \   000032   7900         MOV       R1,#0x0
   \   000034   7405         MOV       A,#0x5
   \   000036   12....       LCALL     ?XSTACK_DISP101_8
   \   000039   12....       LCALL     `??osal_memset::?relay`; Banked call to: osal_memset
    617          
    618            DHT11(); //获取温湿度
   \   00003C                ; Setup parameters for call to function DHT11
   \   00003C   12....       LCALL     `??DHT11::?relay`; Banked call to: DHT11
    619          
    620            HalAdcInit();
   \   00003F                ; Setup parameters for call to function HalAdcInit
   \   00003F   12....       LCALL     `??HalAdcInit::?relay`; Banked call to: HalAdcInit
    621            uint8 end_light_temp = HalAdcRead(HAL_ADC_CHANNEL_6, HAL_ADC_RESOLUTION_8);
   \   000042                ; Setup parameters for call to function HalAdcRead
   \   000042   7A01         MOV       R2,#0x1
   \   000044   7906         MOV       R1,#0x6
   \   000046   12....       LCALL     `??HalAdcRead::?relay`; Banked call to: HalAdcRead
   \   000049   8A..         MOV       ?V0,R2
    622            uint8 end_led2_temp = 0;
    623          
    624            if (P1_1 == 1)
   \   00004B   AA90         MOV       R2,0x90+0x0
    625              end_led2_temp = 0;
    626            else
    627              end_led2_temp = 1;
    628          
    629            str[0] = wendu; //温度
   \   00004D   90....       MOV       DPTR,#wendu
   \   000050   E0           MOVX      A,@DPTR
   \   000051   85..82       MOV       DPL,?XSP + 0
   \   000054   85..83       MOV       DPH,?XSP + 1
   \   000057   F0           MOVX      @DPTR,A
    630            str[1] = shidu; //湿度
   \   000058   90....       MOV       DPTR,#shidu
   \   00005B   E0           MOVX      A,@DPTR
   \   00005C   C0E0         PUSH      A
   \   00005E   7401         MOV       A,#0x1
   \   000060   12....       LCALL     ?XSTACK_DISP0_8
   \   000063   D0E0         POP       A
   \   000065   F0           MOVX      @DPTR,A
    631          
    632            str[2] = end_light_temp; //亮度
   \   000066   7402         MOV       A,#0x2
   \   000068   12....       LCALL     ?XSTACK_DISP0_8
   \   00006B   E5..         MOV       A,?V0
   \   00006D   F0           MOVX      @DPTR,A
    633            str[3] = end_led2_temp;  //led3状态
   \   00006E   EA           MOV       A,R2
   \   00006F   A2E1         MOV       C,0xE0 /* A   */.1
   \   000071   4004         JC        ??SampleApp_Send_P2P_Message_0
   \   000073   D2F0         SETB      B.0
   \   000075   8002         SJMP      ??SampleApp_Send_P2P_Message_1
   \                     ??SampleApp_Send_P2P_Message_0:
   \   000077   C2F0         CLR       B.0
   \                     ??SampleApp_Send_P2P_Message_1:
   \   000079   A2F0         MOV       C,B.0
   \   00007B   E4           CLR       A
   \   00007C   33           RLC       A
   \   00007D   C0E0         PUSH      A
   \   00007F   7403         MOV       A,#0x3
   \   000081   12....       LCALL     ?XSTACK_DISP0_8
   \   000084   D0E0         POP       A
   \   000086   F0           MOVX      @DPTR,A
    634            len = 4;
    635          
    636            sprintf(strTemp, "T&H:%d %d", str[0], str[1]);
                           ^
Warning[Pe167]: argument of type "uint8 *" is incompatible with parameter of
          type "char *"
   \   000087                ; Setup parameters for call to function sprintf
   \   000087   7401         MOV       A,#0x1
   \   000089   12....       LCALL     ?XSTACK_DISP0_8
   \   00008C   E0           MOVX      A,@DPTR
   \   00008D   F5..         MOV       ?V0,A
   \   00008F   75..00       MOV       ?V1,#0x0
   \   000092   78..         MOV       R0,#?V0
   \   000094   12....       LCALL     ?PUSH_XSTACK_I_TWO
   \   000097   7402         MOV       A,#0x2
   \   000099   12....       LCALL     ?XSTACK_DISP0_8
   \   00009C   E0           MOVX      A,@DPTR
   \   00009D   F5..         MOV       ?V0,A
   \   00009F   78..         MOV       R0,#?V0
   \   0000A1   12....       LCALL     ?PUSH_XSTACK_I_TWO
   \   0000A4   7C..         MOV       R4,#`?<Constant "T&H:%d %d">` & 0xff
   \   0000A6   7D..         MOV       R5,#(`?<Constant "T&H:%d %d">` >> 8) & 0xff
   \   0000A8   7409         MOV       A,#0x9
   \   0000AA   12....       LCALL     ?XSTACK_DISP101_8
   \   0000AD   12....       LCALL     `??sprintf::?relay`; Banked call to: sprintf
   \   0000B0   7404         MOV       A,#0x4
   \   0000B2   12....       LCALL     ?DEALLOC_XSTACK8
    637            HalLcdWriteString(strTemp, HAL_LCD_LINE_3); //LCD显示
                                     ^
Warning[Pe167]: argument of type "uint8 *" is incompatible with parameter of
          type "char *"
   \   0000B5                ; Setup parameters for call to function HalLcdWriteString
   \   0000B5   7903         MOV       R1,#0x3
   \   0000B7   7405         MOV       A,#0x5
   \   0000B9   12....       LCALL     ?XSTACK_DISP101_8
   \   0000BC   12....       LCALL     `??HalLcdWriteString::?relay`; Banked call to: HalLcdWriteString
    638          
    639            HalUARTWrite(0, strTemp, osal_strlen(strTemp)); //串口输出提示信息
                                                        ^
Warning[Pe167]: argument of type "uint8 *" is incompatible with parameter of
          type "char *"

  static uint16 SampleApp_RxLen = 0;
                ^
"C:\Users\OY\Desktop\ing\new\ZStack-2.5.1a\Projects\zstack\Samples\SampleApp\Source\SampleApp.c",106  Warning[Pe177]: 
          variable "SampleApp_RxLen" was declared but never referenced

  static void OneNet_publish_topic();
              ^
"C:\Users\OY\Desktop\ing\new\ZStack-2.5.1a\Projects\zstack\Samples\SampleApp\Source\SampleApp.c",129  Warning[Pe177]: 
          function "OneNet_publish_topic" was declared but never referenced
   \   0000BF                ; Setup parameters for call to function osal_strlen
   \   0000BF   7405         MOV       A,#0x5
   \   0000C1   12....       LCALL     ?XSTACK_DISP101_8
   \   0000C4   12....       LCALL     ?Subroutine1 & 0xFFFF
   \                     ??CrossCallReturnLabel_3:
   \   0000C7                ; Setup parameters for call to function HalUARTWrite
   \   0000C7   7405         MOV       A,#0x5
   \   0000C9   12....       LCALL     ?XSTACK_DISP101_8
   \   0000CC   12....       LCALL     ?Subroutine0 & 0xFFFF
    640            HalUARTWrite(0, "\r\n", 2);
    641          
    642            //无线发送到协调器
    643            if (AF_DataRequest(&SampleApp_P2P_DstAddr, &SampleApp_epDesc,
    644                               SAMPLEAPP_P2P_CLUSTERID,
    645                               len,
    646                               str,
    647                               &SampleApp_MsgID,
    648                               AF_DISCV_ROUTE,
    649                               AF_DEFAULT_RADIUS) == afStatus_SUCCESS)
   \                     ??CrossCallReturnLabel_1:
   \   0000CF                ; Setup parameters for call to function AF_DataRequest
   \   0000CF   75..1E       MOV       ?V0,#0x1e
   \   0000D2   78..         MOV       R0,#?V0
   \   0000D4   12....       LCALL     ?PUSH_XSTACK_I_ONE
   \   0000D7   75....       MOV       ?V0,#SampleApp_MsgID & 0xff
   \   0000DA   75....       MOV       ?V1,#(SampleApp_MsgID >> 8) & 0xff
   \   0000DD   78..         MOV       R0,#?V0
   \   0000DF   12....       LCALL     ?PUSH_XSTACK_I_TWO
   \   0000E2   7403         MOV       A,#0x3
   \   0000E4   12....       LCALL     ?XSTACK_DISP100_8
   \   0000E7   88..         MOV       ?V0,R0
   \   0000E9   89..         MOV       ?V1,R1
   \   0000EB   78..         MOV       R0,#?V0
   \   0000ED   12....       LCALL     ?PUSH_XSTACK_I_TWO
   \   0000F0   75..04       MOV       ?V0,#0x4
   \   0000F3   75..00       MOV       ?V1,#0x0
   \   0000F6   78..         MOV       R0,#?V0
   \   0000F8   12....       LCALL     ?PUSH_XSTACK_I_TWO
   \   0000FB   75..01       MOV       ?V0,#0x1
   \   0000FE   78..         MOV       R0,#?V0
   \   000100   12....       LCALL     ?PUSH_XSTACK_I_TWO
   \   000103   7920         MOV       R1,#0x20
   \   000105   7C..         MOV       R4,#SampleApp_epDesc & 0xff
   \   000107   7D..         MOV       R5,#(SampleApp_epDesc >> 8) & 0xff
   \   000109   7A..         MOV       R2,#SampleApp_P2P_DstAddr & 0xff
   \   00010B   7B..         MOV       R3,#(SampleApp_P2P_DstAddr >> 8) & 0xff
   \   00010D   12....       LCALL     `??AF_DataRequest::?relay`; Banked call to: AF_DataRequest
   \   000110   7409         MOV       A,#0x9
   \   000112   12....       LCALL     ?DEALLOC_XSTACK8
    650            {
    651            }
    652            else
    653            {
    654              // Error occurred in request to send.
    655            }
    656          }
   \   000115   7419         MOV       A,#0x19
   \   000117   12....       LCALL     ?DEALLOC_XSTACK8
   \   00011A   7F02         MOV       R7,#0x2
   \   00011C   02....       LJMP      ?BANKED_LEAVE_XDATA
   \   00011F                REQUIRE _A_P1
    657          

   \                                 In  segment BANKED_CODE, align 1, keep-with-next
    658          void SampleApp_CallBack(uint8 port, uint8 event)
   \                     SampleApp_CallBack:
    659          {
   \   000000   C082         PUSH      DPL
   \   000002   C083         PUSH      DPH
   \   000004                ; Saved register size: 2
   \   000004                ; Auto size: 0
    660            (void)port;
    661          
    662            HalUARTRead(SAMPLE_APP_PORT, SampleApp_RxBuf, 1);
   \   000004                ; Setup parameters for call to function HalUARTRead
   \   000004   7C01         MOV       R4,#0x1
   \   000006   7D00         MOV       R5,#0x0
   \   000008   7A..         MOV       R2,#SampleApp_RxBuf & 0xff
   \   00000A   7B..         MOV       R3,#(SampleApp_RxBuf >> 8) & 0xff
   \   00000C   7900         MOV       R1,#0x0
   \   00000E   12....       LCALL     `??HalUARTRead::?relay`; Banked call to: HalUARTRead
    663          }
   \   000011   D083         POP       DPH
   \   000013   D082         POP       DPL
   \   000015   02....       LJMP      ?BRET
    664          
    665          #endif
    666          
    667          //调试信息输出

   \                                 In  segment BANKED_CODE, align 1, keep-with-next
    668          void debug(uint8 *msg, ...)
   \                     debug:
    669          {
   \   000000                ; Saved register size: 0
   \   000000                ; Auto size: 0
    670          #if 0
    671              uint8 len=0;
    672              char info[200] = {0};
    673              va_list args;
    674          
    675              if(msg==NULL) return;
    676          
    677              va_start(args, msg);
    678              vsprintf(info, (const char*)msg, args);//从头插入到info中
    679              va_end(args);
    680              
    681              
    682              len=osal_strlen((char *)info);
    683              if(len==0) return;
    684              
    685              
    686          
    687              HalUARTWrite(1,info, len);//串口1发送
    688              osal_memset(info,'\0',200);
    689          //    HAL_UART_PORT_0
    690          #endif
    691          }
   \   000000   02....       LJMP      ?BRET

   \                                 In  segment XDATA_ID, align 1, keep-with-next
   \                     `?<Initializer for SampleApp_epDesc>`:
   \   000000   0B           DB 11
   \   000001   ....         DW SampleApp_TaskID
   \   000003   ....         DW SampleApp_SimpleDesc
   \   000005   00           DB 0

   \                                 In  segment XDATA_ROM_C, align 1
   \                     `?<Constant "\\r\\n">`:
   \   000000   0D0A00       DB "\015\012"

   \                                 In  segment XDATA_ROM_C, align 1
   \                     `?<Constant "D2:0">`:
   \   000000   44323A30     DB "D2:0"
   \            00      

   \                                 In  segment XDATA_ROM_C, align 1
   \                     `?<Constant "D2:1">`:
   \   000000   44323A31     DB "D2:1"
   \            00      

   \                                 In  segment XDATA_ROM_C, align 1
   \                     `?<Constant "B:1">`:
   \   000000   423A3100     DB "B:1"

   \                                 In  segment XDATA_ROM_C, align 1
   \                     `?<Constant "B:0">`:
   \   000000   423A3000     DB "B:0"

   \                                 In  segment XDATA_ROM_C, align 1
   \                     `?<Constant {0, 0, 0, 0, 0}>`:
   \   000000   00           DB 0
   \   000001   00           DB 0
   \   000002   00           DB 0
   \   000003   00           DB 0
   \   000004   00           DB 0

   \                                 In  segment XDATA_ROM_C, align 1
   \                     `?<Constant {0, 0, 0, 0, 0, 0, 0, 0, 0, 0, 0, 0`:
   \   000000   00           DB 0
   \   000001   00           DB 0
   \   000002   00           DB 0
   \   000003   00           DB 0
   \   000004   00           DB 0
   \   000005   00           DB 0
   \   000006   00           DB 0
   \   000007   00           DB 0
   \   000008   00           DB 0
   \   000009   00           DB 0
   \   00000A   00           DB 0
   \   00000B   00           DB 0
   \   00000C   00           DB 0
   \   00000D   00           DB 0
   \   00000E   00           DB 0
   \   00000F   00           DB 0
   \   000010   00           DB 0
   \   000011   00           DB 0
   \   000012   00           DB 0
   \   000013   00           DB 0

   \                                 In  segment XDATA_ROM_C, align 1
   \                     `?<Constant "T&H:%d %d">`:
   \   000000   5426483A     DB "T&H:%d %d"
   \            25642025
   \            6400    

   Maximum stack usage in bytes:

   ISTACK XSTACK Function
   ------ ------ --------
      2      0   SampleApp_CallBack
        2      0   -> HalUARTRead
      0      0   SampleApp_HandleKeys
      0      9   SampleApp_Init
        0      9   -> MT_UartInit
        0      9   -> MT_UartRegisterTaskID
        0      9   -> RegisterForKeys
        0      9   -> afRegister
      0     12   SampleApp_ProcessEvent
        0     12   -> SampleApp_ProcessMSGCmd
        0     12   -> SampleApp_Send_P2P_Message
        0     12   -> osal_msg_deallocate
        0     12   -> osal_msg_receive
        0     12   -> osal_rand
        0     12   -> osal_start_timerEx
      0    154   SampleApp_ProcessMSGCmd
        0    139   -> HalLedSet
        0    139   -> HalUARTWrite
        0    142   -> osal_memcpy
        0    139   -> osal_memset
        0    139   -> osal_strlen
        0    139   -> strstr
      1     56   SampleApp_Send_P2P_Message
        0     44   -> AF_DataRequest
        0     35   -> DHT11
        0     35   -> HalAdcInit
        0     35   -> HalAdcRead
        0     35   -> HalLcdWriteString
        0     35   -> HalUARTWrite
        0     35   -> osal_memset
        0     35   -> osal_strlen
        0     39   -> sprintf
      0      0   debug


   Segment part sizes:

   Bytes  Function/Label
   -----  --------------
       4  ?<Constant "B:0">
       4  ?<Constant "B:1">
       5  ?<Constant "D2:0">
       5  ?<Constant "D2:1">
      10  ?<Constant "T&H:%d %d">
       3  ?<Constant "\r\n">
      20  ?<Constant {0, 0, 0, 0, 0, 0, 0, 0, 0, 0, 0, 0
       5  ?<Constant {0, 0, 0, 0, 0}>
       6  ?<Initializer for SampleApp_epDesc>
      19  ?Subroutine0
      12  ?Subroutine1
      10  ?Subroutine2
      24  SampleApp_CallBack
       8  SampleApp_ClusterList
       3  SampleApp_HandleKeys
      61  SampleApp_Init
       1  SampleApp_MsgID
       1  SampleApp_NwkState
      12  SampleApp_P2P_DstAddr
     147  SampleApp_ProcessEvent
     188  SampleApp_ProcessMSGCmd
     201  SampleApp_RxBuf
     287  SampleApp_Send_P2P_Message
      12  SampleApp_SimpleDesc
       1  SampleApp_TaskID
       6  SampleApp_epDesc
       1  _A_P0
       1  _A_P1
       1  cor_led3
       3  debug
       1  end_hum
       1  end_led2
       1  end_light
       1  end_temp
       1  onenet_login_ok
      42  -- Other

 
 754 bytes in segment BANKED_CODE
  42 bytes in segment BANK_RELAYS
   2 bytes in segment SFR_AN
   6 bytes in segment XDATA_I
   6 bytes in segment XDATA_ID
  76 bytes in segment XDATA_ROM_C
 222 bytes in segment XDATA_Z
 
  48 bytes of CODE     memory
  76 bytes of CONST    memory
   0 bytes of DATA     memory (+ 2 bytes shared)
 754 bytes of HUGECODE memory
 228 bytes of XDATA    memory

Errors: none
Warnings: 10
