///////////////////////////////////////////////////////////////////////////////
//
// IAR C/C++ Compiler V10.30.1.6000 for 8051              04/Sep/2021  08:56:57
// Copyright 2004-2018 IAR Systems AB.
// PC-locked license - IAR Embedded Workbench for 8051
//
//    Core               =  plain
//    Code model         =  banked
//    Data model         =  large
//    Calling convention =  xdata reentrant
//    Constant location  =  data_rom
//    Dptr setup         =  1,16
//                          
//    Source file        =  
//        C:\Users\OY\Desktop\ZStack-2.5.1a\Projects\zstack\Samples\SampleApp\Source\SampleApp.c
//    Command line       =  
//        -f C:\Users\OY\AppData\Local\Temp\EWDFEC.tmp
//        (C:\Users\OY\Desktop\ZStack-2.5.1a\Projects\zstack\Samples\SampleApp\Source\SampleApp.c
//        -D NWK_AUTO_POLL -D ZTOOL_P1 -D MT_TASK -D MT_SYS_FUNC -D MT_ZDO_FUNC
//        -D LCD_SUPPORTED=DEBUG -lC
//        C:\Users\OY\Desktop\ZStack-2.5.1a\Projects\zstack\Samples\SampleApp\CC2530DB\EndDeviceEB\List
//        -lA
//        C:\Users\OY\Desktop\ZStack-2.5.1a\Projects\zstack\Samples\SampleApp\CC2530DB\EndDeviceEB\List
//        --diag_suppress Pe001,Pa010 -o
//        C:\Users\OY\Desktop\ZStack-2.5.1a\Projects\zstack\Samples\SampleApp\CC2530DB\EndDeviceEB\Obj
//        -e --debug --core=plain --dptr=16,1 --data_model=large
//        --code_model=banked --calling_convention=xdata_reentrant
//        --place_constants=data_rom --nr_virtual_regs 8 -f
//        C:\Users\OY\Desktop\ZStack-2.5.1a\Projects\zstack\Samples\SampleApp\CC2530DB\..\..\..\Tools\CC2530DB\f8wEndev.cfg
//        (-DCPU32MHZ -DROOT=__near_func -DMAC_CFG_TX_DATA_MAX=3
//        -DMAC_CFG_TX_MAX=6 -DMAC_CFG_RX_MAX=3) -f
//        C:\Users\OY\Desktop\ZStack-2.5.1a\Projects\zstack\Samples\SampleApp\CC2530DB\..\..\..\Tools\CC2530DB\f8wConfig.cfg
//        (-DZIGBEEPRO -DSECURE=0 -DZG_SECURE_DYNAMIC=0 -DREFLECTOR
//        -DDEFAULT_CHANLIST=0x00000800 -DZDAPP_CONFIG_PAN_ID=0xFFF1
//        -DNWK_START_DELAY=100 -DEXTENDED_JOINING_RANDOM_MASK=0x007F
//        -DBEACON_REQUEST_DELAY=100 -DBEACON_REQ_DELAY_MASK=0x00FF
//        -DLINK_STATUS_JITTER_MASK=0x007F -DROUTE_EXPIRY_TIME=30
//        -DAPSC_ACK_WAIT_DURATION_POLLED=3000 -DNWK_INDIRECT_MSG_TIMEOUT=7
//        -DMAX_RREQ_ENTRIES=8 -DAPSC_MAX_FRAME_RETRIES=3
//        -DNWK_MAX_DATA_RETRIES=2 -DMAX_POLL_FAILURE_RETRIES=2 -DMAX_BCAST=9
//        -DAPS_MAX_GROUPS=16 -DMAX_RTG_ENTRIES=40 -DNWK_MAX_BINDING_ENTRIES=4
//        -DMAX_BINDING_CLUSTER_IDS=4 "-DDEFAULT_KEY={0x01, 0x03, 0x05, 0x07,
//        0x09, 0x0B, 0x0D, 0x0F, 0x00, 0x02, 0x04, 0x06, 0x08, 0x0A, 0x0C,
//        0x0D}" -DMAC_MAX_FRAME_SIZE=116 -DZDNWKMGR_MIN_TRANSMISSIONS=20
//        "-DCONST=const __code" -DGENERIC=__generic -DRFD_RCVC_ALWAYS_ON=FALSE
//        -DPOLL_RATE=1000 -DQUEUED_POLL_RATE=100 -DRESPONSE_POLL_RATE=100
//        -DREJOIN_POLL_RATE=440) -I
//        C:\Users\OY\Desktop\ZStack-2.5.1a\Projects\zstack\Samples\SampleApp\CC2530DB\
//        -I
//        C:\Users\OY\Desktop\ZStack-2.5.1a\Projects\zstack\Samples\SampleApp\CC2530DB\..\Source\
//        -I
//        C:\Users\OY\Desktop\ZStack-2.5.1a\Projects\zstack\Samples\SampleApp\CC2530DB\..\..\..\ZMain\TI2530DB\
//        -I
//        C:\Users\OY\Desktop\ZStack-2.5.1a\Projects\zstack\Samples\SampleApp\CC2530DB\..\..\..\..\..\Components\hal\include\
//        -I
//        C:\Users\OY\Desktop\ZStack-2.5.1a\Projects\zstack\Samples\SampleApp\CC2530DB\..\..\..\..\..\Components\hal\target\CC2530EB\
//        -I
//        C:\Users\OY\Desktop\ZStack-2.5.1a\Projects\zstack\Samples\SampleApp\CC2530DB\..\..\..\..\..\Components\mac\include\
//        -I
//        C:\Users\OY\Desktop\ZStack-2.5.1a\Projects\zstack\Samples\SampleApp\CC2530DB\..\..\..\..\..\Components\mac\high_level\
//        -I
//        C:\Users\OY\Desktop\ZStack-2.5.1a\Projects\zstack\Samples\SampleApp\CC2530DB\..\..\..\..\..\Components\mac\low_level\srf04\
//        -I
//        C:\Users\OY\Desktop\ZStack-2.5.1a\Projects\zstack\Samples\SampleApp\CC2530DB\..\..\..\..\..\Components\mac\low_level\srf04\single_chip\
//        -I
//        C:\Users\OY\Desktop\ZStack-2.5.1a\Projects\zstack\Samples\SampleApp\CC2530DB\..\..\..\..\..\Components\mt\
//        -I
//        C:\Users\OY\Desktop\ZStack-2.5.1a\Projects\zstack\Samples\SampleApp\CC2530DB\..\..\..\..\..\Components\osal\include\
//        -I
//        C:\Users\OY\Desktop\ZStack-2.5.1a\Projects\zstack\Samples\SampleApp\CC2530DB\..\..\..\..\..\Components\services\saddr\
//        -I
//        C:\Users\OY\Desktop\ZStack-2.5.1a\Projects\zstack\Samples\SampleApp\CC2530DB\..\..\..\..\..\Components\services\sdata\
//        -I
//        C:\Users\OY\Desktop\ZStack-2.5.1a\Projects\zstack\Samples\SampleApp\CC2530DB\..\..\..\..\..\Components\stack\af\
//        -I
//        C:\Users\OY\Desktop\ZStack-2.5.1a\Projects\zstack\Samples\SampleApp\CC2530DB\..\..\..\..\..\Components\stack\nwk\
//        -I
//        C:\Users\OY\Desktop\ZStack-2.5.1a\Projects\zstack\Samples\SampleApp\CC2530DB\..\..\..\..\..\Components\stack\sapi\
//        -I
//        C:\Users\OY\Desktop\ZStack-2.5.1a\Projects\zstack\Samples\SampleApp\CC2530DB\..\..\..\..\..\Components\stack\sec\
//        -I
//        C:\Users\OY\Desktop\ZStack-2.5.1a\Projects\zstack\Samples\SampleApp\CC2530DB\..\..\..\..\..\Components\stack\sys\
//        -I
//        C:\Users\OY\Desktop\ZStack-2.5.1a\Projects\zstack\Samples\SampleApp\CC2530DB\..\..\..\..\..\Components\stack\zdo\
//        -I
//        C:\Users\OY\Desktop\ZStack-2.5.1a\Projects\zstack\Samples\SampleApp\CC2530DB\..\..\..\..\..\Components\zmac\
//        -I
//        C:\Users\OY\Desktop\ZStack-2.5.1a\Projects\zstack\Samples\SampleApp\CC2530DB\..\..\..\..\..\Components\zmac\f8w\
//        -Ohz --no_code_motion)
//    Locale             =  Chinese (Simplified)_CHN.936
//    List file          =  
//        C:\Users\OY\Desktop\ZStack-2.5.1a\Projects\zstack\Samples\SampleApp\CC2530DB\EndDeviceEB\List\SampleApp.s51
//
///////////////////////////////////////////////////////////////////////////////

        NAME SampleApp

        RTMODEL "__SystemLibrary", "CLib"
        RTMODEL "__calling_convention", "xdata_reentrant"
        RTMODEL "__code_model", "banked"
        RTMODEL "__core", "plain"
        RTMODEL "__data_model", "large"
        RTMODEL "__dptr_size", "16"
        RTMODEL "__extended_stack", "disabled"
        RTMODEL "__iar_require _formatted_write", ""
        RTMODEL "__location_for_constants", "data"
        RTMODEL "__number_of_dptrs", "1"
        RTMODEL "__register_banks", "*"
        RTMODEL "__rt_version", "1"

        RSEG DOVERLAY:DATA:NOROOT(0)
        RSEG IOVERLAY:IDATA:NOROOT(0)
        RSEG ISTACK:IDATA:NOROOT(0)
        RSEG PSTACK:XDATA:NOROOT(0)
        RSEG XSTACK:XDATA:NOROOT(0)

        EXTERN ?V0
        EXTERN ?V1
        EXTERN ?V2
        EXTERN ?V3
        EXTERN ?ALLOC_XSTACK8
        EXTERN ?BANKED_ENTER_XDATA
        EXTERN ?BANKED_LEAVE_XDATA
        EXTERN ?BDISPATCH
        EXTERN ?BRET
        EXTERN ?DEALLOC_XSTACK8
        EXTERN ?MOVE_LONG8_XDATA_XDATA
        EXTERN ?PUSH_XSTACK_I_ONE
        EXTERN ?PUSH_XSTACK_I_TWO
        EXTERN ?XSP
        EXTERN ?XSTACK_DISP0_8
        EXTERN ?XSTACK_DISP100_8
        EXTERN ?XSTACK_DISP101_8
        EXTERN ?XSTACK_DISP102_8
        EXTERN __INIT_XDATA_I
        EXTERN __INIT_XDATA_Z

        PUBLIC `??SampleApp_CallBack::?relay`
        FUNCTION `??SampleApp_CallBack::?relay`,0203H
        PUBLIC `??SampleApp_HandleKeys::?relay`
        FUNCTION `??SampleApp_HandleKeys::?relay`,0203H
        PUBLIC `??SampleApp_Init::?relay`
        FUNCTION `??SampleApp_Init::?relay`,0203H
        PUBLIC `??SampleApp_ProcessEvent::?relay`
        FUNCTION `??SampleApp_ProcessEvent::?relay`,0203H
        FUNCTION `??SampleApp_Send_P2P_Message::?relay`,0203H
        PUBLIC `??debug::?relay`
        FUNCTION `??debug::?relay`,0203H
        PUBLIC SampleApp_CallBack
        FUNCTION SampleApp_CallBack,021203H
        ARGFRAME XSTACK, 0, STACK
        LOCFRAME ISTACK, 2, STACK
        PUBLIC SampleApp_ClusterList
        PUBLIC SampleApp_HandleKeys
        FUNCTION SampleApp_HandleKeys,0203H
        ARGFRAME XSTACK, 0, STACK
        PUBLIC SampleApp_Init
        FUNCTION SampleApp_Init,021203H
        ARGFRAME XSTACK, 0, STACK
        LOCFRAME XSTACK, 9, STACK
        PUBLIC SampleApp_NwkState
        PUBLIC SampleApp_P2P_DstAddr
        PUBLIC SampleApp_ProcessEvent
        FUNCTION SampleApp_ProcessEvent,0a1203H
        ARGFRAME XSTACK, 0, STACK
        LOCFRAME XSTACK, 12, STACK
        FUNCTION SampleApp_Send_P2P_Message,0a1203H
        ARGFRAME XSTACK, 12, STACK
        ARGFRAME IOVERLAY, 0, STATIC
        ARGFRAME DOVERLAY, 0, STATIC
        LOCFRAME ISTACK, 1, STACK
        LOCFRAME XSTACK, 44, STACK
        PUBLIC SampleApp_SimpleDesc
        PUBLIC SampleApp_TaskID
        PUBLIC SampleApp_epDesc
        PUBWEAK _A_P1
        PUBLIC cor_led3
        PUBLIC debug
        FUNCTION debug,0203H
        ARGFRAME XSTACK, 0, STACK
        PUBLIC end_hum
        PUBLIC end_led3
        PUBLIC end_light
        PUBLIC end_temp
        PUBLIC onenet_login_ok
        
          CFI Names cfiNames0
          CFI StackFrame CFA_SP SP IDATA
          CFI StackFrame CFA_PSP16 PSP16 XDATA
          CFI StackFrame CFA_XSP16 XSP16 XDATA
          CFI StaticOverlayFrame CFA_IOVERLAY IOVERLAY
          CFI StaticOverlayFrame CFA_DOVERLAY DOVERLAY
          CFI Resource `PSW.CY`:1, `B.BR0`:1, `B.BR1`:1, `B.BR2`:1, `B.BR3`:1
          CFI Resource `B.BR4`:1, `B.BR5`:1, `B.BR6`:1, `B.BR7`:1, `VB.BR8`:1
          CFI Resource `VB.BR9`:1, `VB.BR10`:1, `VB.BR11`:1, `VB.BR12`:1
          CFI Resource `VB.BR13`:1, `VB.BR14`:1, `VB.BR15`:1, VB:8, B:8, A:8
          CFI Resource PSW:8, DPL0:8, DPH0:8, R0:8, R1:8, R2:8, R3:8, R4:8, R5:8
          CFI Resource R6:8, R7:8, V0:8, V1:8, V2:8, V3:8, V4:8, V5:8, V6:8, V7:8
          CFI Resource SP:8, PSPH:8, PSPL:8, PSP16:16, XSPH:8, XSPL:8, XSP16:16
          CFI VirtualResource ?RET:24
          CFI Resource ?BRET_EXT:8
          CFI VirtualResource ?RET_HIGH:8, ?RET_LOW:8
          CFI ResourceParts PSP16 PSPH, PSPL
          CFI ResourceParts XSP16 XSPH, XSPL
          CFI ResourceParts ?RET ?BRET_EXT, ?RET_HIGH, ?RET_LOW
          CFI EndNames cfiNames0
        
          CFI Common cfiCommon0 Using cfiNames0
          CFI CodeAlign 1
          CFI DataAlign -1
          CFI ReturnAddress ?RET CODE
          CFI CFA_DOVERLAY Used
          CFI CFA_IOVERLAY Used
          CFI CFA_SP SP+-3
          CFI CFA_PSP16 PSP16+0
          CFI CFA_XSP16 XSP16+0
          CFI `PSW.CY` SameValue
          CFI `B.BR0` SameValue
          CFI `B.BR1` SameValue
          CFI `B.BR2` SameValue
          CFI `B.BR3` SameValue
          CFI `B.BR4` SameValue
          CFI `B.BR5` SameValue
          CFI `B.BR6` SameValue
          CFI `B.BR7` SameValue
          CFI `VB.BR8` SameValue
          CFI `VB.BR9` SameValue
          CFI `VB.BR10` SameValue
          CFI `VB.BR11` SameValue
          CFI `VB.BR12` SameValue
          CFI `VB.BR13` SameValue
          CFI `VB.BR14` SameValue
          CFI `VB.BR15` SameValue
          CFI VB SameValue
          CFI B Undefined
          CFI A Undefined
          CFI PSW SameValue
          CFI DPL0 SameValue
          CFI DPH0 SameValue
          CFI R0 Undefined
          CFI R1 Undefined
          CFI R2 Undefined
          CFI R3 Undefined
          CFI R4 Undefined
          CFI R5 Undefined
          CFI R6 SameValue
          CFI R7 SameValue
          CFI V0 SameValue
          CFI V1 SameValue
          CFI V2 SameValue
          CFI V3 SameValue
          CFI V4 SameValue
          CFI V5 SameValue
          CFI V6 SameValue
          CFI V7 SameValue
          CFI PSPH Undefined
          CFI PSPL Undefined
          CFI XSPH Undefined
          CFI XSPL Undefined
          CFI ?RET Concat
          CFI ?BRET_EXT Frame(CFA_SP, 3)
          CFI ?RET_HIGH Frame(CFA_SP, 2)
          CFI ?RET_LOW Frame(CFA_SP, 1)
          CFI EndCommon cfiCommon0
        
AF_DataRequest      SYMBOL "AF_DataRequest"
`??AF_DataRequest::?relay` SYMBOL "?relay", AF_DataRequest
DHT11               SYMBOL "DHT11"
`??DHT11::?relay`   SYMBOL "?relay", DHT11
HalAdcInit          SYMBOL "HalAdcInit"
`??HalAdcInit::?relay` SYMBOL "?relay", HalAdcInit
HalAdcRead          SYMBOL "HalAdcRead"
`??HalAdcRead::?relay` SYMBOL "?relay", HalAdcRead
HalLcdWriteString   SYMBOL "HalLcdWriteString"
`??HalLcdWriteString::?relay` SYMBOL "?relay", HalLcdWriteString
HalUARTRead         SYMBOL "HalUARTRead"
`??HalUARTRead::?relay` SYMBOL "?relay", HalUARTRead
HalUARTWrite        SYMBOL "HalUARTWrite"
`??HalUARTWrite::?relay` SYMBOL "?relay", HalUARTWrite
MT_UartInit         SYMBOL "MT_UartInit"
`??MT_UartInit::?relay` SYMBOL "?relay", MT_UartInit
MT_UartRegisterTaskID SYMBOL "MT_UartRegisterTaskID"
`??MT_UartRegisterTaskID::?relay` SYMBOL "?relay", MT_UartRegisterTaskID
RegisterForKeys     SYMBOL "RegisterForKeys"
`??RegisterForKeys::?relay` SYMBOL "?relay", RegisterForKeys
afRegister          SYMBOL "afRegister"
`??afRegister::?relay` SYMBOL "?relay", afRegister
osal_memset         SYMBOL "osal_memset"
`??osal_memset::?relay` SYMBOL "?relay", osal_memset
osal_msg_deallocate SYMBOL "osal_msg_deallocate"
`??osal_msg_deallocate::?relay` SYMBOL "?relay", osal_msg_deallocate
osal_msg_receive    SYMBOL "osal_msg_receive"
`??osal_msg_receive::?relay` SYMBOL "?relay", osal_msg_receive
osal_rand           SYMBOL "osal_rand"
`??osal_rand::?relay` SYMBOL "?relay", osal_rand
osal_start_timerEx  SYMBOL "osal_start_timerEx"
`??osal_start_timerEx::?relay` SYMBOL "?relay", osal_start_timerEx
osal_strlen         SYMBOL "osal_strlen"
`??osal_strlen::?relay` SYMBOL "?relay", osal_strlen
sprintf             SYMBOL "sprintf"
`??sprintf::?relay` SYMBOL "?relay", sprintf
SampleApp_CallBack  SYMBOL "SampleApp_CallBack"
`??SampleApp_CallBack::?relay` SYMBOL "?relay", SampleApp_CallBack
SampleApp_HandleKeys SYMBOL "SampleApp_HandleKeys"
`??SampleApp_HandleKeys::?relay` SYMBOL "?relay", SampleApp_HandleKeys
SampleApp_Init      SYMBOL "SampleApp_Init"
`??SampleApp_Init::?relay` SYMBOL "?relay", SampleApp_Init
SampleApp_ProcessEvent SYMBOL "SampleApp_ProcessEvent"
`??SampleApp_ProcessEvent::?relay` SYMBOL "?relay", SampleApp_ProcessEvent
debug               SYMBOL "debug"
`??debug::?relay`   SYMBOL "?relay", debug

        EXTERN `??AF_DataRequest::?relay`
        FUNCTION `??AF_DataRequest::?relay`,00H
        EXTERN `??DHT11::?relay`
        FUNCTION `??DHT11::?relay`,00H
        EXTERN `??HalAdcInit::?relay`
        FUNCTION `??HalAdcInit::?relay`,00H
        EXTERN `??HalAdcRead::?relay`
        FUNCTION `??HalAdcRead::?relay`,00H
        EXTERN `??HalLcdWriteString::?relay`
        FUNCTION `??HalLcdWriteString::?relay`,00H
        EXTERN `??HalUARTRead::?relay`
        FUNCTION `??HalUARTRead::?relay`,00H
        EXTERN `??HalUARTWrite::?relay`
        FUNCTION `??HalUARTWrite::?relay`,00H
        EXTERN `??MT_UartInit::?relay`
        FUNCTION `??MT_UartInit::?relay`,00H
        EXTERN `??MT_UartRegisterTaskID::?relay`
        FUNCTION `??MT_UartRegisterTaskID::?relay`,00H
        EXTERN `??RegisterForKeys::?relay`
        FUNCTION `??RegisterForKeys::?relay`,00H
        EXTERN `??afRegister::?relay`
        FUNCTION `??afRegister::?relay`,00H
        EXTERN `??osal_memset::?relay`
        FUNCTION `??osal_memset::?relay`,00H
        EXTERN `??osal_msg_deallocate::?relay`
        FUNCTION `??osal_msg_deallocate::?relay`,00H
        EXTERN `??osal_msg_receive::?relay`
        FUNCTION `??osal_msg_receive::?relay`,00H
        EXTERN `??osal_rand::?relay`
        FUNCTION `??osal_rand::?relay`,00H
        EXTERN `??osal_start_timerEx::?relay`
        FUNCTION `??osal_start_timerEx::?relay`,00H
        EXTERN `??osal_strlen::?relay`
        FUNCTION `??osal_strlen::?relay`,00H
        EXTERN `??sprintf::?relay`
        FUNCTION `??sprintf::?relay`,00H
        EXTERN AF_DataRequest
        FUNCTION AF_DataRequest,0202H
        ARGFRAME ISTACK, 0, STACK
        ARGFRAME PSTACK, 0, STACK
        ARGFRAME XSTACK, 44, STACK
        ARGFRAME IOVERLAY, 0, STATIC
        ARGFRAME DOVERLAY, 0, STATIC
        EXTERN DHT11
        FUNCTION DHT11,0202H
        ARGFRAME ISTACK, 0, STACK
        ARGFRAME PSTACK, 0, STACK
        ARGFRAME XSTACK, 35, STACK
        ARGFRAME IOVERLAY, 0, STATIC
        ARGFRAME DOVERLAY, 0, STATIC
        EXTERN HalAdcInit
        FUNCTION HalAdcInit,0202H
        ARGFRAME ISTACK, 0, STACK
        ARGFRAME PSTACK, 0, STACK
        ARGFRAME XSTACK, 35, STACK
        ARGFRAME IOVERLAY, 0, STATIC
        ARGFRAME DOVERLAY, 0, STATIC
        EXTERN HalAdcRead
        FUNCTION HalAdcRead,0202H
        ARGFRAME ISTACK, 0, STACK
        ARGFRAME PSTACK, 0, STACK
        ARGFRAME XSTACK, 35, STACK
        ARGFRAME IOVERLAY, 0, STATIC
        ARGFRAME DOVERLAY, 0, STATIC
        EXTERN HalLcdWriteString
        FUNCTION HalLcdWriteString,0202H
        ARGFRAME ISTACK, 0, STACK
        ARGFRAME PSTACK, 0, STACK
        ARGFRAME XSTACK, 35, STACK
        ARGFRAME IOVERLAY, 0, STATIC
        ARGFRAME DOVERLAY, 0, STATIC
        EXTERN HalUARTRead
        FUNCTION HalUARTRead,0202H
        ARGFRAME ISTACK, 2, STACK
        ARGFRAME PSTACK, 0, STACK
        ARGFRAME XSTACK, 0, STACK
        ARGFRAME IOVERLAY, 0, STATIC
        ARGFRAME DOVERLAY, 0, STATIC
        EXTERN HalUARTWrite
        FUNCTION HalUARTWrite,0202H
        ARGFRAME ISTACK, 0, STACK
        ARGFRAME PSTACK, 0, STACK
        ARGFRAME XSTACK, 35, STACK
        ARGFRAME IOVERLAY, 0, STATIC
        ARGFRAME DOVERLAY, 0, STATIC
        EXTERN MT_UartInit
        FUNCTION MT_UartInit,0200H
        ARGFRAME ISTACK, 0, STACK
        ARGFRAME PSTACK, 0, STACK
        ARGFRAME XSTACK, 9, STACK
        ARGFRAME IOVERLAY, 0, STATIC
        ARGFRAME DOVERLAY, 0, STATIC
        EXTERN MT_UartRegisterTaskID
        FUNCTION MT_UartRegisterTaskID,0200H
        ARGFRAME ISTACK, 0, STACK
        ARGFRAME PSTACK, 0, STACK
        ARGFRAME XSTACK, 9, STACK
        ARGFRAME IOVERLAY, 0, STATIC
        ARGFRAME DOVERLAY, 0, STATIC
        EXTERN RegisterForKeys
        FUNCTION RegisterForKeys,0202H
        ARGFRAME ISTACK, 0, STACK
        ARGFRAME PSTACK, 0, STACK
        ARGFRAME XSTACK, 9, STACK
        ARGFRAME IOVERLAY, 0, STATIC
        ARGFRAME DOVERLAY, 0, STATIC
        EXTERN afRegister
        FUNCTION afRegister,0202H
        ARGFRAME ISTACK, 0, STACK
        ARGFRAME PSTACK, 0, STACK
        ARGFRAME XSTACK, 9, STACK
        ARGFRAME IOVERLAY, 0, STATIC
        ARGFRAME DOVERLAY, 0, STATIC
        EXTERN osal_memset
        FUNCTION osal_memset,0202H
        ARGFRAME ISTACK, 0, STACK
        ARGFRAME PSTACK, 0, STACK
        ARGFRAME XSTACK, 35, STACK
        ARGFRAME IOVERLAY, 0, STATIC
        ARGFRAME DOVERLAY, 0, STATIC
        EXTERN osal_msg_deallocate
        FUNCTION osal_msg_deallocate,0202H
        ARGFRAME ISTACK, 0, STACK
        ARGFRAME PSTACK, 0, STACK
        ARGFRAME XSTACK, 12, STACK
        ARGFRAME IOVERLAY, 0, STATIC
        ARGFRAME DOVERLAY, 0, STATIC
        EXTERN osal_msg_receive
        FUNCTION osal_msg_receive,0202H
        ARGFRAME ISTACK, 0, STACK
        ARGFRAME PSTACK, 0, STACK
        ARGFRAME XSTACK, 12, STACK
        ARGFRAME IOVERLAY, 0, STATIC
        ARGFRAME DOVERLAY, 0, STATIC
        EXTERN osal_rand
        FUNCTION osal_rand,0202H
        ARGFRAME ISTACK, 0, STACK
        ARGFRAME PSTACK, 0, STACK
        ARGFRAME XSTACK, 12, STACK
        ARGFRAME IOVERLAY, 0, STATIC
        ARGFRAME DOVERLAY, 0, STATIC
        EXTERN osal_start_timerEx
        FUNCTION osal_start_timerEx,0202H
        ARGFRAME ISTACK, 0, STACK
        ARGFRAME PSTACK, 0, STACK
        ARGFRAME XSTACK, 12, STACK
        ARGFRAME IOVERLAY, 0, STATIC
        ARGFRAME DOVERLAY, 0, STATIC
        EXTERN osal_strlen
        FUNCTION osal_strlen,0202H
        ARGFRAME ISTACK, 0, STACK
        ARGFRAME PSTACK, 0, STACK
        ARGFRAME XSTACK, 35, STACK
        ARGFRAME IOVERLAY, 0, STATIC
        ARGFRAME DOVERLAY, 0, STATIC
        EXTERN shidu
        EXTERN sprintf
        FUNCTION sprintf,0202H
        ARGFRAME ISTACK, 0, STACK
        ARGFRAME PSTACK, 0, STACK
        ARGFRAME XSTACK, 39, STACK
        ARGFRAME IOVERLAY, 0, STATIC
        ARGFRAME DOVERLAY, 0, STATIC
        EXTERN wendu

// C:\Users\OY\Desktop\ZStack-2.5.1a\Projects\zstack\Samples\SampleApp\Source\SampleApp.c
//    1 /*********************************************************************
//    2  * INCLUDES
//    3  */
//    4 
//    5 #include <stdio.h>
//    6 #include <string.h>
//    7 #include "AF.h"
//    8 #include "OnBoard.h"

        ASEGN SFR_AN:DATA:NOROOT,090H
// union <unnamed> volatile __sfr _A_P1
_A_P1:
        DATA8
        DS 1
//    9 #include "OSAL_Tasks.h"
//   10 #include "SampleApp.h"
//   11 #include "ZDApp.h"
//   12 #include "ZDObject.h"
//   13 #include "ZDProfile.h"
//   14 
//   15 #include "hal_drivers.h"
//   16 #include "hal_key.h"
//   17 #if defined ( LCD_SUPPORTED )
//   18   #include "hal_lcd.h"
//   19 #endif
//   20 #include "hal_led.h"
//   21 #include "hal_uart.h"
//   22 
//   23 #ifdef ZDO_COORDINATOR
//   24 //协议文件
//   25 #include "mqtt.h"
//   26 #include "mqttkit.h"
//   27 
//   28 #else
//   29 
//   30 #include "dht11.h"
//   31 
//   32 #endif
//   33 
//   34 
//   35 /*********************************************************************
//   36  * MACROS
//   37  */
//   38 
//   39 /*********************************************************************
//   40  * CONSTANTS
//   41  */
//   42 
//   43 #if !defined( SAMPLE_APP_PORT )
//   44 #define SAMPLE_APP_PORT  0
//   45 #endif
//   46 
//   47 #if !defined( SAMPLE_APP_RX_MAX )
//   48 #define SAMPLE_APP_RX_MAX  200
//   49 #endif
//   50 
//   51 
//   52 // This list should be filled with Application specific Cluster IDs.

        RSEG XDATA_ROM_C:CONST:REORDER:NOROOT(0)
        DATA8
//   53 const cId_t SampleApp_ClusterList[SAMPLE_MAX_CLUSTERS] =
SampleApp_ClusterList:
        DATA16
        DW 1
        DW 2
        DW 3
//   54 {
//   55   SAMPLEAPP_P2P_CLUSTERID,
//   56   SAMPLEAPP_PERIODIC_CLUSTERID,
//   57   SERIALAPP_CONNECTREQ_CLUSTER
//   58 };
//   59 

        RSEG XDATA_ROM_C:CONST:REORDER:NOROOT(0)
        DATA8
//   60 const SimpleDescriptionFormat_t SampleApp_SimpleDesc =
SampleApp_SimpleDesc:
        DB 11
        DATA16
        DW 3845
        DW 1
        DATA8
        DB 0
        DB 3
        DATA16
        DW SampleApp_ClusterList
        DATA8
        DB 3
        DATA16
        DW SampleApp_ClusterList
//   61 {
//   62   SAMPLEAPP_ENDPOINT,              //  int   Endpoint;
//   63   SAMPLEAPP_PROFID,                //  uint16 AppProfId[2];
//   64   SAMPLEAPP_DEVICEID,              //  uint16 AppDeviceId[2];
//   65   SAMPLEAPP_DEVICE_VERSION,        //  int   AppDevVer:4;
//   66   SAMPLEAPP_FLAGS,                 //  int   AppFlags:4;
//   67   SAMPLE_MAX_CLUSTERS,          //  byte  AppNumInClusters;
//   68   (cId_t *)SampleApp_ClusterList,  //  byte *pAppInClusterList;
//   69   SAMPLE_MAX_CLUSTERS,          //  byte  AppNumOutClusters;
//   70   (cId_t *)SampleApp_ClusterList   //  byte *pAppOutClusterList;
//   71 };
//   72 

        RSEG XDATA_I:XDATA:NOROOT(0)
//   73 endPointDesc_t SampleApp_epDesc =
SampleApp_epDesc:
        DATA8
        DS 6
        REQUIRE `?<Initializer for SampleApp_epDesc>`
        REQUIRE __INIT_XDATA_I
//   74 {
//   75   SAMPLEAPP_ENDPOINT,
//   76  &SampleApp_TaskID,
//   77   (SimpleDescriptionFormat_t *)&SampleApp_SimpleDesc,
//   78   noLatencyReqs
//   79 };
//   80 
//   81 /*********************************************************************
//   82  * TYPEDEFS
//   83  */
//   84 
//   85 /*********************************************************************
//   86  * GLOBAL VARIABLES
//   87  */

        RSEG XDATA_Z:XDATA:NOROOT(0)
        DATA8
//   88 devStates_t SampleApp_NwkState;
SampleApp_NwkState:
        DS 1
        REQUIRE __INIT_XDATA_Z

        RSEG XDATA_Z:XDATA:NOROOT(0)
        DATA8
//   89 uint8 SampleApp_TaskID;           // Task ID for internal task/event processing.
SampleApp_TaskID:
        DS 1
        REQUIRE __INIT_XDATA_Z
//   90 
//   91 /*********************************************************************
//   92  * EXTERNAL VARIABLES
//   93  */
//   94 
//   95 /*********************************************************************
//   96  * EXTERNAL FUNCTIONS
//   97  */
//   98 
//   99 /*********************************************************************
//  100  * LOCAL VARIABLES
//  101  */
//  102 

        RSEG XDATA_Z:XDATA:NOROOT(0)
        DATA8
//  103 static uint8 SampleApp_MsgID;
SampleApp_MsgID:
        DS 1
        REQUIRE __INIT_XDATA_Z
//  104 

        RSEG XDATA_Z:XDATA:NOROOT(0)
        DATA8
//  105 afAddrType_t SampleApp_P2P_DstAddr;      //点播
SampleApp_P2P_DstAddr:
        DS 12
        REQUIRE __INIT_XDATA_Z
//  106 
//  107 

        RSEG XDATA_Z:XDATA:NOROOT(0)
        DATA8
//  108 static uint8 SampleApp_RxBuf[SAMPLE_APP_RX_MAX+1]={0};
SampleApp_RxBuf:
        DS 201
        REQUIRE __INIT_XDATA_Z
//  109 static uint16 SampleApp_RxLen=0;
//  110 

        RSEG XDATA_Z:XDATA:NOROOT(0)
        DATA8
//  111 uint8 onenet_login_ok=0;//onenet注册成功 0:未注册，1：注册中　2：注册成功
onenet_login_ok:
        DS 1
        REQUIRE __INIT_XDATA_Z

        RSEG XDATA_Z:XDATA:NOROOT(0)
        DATA8
//  112 uint8 end_temp;//终端的温度
end_temp:
        DS 1
        REQUIRE __INIT_XDATA_Z

        RSEG XDATA_Z:XDATA:NOROOT(0)
        DATA8
//  113 uint8 end_hum;//终端的湿度
end_hum:
        DS 1
        REQUIRE __INIT_XDATA_Z
//  114 

        RSEG XDATA_Z:XDATA:NOROOT(0)
        DATA8
//  115 uint8 end_light = 0;       //开发板区域亮度     亮0-127灭
end_light:
        DS 1
        REQUIRE __INIT_XDATA_Z

        RSEG XDATA_Z:XDATA:NOROOT(0)
        DATA8
//  116 uint8 end_led3 = 0;        //终端节点开发板led3状态     0灭 1亮
end_led3:
        DS 1
        REQUIRE __INIT_XDATA_Z

        RSEG XDATA_Z:XDATA:NOROOT(0)
        DATA8
//  117 uint8 cor_led3 = 0;        //协调器led3 0灭 1亮
cor_led3:
        DS 1
        REQUIRE __INIT_XDATA_Z
//  118 #ifdef ZDO_COORDINATOR
//  119 signed char *g_mqtt_topics_set[5] = {NULL};
//  120 u8 topics_buff[60]={0};
//  121 u8 topics_post[100]={0}; //发布的主题
//  122 u8 mqtt_message[200]={0};//发布的消息
//  123 #endif
//  124 
//  125 /*********************************************************************
//  126  * LOCAL FUNCTIONS
//  127  */
//  128 
//  129 static void SampleApp_ProcessMSGCmd( afIncomingMSGPacket_t *pkt );
//  130 void SampleApp_CallBack(uint8 port, uint8 event);
//  131 static void SampleApp_Send_P2P_Message( void );
//  132 static void OneNet_publish_topic();
//  133 void debug(uint8 * msg, ...);
//  134 
//  135 /*********************************************************************
//  136  * @fn      SampleApp_Init
//  137  *
//  138  * @brief   This is called during OSAL tasks' initialization.
//  139  *
//  140  * @param   task_id - the Task ID assigned by OSAL.
//  141  *
//  142  * @return  none
//  143  */

        RSEG BANKED_CODE:HUGECODE:NOROOT(0)
//  144 void SampleApp_Init( uint8 task_id )
SampleApp_Init:
          CFI Block cfiBlock0 Using cfiCommon0
          CFI Function SampleApp_Init
        CODE
//  145 {
        FUNCALL SampleApp_Init, MT_UartInit
        LOCFRAME ISTACK, 0, STACK
        LOCFRAME PSTACK, 0, STACK
        LOCFRAME XSTACK, 9, STACK
        LOCFRAME IOVERLAY, 0, STATIC
        LOCFRAME DOVERLAY, 0, STATIC
        ARGFRAME ISTACK, 0, STACK
        ARGFRAME PSTACK, 0, STACK
        ARGFRAME XSTACK, 9, STACK
        ARGFRAME IOVERLAY, 0, STATIC
        ARGFRAME DOVERLAY, 0, STATIC
        FUNCALL SampleApp_Init, MT_UartRegisterTaskID
        LOCFRAME ISTACK, 0, STACK
        LOCFRAME PSTACK, 0, STACK
        LOCFRAME XSTACK, 9, STACK
        LOCFRAME IOVERLAY, 0, STATIC
        LOCFRAME DOVERLAY, 0, STATIC
        ARGFRAME ISTACK, 0, STACK
        ARGFRAME PSTACK, 0, STACK
        ARGFRAME XSTACK, 9, STACK
        ARGFRAME IOVERLAY, 0, STATIC
        ARGFRAME DOVERLAY, 0, STATIC
        FUNCALL SampleApp_Init, afRegister
        LOCFRAME ISTACK, 0, STACK
        LOCFRAME PSTACK, 0, STACK
        LOCFRAME XSTACK, 9, STACK
        LOCFRAME IOVERLAY, 0, STATIC
        LOCFRAME DOVERLAY, 0, STATIC
        ARGFRAME ISTACK, 0, STACK
        ARGFRAME PSTACK, 0, STACK
        ARGFRAME XSTACK, 9, STACK
        ARGFRAME IOVERLAY, 0, STATIC
        ARGFRAME DOVERLAY, 0, STATIC
        FUNCALL SampleApp_Init, RegisterForKeys
        LOCFRAME ISTACK, 0, STACK
        LOCFRAME PSTACK, 0, STACK
        LOCFRAME XSTACK, 9, STACK
        LOCFRAME IOVERLAY, 0, STATIC
        LOCFRAME DOVERLAY, 0, STATIC
        ARGFRAME ISTACK, 0, STACK
        ARGFRAME PSTACK, 0, STACK
        ARGFRAME XSTACK, 9, STACK
        ARGFRAME IOVERLAY, 0, STATIC
        ARGFRAME DOVERLAY, 0, STATIC
        MOV       A,#-0x9
        LCALL     ?BANKED_ENTER_XDATA
          CFI DPH0 load(1, XDATA, add(CFA_XSP16, literal(-1)))
          CFI DPL0 load(1, XDATA, add(CFA_XSP16, literal(-2)))
          CFI ?BRET_EXT load(1, XDATA, add(CFA_XSP16, literal(-3)))
          CFI ?RET_HIGH load(1, XDATA, add(CFA_XSP16, literal(-4)))
          CFI ?RET_LOW load(1, XDATA, add(CFA_XSP16, literal(-5)))
          CFI R7 load(1, XDATA, add(CFA_XSP16, literal(-6)))
          CFI V0 load(1, XDATA, add(CFA_XSP16, literal(-7)))
          CFI VB load(1, XDATA, add(CFA_XSP16, literal(-8)))
          CFI R6 load(1, XDATA, add(CFA_XSP16, literal(-9)))
          CFI CFA_SP SP+0
          CFI CFA_XSP16 add(XSP16, 9)
        ; Saved register size: 9
        ; Auto size: 0
        MOV       A,R1
        MOV       R6,A
//  146   halUARTCfg_t uartConfig;
//  147 
//  148   SampleApp_TaskID = task_id;
        MOV       DPTR,#SampleApp_TaskID
        MOVX      @DPTR,A
//  149   SampleApp_NwkState = DEV_INIT;
        MOV       DPTR,#SampleApp_NwkState
        MOV       A,#0x1
        MOVX      @DPTR,A
//  150 
//  151   MT_UartInit();                  //串口初始化
        ; Setup parameters for call to function MT_UartInit
        LCALL     `??MT_UartInit::?relay`; Banked call to: MT_UartInit
//  152   MT_UartRegisterTaskID(task_id); //注册串口任务
        ; Setup parameters for call to function MT_UartRegisterTaskID
        MOV       A,R6
        MOV       R2,A
        MOV       R3,#0x0
        LCALL     `??MT_UartRegisterTaskID::?relay`; Banked call to: MT_UartRegisterTaskID
//  153   afRegister( (endPointDesc_t *)&SampleApp_epDesc );
        ; Setup parameters for call to function afRegister
        MOV       R2,#SampleApp_epDesc & 0xff
        MOV       R3,#(SampleApp_epDesc >> 8) & 0xff
        LCALL     `??afRegister::?relay`; Banked call to: afRegister
//  154   RegisterForKeys( task_id );
        ; Setup parameters for call to function RegisterForKeys
        MOV       A,R6
        MOV       R1,A
        LCALL     `??RegisterForKeys::?relay`; Banked call to: RegisterForKeys
//  155 
//  156 #ifdef ZDO_COORDINATOR
//  157   //协调器初始化
//  158 
//  159   //逢蜂鸣器初始化
//  160 
//  161   P0SEL &= ~0x80;                 //设置P07为普通IO口
//  162   P0DIR |= 0x80;                 //P07定义为输出口
//  163 
//  164   //默认蜂鸣器不响
//  165   P0_7=1;
//  166 
//  167   //初始化发布的主题
//  168   sprintf(topics_post, "/post");//"/sys/%s/%s/thing/event/property/post",ProductKey,DeviceName);
//  169 
//  170   //初始化订阅的主题
//  171   sprintf(topics_buff, "/set");//"/sys/%s/%s/thing/service/property/set",ProductKey,DeviceName);// /sys/a1sYYwS4kmH/mytestdev/thing/service/property/set
//  172   g_mqtt_topics_set[0]=topics_buff;
//  173 
//  174 #endif
//  175 
//  176   SampleApp_P2P_DstAddr.addrMode = (afAddrMode_t)Addr16Bit; //点播
        MOV       DPTR,#SampleApp_P2P_DstAddr + 8
        MOV       A,#0x2
        MOVX      @DPTR,A
//  177   SampleApp_P2P_DstAddr.endPoint = SAMPLEAPP_ENDPOINT;
        INC       DPTR
        MOV       A,#0xb
        MOVX      @DPTR,A
//  178   SampleApp_P2P_DstAddr.addr.shortAddr = 0x0000;            //发给协调器
        MOV       DPTR,#SampleApp_P2P_DstAddr
        CLR       A
        MOVX      @DPTR,A
        INC       DPTR
        MOVX      @DPTR,A
//  179 
//  180 
//  181 }
        MOV       R7,#0x1
        LJMP      ?BANKED_LEAVE_XDATA
          CFI EndBlock cfiBlock0
//  182 

        RSEG BANKED_CODE:HUGECODE:NOROOT(0)
//  183 void SampleApp_HandleKeys( uint8 shift, uint8 keys )
SampleApp_HandleKeys:
          CFI Block cfiBlock1 Using cfiCommon0
          CFI Function SampleApp_HandleKeys
        CODE
//  184 {
        ; Saved register size: 0
        ; Auto size: 0
//  185   (void)shift;  // Intentionally unreferenced parameter
//  186 
//  187 #if defined(ZDO_COORDINATOR)
//  188 
//  189   if ( keys & HAL_KEY_SW_6 )//key1
//  190   {
//  191     const signed char *g_mqtt_topics[] = {"mqtt_topic_test1"};
//  192     if(0 == mqtt_subscribe_topic(g_mqtt_topics, 1))
//  193     {
//  194 
//  195     }
//  196   }
//  197 
//  198   if ( keys & HAL_KEY_SW_1 )//key2
//  199   {
//  200 
//  201   }
//  202 
//  203 #endif
//  204 }
        LJMP      ?BRET
          CFI EndBlock cfiBlock1
//  205 
//  206 
//  207 /*********************************************************************
//  208  * @fn      SampleApp_ProcessEvent
//  209  *
//  210  * @brief   Generic Application Task event processor.
//  211  *
//  212  * @param   task_id  - The OSAL assigned task ID.
//  213  * @param   events   - Bit map of events to process.
//  214  *
//  215  * @return  Event flags of all unprocessed events.
//  216  */

        RSEG BANKED_CODE:HUGECODE:NOROOT(0)
//  217 UINT16 SampleApp_ProcessEvent( uint8 task_id, UINT16 events )
SampleApp_ProcessEvent:
          CFI Block cfiBlock2 Using cfiCommon0
          CFI Function SampleApp_ProcessEvent
        CODE
//  218 {
        FUNCALL SampleApp_ProcessEvent, SampleApp_Send_P2P_Message
        LOCFRAME ISTACK, 0, STACK
        LOCFRAME PSTACK, 0, STACK
        LOCFRAME XSTACK, 12, STACK
        LOCFRAME IOVERLAY, 0, STATIC
        LOCFRAME DOVERLAY, 0, STATIC
        ARGFRAME ISTACK, 0, STACK
        ARGFRAME PSTACK, 0, STACK
        ARGFRAME XSTACK, 12, STACK
        ARGFRAME IOVERLAY, 0, STATIC
        ARGFRAME DOVERLAY, 0, STATIC
        FUNCALL SampleApp_ProcessEvent, osal_rand
        LOCFRAME ISTACK, 0, STACK
        LOCFRAME PSTACK, 0, STACK
        LOCFRAME XSTACK, 12, STACK
        LOCFRAME IOVERLAY, 0, STATIC
        LOCFRAME DOVERLAY, 0, STATIC
        ARGFRAME ISTACK, 0, STACK
        ARGFRAME PSTACK, 0, STACK
        ARGFRAME XSTACK, 12, STACK
        ARGFRAME IOVERLAY, 0, STATIC
        ARGFRAME DOVERLAY, 0, STATIC
        FUNCALL SampleApp_ProcessEvent, osal_start_timerEx
        LOCFRAME ISTACK, 0, STACK
        LOCFRAME PSTACK, 0, STACK
        LOCFRAME XSTACK, 12, STACK
        LOCFRAME IOVERLAY, 0, STATIC
        LOCFRAME DOVERLAY, 0, STATIC
        ARGFRAME ISTACK, 0, STACK
        ARGFRAME PSTACK, 0, STACK
        ARGFRAME XSTACK, 12, STACK
        ARGFRAME IOVERLAY, 0, STATIC
        ARGFRAME DOVERLAY, 0, STATIC
        FUNCALL SampleApp_ProcessEvent, osal_start_timerEx
        LOCFRAME ISTACK, 0, STACK
        LOCFRAME PSTACK, 0, STACK
        LOCFRAME XSTACK, 12, STACK
        LOCFRAME IOVERLAY, 0, STATIC
        LOCFRAME DOVERLAY, 0, STATIC
        ARGFRAME ISTACK, 0, STACK
        ARGFRAME PSTACK, 0, STACK
        ARGFRAME XSTACK, 12, STACK
        ARGFRAME IOVERLAY, 0, STATIC
        ARGFRAME DOVERLAY, 0, STATIC
        FUNCALL SampleApp_ProcessEvent, osal_msg_deallocate
        LOCFRAME ISTACK, 0, STACK
        LOCFRAME PSTACK, 0, STACK
        LOCFRAME XSTACK, 12, STACK
        LOCFRAME IOVERLAY, 0, STATIC
        LOCFRAME DOVERLAY, 0, STATIC
        ARGFRAME ISTACK, 0, STACK
        ARGFRAME PSTACK, 0, STACK
        ARGFRAME XSTACK, 12, STACK
        ARGFRAME IOVERLAY, 0, STATIC
        ARGFRAME DOVERLAY, 0, STATIC
        FUNCALL SampleApp_ProcessEvent, osal_msg_receive
        LOCFRAME ISTACK, 0, STACK
        LOCFRAME PSTACK, 0, STACK
        LOCFRAME XSTACK, 12, STACK
        LOCFRAME IOVERLAY, 0, STATIC
        LOCFRAME DOVERLAY, 0, STATIC
        ARGFRAME ISTACK, 0, STACK
        ARGFRAME PSTACK, 0, STACK
        ARGFRAME XSTACK, 12, STACK
        ARGFRAME IOVERLAY, 0, STATIC
        ARGFRAME DOVERLAY, 0, STATIC
        REQUIRE ?V0
        REQUIRE ?V1
        REQUIRE ?V2
        REQUIRE ?V3
        MOV       A,#-0xc
        LCALL     ?BANKED_ENTER_XDATA
          CFI DPH0 load(1, XDATA, add(CFA_XSP16, literal(-1)))
          CFI DPL0 load(1, XDATA, add(CFA_XSP16, literal(-2)))
          CFI ?BRET_EXT load(1, XDATA, add(CFA_XSP16, literal(-3)))
          CFI ?RET_HIGH load(1, XDATA, add(CFA_XSP16, literal(-4)))
          CFI ?RET_LOW load(1, XDATA, add(CFA_XSP16, literal(-5)))
          CFI R7 load(1, XDATA, add(CFA_XSP16, literal(-6)))
          CFI V3 load(1, XDATA, add(CFA_XSP16, literal(-7)))
          CFI V2 load(1, XDATA, add(CFA_XSP16, literal(-8)))
          CFI V1 load(1, XDATA, add(CFA_XSP16, literal(-9)))
          CFI V0 load(1, XDATA, add(CFA_XSP16, literal(-10)))
          CFI VB load(1, XDATA, add(CFA_XSP16, literal(-11)))
          CFI R6 load(1, XDATA, add(CFA_XSP16, literal(-12)))
          CFI CFA_SP SP+0
          CFI CFA_XSP16 add(XSP16, 12)
        ; Saved register size: 12
        ; Auto size: 0
        MOV       A,R2
        MOV       R6,A
        MOV       A,R3
        MOV       R7,A
//  219   (void)task_id;  // Intentionally unreferenced parameter
//  220 
//  221   if ( events & SYS_EVENT_MSG )
        ANL       A,#0x80
        JNZ       ??SampleApp_ProcessEvent_0
//  222   {
//  223     afIncomingMSGPacket_t *MSGpkt;
//  224 
//  225     while ( (MSGpkt = (afIncomingMSGPacket_t *)osal_msg_receive( SampleApp_TaskID )) )
//  226     {
//  227       switch ( MSGpkt->hdr.event )
//  228       {
//  229       case KEY_CHANGE:
//  230         SampleApp_HandleKeys( ((keyChange_t *)MSGpkt)->state, ((keyChange_t *)MSGpkt)->keys );
//  231         break;
//  232 
//  233       case AF_INCOMING_MSG_CMD:
//  234         SampleApp_ProcessMSGCmd( MSGpkt );
//  235         break;
//  236 
//  237       case ZDO_STATE_CHANGE:
//  238         SampleApp_NwkState = (devStates_t)(MSGpkt->hdr.status);
//  239         if ( (SampleApp_NwkState == DEV_ZB_COORD)||
//  240             (SampleApp_NwkState == DEV_ROUTER)
//  241             || (SampleApp_NwkState == DEV_END_DEVICE) )
//  242         {
//  243             //连网成功后，启动一个定时器
//  244             osal_start_timerEx( SampleApp_TaskID,
//  245                               SAMPLEAPP_SEND_PERIODIC_MSG_EVT,
//  246                               SAMPLEAPP_SEND_PERIODIC_MSG_TIMEOUT );
//  247         }
//  248         else
//  249         {
//  250           // Device is no longer in the network
//  251         }
//  252         break;
//  253 
//  254       default:
//  255         break;
//  256       }
//  257 
//  258       osal_msg_deallocate( (uint8 *)MSGpkt );
//  259     }
//  260 
//  261     return ( events ^ SYS_EVENT_MSG );
//  262   }
//  263 
//  264 #ifdef ZDO_COORDINATOR
//  265 
//  266   //定时器时间到
//  267   if ( events & SAMPLEAPP_SEND_PERIODIC_MSG_EVT )
//  268   {
//  269     if(onenet_login_ok==2)
//  270     {
//  271         //如果接入onenet成功，启动心跳和发送数据定A器
//  272 
//  273         P1_1=0;//点亮D2
//  274 
//  275 
//  276         // 启动心跳定时器，15秒一次
//  277         osal_start_timerEx( SampleApp_TaskID, SAMPLEAPP_ONENET_HEART_BEAT_EVT,15000 );
//  278 
//  279         // 启动发送数据定时器，5秒一次
//  280         osal_start_timerEx( SampleApp_TaskID, SAMPLEAPP_ONENET_SEND_DATA_EVT,5000 );
//  281     }
//  282     else
//  283     {
//  284         onenet_login_ok=1;//onenet注册成功 0:未注册，1：注册中　2：注册成功
//  285         SampleApp_RxLen=0;
//  286 
//  287         //如果没有接入onenet成功，重新发起接入
//  288         OneNet_DevLink();//接入onenet服务器
//  289 
//  290         //LED2闪，表示正在接入onenet
//  291         HalLedBlink (HAL_LED_2, 5, 50, 500);
//  292 
//  293         // 每5秒尝试接入一次
//  294         osal_start_timerEx( SampleApp_TaskID, SAMPLEAPP_SEND_PERIODIC_MSG_EVT,5000 );
//  295     }
//  296 
//  297 
//  298     // return unprocessed events
//  299     return (events ^ SAMPLEAPP_SEND_PERIODIC_MSG_EVT);
//  300   }
//  301 
//  302 
//  303   //心跳定时器时间到
//  304   if ( events & SAMPLEAPP_ONENET_HEART_BEAT_EVT )
//  305   {
//  306     if(onenet_login_ok==2)
//  307     {
//  308         //发送心跳
//  309         onenet_mqtt_send_heart();
//  310     }
//  311 
//  312     // 启动心跳定时器，15秒一次
//  313     osal_start_timerEx( SampleApp_TaskID, SAMPLEAPP_ONENET_HEART_BEAT_EVT,15000 );
//  314 
//  315 
//  316     // return unprocessed events
//  317     return (events ^ SAMPLEAPP_ONENET_HEART_BEAT_EVT);
//  318   }
//  319 
//  320 
//  321   //发送数据定时器时间到
//  322   if ( events & SAMPLEAPP_ONENET_SEND_DATA_EVT )
//  323   {
//  324     if(onenet_login_ok==2)
//  325     {
//  326         //发送温湿度数据到onenet
//  327     //    OneNet_SendData(end_temp, end_hum);
//  328 
//  329         sprintf(mqtt_message,
//  330         "{\"method\":\"thing.service.property.set\",\"id\":\"630262306\",\"params\":{\ 
//  331             \"temp\":%d,\ 
//  332             \"hum\":%d,\ 
//  333                \"end_light\":%d,\ 
//  334               \"led3\":%d}\ 
//  335         }",
//  336         end_temp,
//  337         end_hum,
//  338         end_light,
//  339         cor_led3
//  340         );
//  341 
//  342         //发布主题
//  343         mqtt_publish_topic(topics_post, mqtt_message);
//  344 
//  345      //  OneNet_publish_topic();
//  346     }
//  347 
//  348     // 启动发送数据定时器，5秒一次
//  349     osal_start_timerEx( SampleApp_TaskID, SAMPLEAPP_ONENET_SEND_DATA_EVT,5000 );
//  350 
//  351 
//  352     // return unprocessed events
//  353     return (events ^ SAMPLEAPP_ONENET_SEND_DATA_EVT);
//  354   }
//  355 
//  356 
//  357 #else
//  358 
//  359   //定时器时间到
//  360   if ( events & SAMPLEAPP_SEND_PERIODIC_MSG_EVT )
        MOV       A,R2
        MOV       C,0xE0 /* A   */.0
        JNC       ??SampleApp_ProcessEvent_1
//  361   {
//  362 
//  363     // DHT11采集
//  364     SampleApp_Send_P2P_Message();
        ; Setup parameters for call to function SampleApp_Send_P2P_Message
        LCALL     `??SampleApp_Send_P2P_Message::?relay`; Banked call to: SampleApp_Send_P2P_Message
//  365 
//  366     // Setup to send message again in normal period (+ a little jitter)
//  367     osal_start_timerEx( SampleApp_TaskID, SAMPLEAPP_SEND_PERIODIC_MSG_EVT,
//  368         (SAMPLEAPP_SEND_PERIODIC_MSG_TIMEOUT + (osal_rand() & 0x00FF)) );
        ; Setup parameters for call to function osal_rand
        LCALL     `??osal_rand::?relay`; Banked call to: osal_rand
        ; Setup parameters for call to function osal_start_timerEx
        MOV       A,R2
        ADD       A,#-0x48
        MOV       R4,A
        CLR       A
        ADDC      A,#0xb
        MOV       R5,A
        MOV       R2,#0x1
        MOV       R3,#0x0
        MOV       DPTR,#SampleApp_TaskID
        MOVX      A,@DPTR
        MOV       R1,A
        LCALL     `??osal_start_timerEx::?relay`; Banked call to: osal_start_timerEx
//  369 
//  370     // return unprocessed events
//  371     return (events ^ SAMPLEAPP_SEND_PERIODIC_MSG_EVT);
        MOV       A,R6
        XRL       A,#0x1
        MOV       R2,A
        MOV       A,R7
        SJMP      ??SampleApp_ProcessEvent_2
//  372   }
??SampleApp_ProcessEvent_3:
        MOV       DPL,R2
        MOV       DPH,R3
        MOVX      A,@DPTR
        XRL       A,#0xd1
        JNZ       ??SampleApp_ProcessEvent_4
        INC       DPTR
        MOVX      A,@DPTR
        MOV       DPTR,#SampleApp_NwkState
        MOVX      @DPTR,A
        XRL       A,#0x9
        JZ        ??SampleApp_ProcessEvent_5
        MOVX      A,@DPTR
        XRL       A,#0x7
        JZ        ??SampleApp_ProcessEvent_5
        MOVX      A,@DPTR
        XRL       A,#0x6
        JNZ       ??SampleApp_ProcessEvent_4
??SampleApp_ProcessEvent_5:
        ; Setup parameters for call to function osal_start_timerEx
        MOV       R4,#-0x48
        MOV       R5,#0xb
        MOV       R2,#0x1
        MOV       R3,#0x0
        MOV       DPTR,#SampleApp_TaskID
        MOVX      A,@DPTR
        MOV       R1,A
        LCALL     `??osal_start_timerEx::?relay`; Banked call to: osal_start_timerEx
??SampleApp_ProcessEvent_4:
        ; Setup parameters for call to function osal_msg_deallocate
        MOV       R2,?V0
        MOV       R3,?V1
        LCALL     `??osal_msg_deallocate::?relay`; Banked call to: osal_msg_deallocate
??SampleApp_ProcessEvent_0:
        ; Setup parameters for call to function osal_msg_receive
        MOV       DPTR,#SampleApp_TaskID
        MOVX      A,@DPTR
        MOV       R1,A
        LCALL     `??osal_msg_receive::?relay`; Banked call to: osal_msg_receive
        MOV       ?V0,R2
        MOV       ?V1,R3
        MOV       A,R2
        ORL       A,R3
        JNZ       ??SampleApp_ProcessEvent_3
        MOV       A,R6
        MOV       R2,A
        MOV       A,R7
        XRL       A,#0x80
??SampleApp_ProcessEvent_2:
        MOV       R3,A
        SJMP      ??SampleApp_ProcessEvent_6
//  373 
//  374 #endif
//  375 
//  376   return ( 0 );  // Discard unknown events.
??SampleApp_ProcessEvent_1:
        MOV       R2,#0x0
        MOV       R3,#0x0
??SampleApp_ProcessEvent_6:
        MOV       R7,#0x4
        LJMP      ?BANKED_LEAVE_XDATA
//  377 }
          CFI EndBlock cfiBlock2
//  378 
//  379 /*********************************************************************
//  380  * @fn      SerialApp_ProcessMSGCmd
//  381  *
//  382  * @brief   Data message processor callback. This function processes
//  383  *          any incoming data - probably from other devices. Based
//  384  *          on the cluster ID, perform the intended action.
//  385  *
//  386  * @param   pkt - pointer to the incoming message packet
//  387  *
//  388  * @return  TRUE if the 'pkt' parameter is being used and will be freed later,
//  389  *          FALSE otherwise.
//  390  */
//  391 void SampleApp_ProcessMSGCmd( afIncomingMSGPacket_t *pkt )
//  392 {
//  393   uint8 buff[20]={0};
//  394 
//  395   switch ( pkt->clusterId )
//  396   {
//  397   // 接收终端上传的温度数据
//  398   case SAMPLEAPP_P2P_CLUSTERID:
//  399 #ifdef ZDO_COORDINATOR
//  400     {
//  401         end_temp=pkt->cmd.Data[0]; //终端温度
//  402         end_hum=pkt->cmd.Data[1]; //终端湿度
//  403 
//  404         end_light = pkt->cmd.Data[2]; //终端亮度
//  405         cor_led3 = P1_4; //终端LED3状态
//  406         cor_led3 = !cor_led3;
//  407         sprintf(buff, "T:%d", end_temp);
//  408         HalLcdWriteString(buff, HAL_LCD_LINE_3); //LCD显示
//  409 
//  410         sprintf(buff, "H:%d", end_hum);
//  411         HalLcdWriteString(buff, HAL_LCD_LINE_4); //LCD显示
//  412     }
//  413 #endif
//  414     break;
//  415 
//  416   case SAMPLEAPP_PERIODIC_CLUSTERID:
//  417 
//  418     break;
//  419 
//  420     default:
//  421       break;
//  422   }
//  423 }
//  424 
//  425 #ifdef ZDO_COORDINATOR
//  426 
//  427 //发送MQTT数据
//  428 void ESP8266_SendData(char* buff, int len)
//  429 {
//  430     if(len==0) return;
//  431 
//  432     HalUARTWrite(0,buff, len);
//  433 }
//  434 
//  435 
//  436 //接收到下发命令，或者接收到订阅的消息
//  437 //topic:收到的主题
//  438 //cmd::主题对应的内容
//  439 void mqtt_rx(uint8* topic, uint8* cmd)
//  440 {
//  441     char *ptr_led3_on = NULL;
//  442     char *ptr_led3_off = NULL;
//  443   
//  444     char *this_topic = NULL;
//  445     //协调器收到数据后
//  446     //根据设计决定数据如何处理
//  447 
//  448     if(topic == NULL || cmd==NULL) return;
//  449     
//  450     //我们只关心内容，即只关心CMD，不处理主题
//  451 
//  452     ptr_led3_on = strstr((char *)cmd, "\"led\":1");
//  453     ptr_led3_off = strstr((char *)cmd, "\"led\":0");
//  454 
//  455     if(ptr_led3_on!=NULL)
//  456     {
//  457       P1_4=0;//D3亮
//  458       cor_led3 = 1;
//  459     }
//  460     else if(ptr_led3_off!=NULL)
//  461     {
//  462       P1_4=1;//D3灭
//  463       cor_led3 = 0;
//  464     }
//  465     HalLedBlink (HAL_LED_1, 5, 50, 500);
//  466   
//  467 }
//  468 
//  469 
//  470 
//  471 void OneNet_publish_topic()
//  472 {
//  473     uint8 buff[20]={0};
//  474 
//  475     sprintf(buff, "t:%d,h:%d", end_temp, end_hum);
//  476 
//  477     /*  发布主题为"hello_topic_public"，消息为温度和湿度 */
//  478     if(0 == mqtt_publish_topic("hello_topic_public", buff))
//  479     {;}
//  480 }
//  481 
//  482 
//  483 
//  484 /*********************************************************************
//  485  * @fn      SampleApp_CallBack
//  486  *
//  487  * @brief   Send data OTA.
//  488  *
//  489  * @param   port - UART port.
//  490  * @param   event - the UART port event flag.
//  491  *
//  492  * @return  none
//  493  */
//  494 uint32 lastReadMs=0;
//  495 void SampleApp_CallBack(uint8 port, uint8 event)
//  496 {
//  497   (void)port;
//  498 
//  499   if(0==onenet_login_ok)
//  500   {
//  501     HalUARTRead(SAMPLE_APP_PORT, SampleApp_RxBuf, SAMPLE_APP_RX_MAX);
//  502     SampleApp_RxLen=0;
//  503     osal_memset(SampleApp_RxBuf, 0, SAMPLE_APP_RX_MAX);
//  504   }
//  505   else if(1==onenet_login_ok)//onenet注册成功 0:未注册，1：注册中　2：注册成功
//  506   {
//  507     //一个一个字节读
//  508     SampleApp_RxLen += HalUARTRead(SAMPLE_APP_PORT, SampleApp_RxBuf+SampleApp_RxLen, 4);
//  509 
//  510     //判断是否是注册成功
//  511     if(SampleApp_RxLen>=4)
//  512     {
//  513 //        debug("rx len=%d(%x,%x,%x,%x)\r\n", SampleApp_RxLen,SampleApp_RxBuf[0],SampleApp_RxBuf[1],SampleApp_RxBuf[2],SampleApp_RxBuf[3]);
//  514 
//  515         //等待接入响应
//  516         if(MQTT_UnPacketRecv(SampleApp_RxBuf) == MQTT_PKT_CONNACK)
//  517         {
//  518             if(0==MQTT_UnPacketConnectAck(SampleApp_RxBuf))
//  519             {
//  520                 onenet_login_ok=2;//注册成功
//  521                 SampleApp_RxLen=0;
//  522 
//  523                 //请求订阅主题
//  524                 if(mqtt_subscribe_topic(g_mqtt_topics_set, 1) == 0)
//  525                 {
//  526                   //订阅成功P1_4  D3变为亮
//  527                   P1_4 = 0;
//  528                 }
//  529 
//  530             }
//  531         }
//  532     }
//  533 
//  534     //数组满，清0
//  535     if(SampleApp_RxLen>=SAMPLE_APP_RX_MAX)
//  536     {
//  537         SampleApp_RxLen=0;
//  538     }
//  539   }
//  540   else if(2==onenet_login_ok)
//  541   {
//  542       //如果是注册成功，读服务器的控制命令
//  543 
//  544       uint32 curMs=osal_GetSystemClock();
//  545 
//  546       if((curMs-lastReadMs)<1000) return;
//  547 
//  548       lastReadMs=curMs;
//  549       SampleApp_RxLen=0;
//  550       osal_memset(SampleApp_RxBuf, 0, SAMPLE_APP_RX_MAX+1);
//  551       SampleApp_RxLen = HalUARTRead(SAMPLE_APP_PORT, SampleApp_RxBuf, SAMPLE_APP_RX_MAX); //读长200的数据
//  552 
//  553 
//  554 
//  555       if(SampleApp_RxLen>0)
//  556       {
//  557         debug("rx len=%d.\r\n", SampleApp_RxLen);
//  558         //接收消息
//  559         OneNet_RevPro(SampleApp_RxBuf); 
//  560         //debug LED3 
//  561 //        HalLedBlink (HAL_LED_3, 5, 50, 500); //HalLedSet
//  562         SampleApp_RxLen=0;
//  563         osal_memset(SampleApp_RxBuf, 0, SAMPLE_APP_RX_MAX+1);
//  564       }
//  565   }
//  566 
//  567 }
//  568 
//  569 #else
//  570 #include "hal_ADC.h"
//  571 /*********************************************************************
//  572  * @fn      SampleApp_Send_P2P_Message
//  573  *
//  574  * @brief   point to point.
//  575  *
//  576  * @param   none
//  577  *
//  578  * @return  none
//  579  */

        RSEG BANKED_CODE:HUGECODE:NOROOT(0)
//  580 void SampleApp_Send_P2P_Message( void )
SampleApp_Send_P2P_Message:
          CFI Block cfiBlock3 Using cfiCommon0
          CFI Function SampleApp_Send_P2P_Message
        CODE
//  581 {
        FUNCALL SampleApp_Send_P2P_Message, osal_memset
        LOCFRAME ISTACK, 0, STACK
        LOCFRAME PSTACK, 0, STACK
        LOCFRAME XSTACK, 35, STACK
        LOCFRAME IOVERLAY, 0, STATIC
        LOCFRAME DOVERLAY, 0, STATIC
        ARGFRAME ISTACK, 0, STACK
        ARGFRAME PSTACK, 0, STACK
        ARGFRAME XSTACK, 35, STACK
        ARGFRAME IOVERLAY, 0, STATIC
        ARGFRAME DOVERLAY, 0, STATIC
        FUNCALL SampleApp_Send_P2P_Message, osal_memset
        LOCFRAME ISTACK, 0, STACK
        LOCFRAME PSTACK, 0, STACK
        LOCFRAME XSTACK, 35, STACK
        LOCFRAME IOVERLAY, 0, STATIC
        LOCFRAME DOVERLAY, 0, STATIC
        ARGFRAME ISTACK, 0, STACK
        ARGFRAME PSTACK, 0, STACK
        ARGFRAME XSTACK, 35, STACK
        ARGFRAME IOVERLAY, 0, STATIC
        ARGFRAME DOVERLAY, 0, STATIC
        FUNCALL SampleApp_Send_P2P_Message, DHT11
        LOCFRAME ISTACK, 0, STACK
        LOCFRAME PSTACK, 0, STACK
        LOCFRAME XSTACK, 35, STACK
        LOCFRAME IOVERLAY, 0, STATIC
        LOCFRAME DOVERLAY, 0, STATIC
        ARGFRAME ISTACK, 0, STACK
        ARGFRAME PSTACK, 0, STACK
        ARGFRAME XSTACK, 35, STACK
        ARGFRAME IOVERLAY, 0, STATIC
        ARGFRAME DOVERLAY, 0, STATIC
        FUNCALL SampleApp_Send_P2P_Message, HalAdcInit
        LOCFRAME ISTACK, 0, STACK
        LOCFRAME PSTACK, 0, STACK
        LOCFRAME XSTACK, 35, STACK
        LOCFRAME IOVERLAY, 0, STATIC
        LOCFRAME DOVERLAY, 0, STATIC
        ARGFRAME ISTACK, 0, STACK
        ARGFRAME PSTACK, 0, STACK
        ARGFRAME XSTACK, 35, STACK
        ARGFRAME IOVERLAY, 0, STATIC
        ARGFRAME DOVERLAY, 0, STATIC
        FUNCALL SampleApp_Send_P2P_Message, HalAdcRead
        LOCFRAME ISTACK, 0, STACK
        LOCFRAME PSTACK, 0, STACK
        LOCFRAME XSTACK, 35, STACK
        LOCFRAME IOVERLAY, 0, STATIC
        LOCFRAME DOVERLAY, 0, STATIC
        ARGFRAME ISTACK, 0, STACK
        ARGFRAME PSTACK, 0, STACK
        ARGFRAME XSTACK, 35, STACK
        ARGFRAME IOVERLAY, 0, STATIC
        ARGFRAME DOVERLAY, 0, STATIC
        FUNCALL SampleApp_Send_P2P_Message, sprintf
        LOCFRAME ISTACK, 0, STACK
        LOCFRAME PSTACK, 0, STACK
        LOCFRAME XSTACK, 39, STACK
        LOCFRAME IOVERLAY, 0, STATIC
        LOCFRAME DOVERLAY, 0, STATIC
        ARGFRAME ISTACK, 0, STACK
        ARGFRAME PSTACK, 0, STACK
        ARGFRAME XSTACK, 39, STACK
        ARGFRAME IOVERLAY, 0, STATIC
        ARGFRAME DOVERLAY, 0, STATIC
        FUNCALL SampleApp_Send_P2P_Message, HalLcdWriteString
        LOCFRAME ISTACK, 0, STACK
        LOCFRAME PSTACK, 0, STACK
        LOCFRAME XSTACK, 35, STACK
        LOCFRAME IOVERLAY, 0, STATIC
        LOCFRAME DOVERLAY, 0, STATIC
        ARGFRAME ISTACK, 0, STACK
        ARGFRAME PSTACK, 0, STACK
        ARGFRAME XSTACK, 35, STACK
        ARGFRAME IOVERLAY, 0, STATIC
        ARGFRAME DOVERLAY, 0, STATIC
        FUNCALL SampleApp_Send_P2P_Message, osal_strlen
        LOCFRAME ISTACK, 0, STACK
        LOCFRAME PSTACK, 0, STACK
        LOCFRAME XSTACK, 35, STACK
        LOCFRAME IOVERLAY, 0, STATIC
        LOCFRAME DOVERLAY, 0, STATIC
        ARGFRAME ISTACK, 0, STACK
        ARGFRAME PSTACK, 0, STACK
        ARGFRAME XSTACK, 35, STACK
        ARGFRAME IOVERLAY, 0, STATIC
        ARGFRAME DOVERLAY, 0, STATIC
        FUNCALL SampleApp_Send_P2P_Message, HalUARTWrite
        LOCFRAME ISTACK, 0, STACK
        LOCFRAME PSTACK, 0, STACK
        LOCFRAME XSTACK, 35, STACK
        LOCFRAME IOVERLAY, 0, STATIC
        LOCFRAME DOVERLAY, 0, STATIC
        ARGFRAME ISTACK, 0, STACK
        ARGFRAME PSTACK, 0, STACK
        ARGFRAME XSTACK, 35, STACK
        ARGFRAME IOVERLAY, 0, STATIC
        ARGFRAME DOVERLAY, 0, STATIC
        FUNCALL SampleApp_Send_P2P_Message, HalUARTWrite
        LOCFRAME ISTACK, 0, STACK
        LOCFRAME PSTACK, 0, STACK
        LOCFRAME XSTACK, 35, STACK
        LOCFRAME IOVERLAY, 0, STATIC
        LOCFRAME DOVERLAY, 0, STATIC
        ARGFRAME ISTACK, 0, STACK
        ARGFRAME PSTACK, 0, STACK
        ARGFRAME XSTACK, 35, STACK
        ARGFRAME IOVERLAY, 0, STATIC
        ARGFRAME DOVERLAY, 0, STATIC
        FUNCALL SampleApp_Send_P2P_Message, AF_DataRequest
        LOCFRAME ISTACK, 0, STACK
        LOCFRAME PSTACK, 0, STACK
        LOCFRAME XSTACK, 44, STACK
        LOCFRAME IOVERLAY, 0, STATIC
        LOCFRAME DOVERLAY, 0, STATIC
        ARGFRAME ISTACK, 0, STACK
        ARGFRAME PSTACK, 0, STACK
        ARGFRAME XSTACK, 44, STACK
        ARGFRAME IOVERLAY, 0, STATIC
        ARGFRAME DOVERLAY, 0, STATIC
        REQUIRE ?V0
        REQUIRE ?V1
        MOV       A,#-0xa
        LCALL     ?BANKED_ENTER_XDATA
          CFI DPH0 load(1, XDATA, add(CFA_XSP16, literal(-1)))
          CFI DPL0 load(1, XDATA, add(CFA_XSP16, literal(-2)))
          CFI ?BRET_EXT load(1, XDATA, add(CFA_XSP16, literal(-3)))
          CFI ?RET_HIGH load(1, XDATA, add(CFA_XSP16, literal(-4)))
          CFI ?RET_LOW load(1, XDATA, add(CFA_XSP16, literal(-5)))
          CFI R7 load(1, XDATA, add(CFA_XSP16, literal(-6)))
          CFI V1 load(1, XDATA, add(CFA_XSP16, literal(-7)))
          CFI V0 load(1, XDATA, add(CFA_XSP16, literal(-8)))
          CFI VB load(1, XDATA, add(CFA_XSP16, literal(-9)))
          CFI R6 load(1, XDATA, add(CFA_XSP16, literal(-10)))
          CFI CFA_SP SP+0
          CFI CFA_XSP16 add(XSP16, 10)
        ; Saved register size: 10
        ; Auto size: 25
        MOV       A,#-0x19
        LCALL     ?ALLOC_XSTACK8
          CFI CFA_XSP16 add(XSP16, 35)
//  582   uint8 str[5]={0};
        MOV       DPTR,#`?<Constant {0, 0, 0, 0, 0}>`
        MOV       R4,?XSP + 0
        MOV       R5,?XSP + 1
        MOV       A,#0x5
        LCALL     ?MOVE_LONG8_XDATA_XDATA
//  583   uint8 strTemp[20]={0};
        MOV       DPTR,#`?<Constant {0, 0, 0, 0, 0, 0, 0, 0, 0, 0, 0, 0`
        MOV       A,#0x5
        LCALL     ?XSTACK_DISP102_8
        MOV       A,#0x14
        LCALL     ?MOVE_LONG8_XDATA_XDATA
//  584   int len=0;
//  585   
//  586   osal_memset(str,'\0',5);
        ; Setup parameters for call to function osal_memset
        MOV       R4,#0x5
        MOV       R5,A
        MOV       R1,A
        MOV       R2,?XSP + 0
        MOV       R3,?XSP + 1
        LCALL     `??osal_memset::?relay`; Banked call to: osal_memset
//  587   osal_memset(strTemp,'\0',20);
        ; Setup parameters for call to function osal_memset
        MOV       R4,#0x14
        MOV       R5,#0x0
        MOV       R1,#0x0
        MOV       A,#0x5
        LCALL     ?XSTACK_DISP101_8
        LCALL     `??osal_memset::?relay`; Banked call to: osal_memset
//  588   
//  589   DHT11();             //获取温湿度
        ; Setup parameters for call to function DHT11
        LCALL     `??DHT11::?relay`; Banked call to: DHT11
//  590   
//  591   HalAdcInit();
        ; Setup parameters for call to function HalAdcInit
        LCALL     `??HalAdcInit::?relay`; Banked call to: HalAdcInit
//  592   uint8 end_light_temp = HalAdcRead(HAL_ADC_CHANNEL_6,HAL_ADC_RESOLUTION_8);
        ; Setup parameters for call to function HalAdcRead
        MOV       R2,#0x1
        MOV       R1,#0x6
        LCALL     `??HalAdcRead::?relay`; Banked call to: HalAdcRead
        MOV       ?V0,R2
//  593   uint8 end_led3_temp = 0;
//  594   
//  595   if(P1_4 == 1) 
        MOV       R2,0x90+0x0
//  596     end_led3_temp = 0;
//  597   else 
//  598     end_led3_temp = 1;
//  599   
//  600   str[0] = wendu;//温度
        MOV       DPTR,#wendu
        MOVX      A,@DPTR
        MOV       DPL,?XSP + 0
        MOV       DPH,?XSP + 1
        MOVX      @DPTR,A
//  601   str[1] = shidu;//湿度
        MOV       DPTR,#shidu
        MOVX      A,@DPTR
        PUSH      A
          CFI CFA_SP SP+-1
        MOV       A,#0x1
        LCALL     ?XSTACK_DISP0_8
        POP       A
          CFI CFA_SP SP+0
        MOVX      @DPTR,A
//  602   
//  603   str[2] = end_light_temp;//亮度
        MOV       A,#0x2
        LCALL     ?XSTACK_DISP0_8
        MOV       A,?V0
        MOVX      @DPTR,A
//  604   str[3] = end_led3_temp; //led3状态
        MOV       A,R2
        MOV       C,0xE0 /* A   */.4
        JC        ??SampleApp_Send_P2P_Message_0
        SETB      B.0
        SJMP      ??SampleApp_Send_P2P_Message_1
??SampleApp_Send_P2P_Message_0:
        CLR       B.0
??SampleApp_Send_P2P_Message_1:
        MOV       C,B.0
        CLR       A
        RLC       A
        PUSH      A
          CFI CFA_SP SP+-1
        MOV       A,#0x3
        LCALL     ?XSTACK_DISP0_8
        POP       A
          CFI CFA_SP SP+0
        MOVX      @DPTR,A
//  605   len=4;
//  606 
//  607   sprintf(strTemp, "T&H:%d %d", str[0],str[1]);
        ; Setup parameters for call to function sprintf
        MOV       A,#0x1
        LCALL     ?XSTACK_DISP0_8
        MOVX      A,@DPTR
        MOV       ?V0,A
        MOV       ?V1,#0x0
        MOV       R0,#?V0
        LCALL     ?PUSH_XSTACK_I_TWO
          CFI CFA_XSP16 add(XSP16, 37)
        MOV       A,#0x2
        LCALL     ?XSTACK_DISP0_8
        MOVX      A,@DPTR
        MOV       ?V0,A
        MOV       R0,#?V0
        LCALL     ?PUSH_XSTACK_I_TWO
          CFI CFA_XSP16 add(XSP16, 39)
        MOV       R4,#`?<Constant "T&H:%d %d">` & 0xff
        MOV       R5,#(`?<Constant "T&H:%d %d">` >> 8) & 0xff
        MOV       A,#0x9
        LCALL     ?XSTACK_DISP101_8
        LCALL     `??sprintf::?relay`; Banked call to: sprintf
        MOV       A,#0x4
        LCALL     ?DEALLOC_XSTACK8
          CFI CFA_XSP16 add(XSP16, 35)
//  608   HalLcdWriteString(strTemp, HAL_LCD_LINE_3); //LCD显示
        ; Setup parameters for call to function HalLcdWriteString
        MOV       R1,#0x3
        MOV       A,#0x5
        LCALL     ?XSTACK_DISP101_8
        LCALL     `??HalLcdWriteString::?relay`; Banked call to: HalLcdWriteString
//  609 
//  610   HalUARTWrite(0, strTemp, osal_strlen(strTemp));           //串口输出提示信息
        ; Setup parameters for call to function osal_strlen
        MOV       A,#0x5
        LCALL     ?XSTACK_DISP101_8
        LCALL     `??osal_strlen::?relay`; Banked call to: osal_strlen
        MOV       ?V0,R2
        MOV       ?V1,R3
        MOV       R4,?V0
        MOV       R5,?V1
        ; Setup parameters for call to function HalUARTWrite
        MOV       A,#0x5
        LCALL     ?XSTACK_DISP101_8
        MOV       R1,#0x0
        LCALL     `??HalUARTWrite::?relay`; Banked call to: HalUARTWrite
//  611   HalUARTWrite(0, "\r\n",2);
        ; Setup parameters for call to function HalUARTWrite
        MOV       R4,#0x2
        MOV       R5,#0x0
        MOV       R2,#`?<Constant "\\r\\n">` & 0xff
        MOV       R3,#(`?<Constant "\\r\\n">` >> 8) & 0xff
        MOV       R1,#0x0
        LCALL     `??HalUARTWrite::?relay`; Banked call to: HalUARTWrite
//  612 
//  613   //无线发送到协调器
//  614   if ( AF_DataRequest( &SampleApp_P2P_DstAddr, &SampleApp_epDesc,
//  615                        SAMPLEAPP_P2P_CLUSTERID,
//  616                        len,
//  617                        str,
//  618                        &SampleApp_MsgID,
//  619                        AF_DISCV_ROUTE,
//  620                        AF_DEFAULT_RADIUS ) == afStatus_SUCCESS )
        ; Setup parameters for call to function AF_DataRequest
        MOV       ?V0,#0x1e
        MOV       R0,#?V0
        LCALL     ?PUSH_XSTACK_I_ONE
          CFI CFA_XSP16 add(XSP16, 36)
        MOV       ?V0,#SampleApp_MsgID & 0xff
        MOV       ?V1,#(SampleApp_MsgID >> 8) & 0xff
        MOV       R0,#?V0
        LCALL     ?PUSH_XSTACK_I_TWO
          CFI CFA_XSP16 add(XSP16, 38)
        MOV       A,#0x3
        LCALL     ?XSTACK_DISP100_8
        MOV       ?V0,R0
        MOV       ?V1,R1
        MOV       R0,#?V0
        LCALL     ?PUSH_XSTACK_I_TWO
          CFI CFA_XSP16 add(XSP16, 40)
        MOV       ?V0,#0x4
        MOV       ?V1,#0x0
        MOV       R0,#?V0
        LCALL     ?PUSH_XSTACK_I_TWO
          CFI CFA_XSP16 add(XSP16, 42)
        MOV       ?V0,#0x1
        MOV       R0,#?V0
        LCALL     ?PUSH_XSTACK_I_TWO
          CFI CFA_XSP16 add(XSP16, 44)
        MOV       R1,#0x20
        MOV       R4,#SampleApp_epDesc & 0xff
        MOV       R5,#(SampleApp_epDesc >> 8) & 0xff
        MOV       R2,#SampleApp_P2P_DstAddr & 0xff
        MOV       R3,#(SampleApp_P2P_DstAddr >> 8) & 0xff
        LCALL     `??AF_DataRequest::?relay`; Banked call to: AF_DataRequest
        MOV       A,#0x9
        LCALL     ?DEALLOC_XSTACK8
          CFI CFA_XSP16 add(XSP16, 35)
//  621   {
//  622     
//  623   }
//  624   else
//  625   {
//  626     // Error occurred in request to send.
//  627   }
//  628 }
        MOV       A,#0x19
        LCALL     ?DEALLOC_XSTACK8
          CFI CFA_XSP16 add(XSP16, 10)
        MOV       R7,#0x2
        LJMP      ?BANKED_LEAVE_XDATA
          CFI EndBlock cfiBlock3
        REQUIRE _A_P1
//  629 

        RSEG BANKED_CODE:HUGECODE:NOROOT(0)
//  630 void SampleApp_CallBack(uint8 port, uint8 event)
SampleApp_CallBack:
          CFI Block cfiBlock4 Using cfiCommon0
          CFI Function SampleApp_CallBack
        CODE
//  631 {
        FUNCALL SampleApp_CallBack, HalUARTRead
        LOCFRAME ISTACK, 2, STACK
        LOCFRAME PSTACK, 0, STACK
        LOCFRAME XSTACK, 0, STACK
        LOCFRAME IOVERLAY, 0, STATIC
        LOCFRAME DOVERLAY, 0, STATIC
        ARGFRAME ISTACK, 2, STACK
        ARGFRAME PSTACK, 0, STACK
        ARGFRAME XSTACK, 0, STACK
        ARGFRAME IOVERLAY, 0, STATIC
        ARGFRAME DOVERLAY, 0, STATIC
        PUSH      DPL
          CFI DPL0 Frame(CFA_SP, 4)
          CFI CFA_SP SP+-4
        PUSH      DPH
          CFI DPH0 Frame(CFA_SP, 5)
          CFI CFA_SP SP+-5
        ; Saved register size: 2
        ; Auto size: 0
//  632   (void)port;
//  633 
//  634   HalUARTRead(SAMPLE_APP_PORT, SampleApp_RxBuf, 1);
        ; Setup parameters for call to function HalUARTRead
        MOV       R4,#0x1
        MOV       R5,#0x0
        MOV       R2,#SampleApp_RxBuf & 0xff
        MOV       R3,#(SampleApp_RxBuf >> 8) & 0xff
        MOV       R1,#0x0
        LCALL     `??HalUARTRead::?relay`; Banked call to: HalUARTRead
//  635 
//  636 }
        POP       DPH
          CFI DPH0 SameValue
          CFI CFA_SP SP+-4
        POP       DPL
          CFI DPL0 SameValue
          CFI CFA_SP SP+-3
        LJMP      ?BRET
          CFI EndBlock cfiBlock4
//  637 
//  638 
//  639 #endif
//  640 
//  641 
//  642 //调试信息输出

        RSEG BANKED_CODE:HUGECODE:NOROOT(0)
//  643 void debug(uint8 * msg, ...)
debug:
          CFI Block cfiBlock5 Using cfiCommon0
          CFI Function debug
        CODE
//  644 {
        ; Saved register size: 0
        ; Auto size: 0
//  645 #if 0
//  646     uint8 len=0;
//  647     char info[200] = {0};
//  648     va_list args;
//  649 
//  650     if(msg==NULL) return;
//  651 
//  652     va_start(args, msg);
//  653     vsprintf(info, (const char*)msg, args);//从头插入到info中
//  654     va_end(args);
//  655     
//  656     // my 
//  657     
//  658     len=osal_strlen((char *)info);
//  659     if(len==0) return;
//  660     
//  661     
//  662 
//  663     HalUARTWrite(1,info, len);//串口1发送
//  664     osal_memset(info,'\0',200);
//  665 //    HAL_UART_PORT_0
//  666 #endif
//  667 }
        LJMP      ?BRET
          CFI EndBlock cfiBlock5

        RSEG XDATA_ID:CODE:NOROOT(0)
`?<Initializer for SampleApp_epDesc>`:
        DATA8
        DB 11
        DATA16
        DW SampleApp_TaskID
        DW SampleApp_SimpleDesc
        DATA8
        DB 0

        RSEG BANK_RELAYS:CODE:REORDER:NOROOT(0)
`??SampleApp_Init::?relay`:
        CODE
        LCALL   ?BDISPATCH
        DATA24
        DC24    SampleApp_Init

        RSEG BANK_RELAYS:CODE:REORDER:NOROOT(0)
`??SampleApp_HandleKeys::?relay`:
        CODE
        LCALL   ?BDISPATCH
        DATA24
        DC24    SampleApp_HandleKeys

        RSEG BANK_RELAYS:CODE:REORDER:NOROOT(0)
`??SampleApp_ProcessEvent::?relay`:
        CODE
        LCALL   ?BDISPATCH
        DATA24
        DC24    SampleApp_ProcessEvent

        RSEG BANK_RELAYS:CODE:REORDER:NOROOT(0)
`??SampleApp_Send_P2P_Message::?relay`:
        CODE
        LCALL   ?BDISPATCH
        DATA24
        DC24    SampleApp_Send_P2P_Message

        RSEG BANK_RELAYS:CODE:REORDER:NOROOT(0)
`??SampleApp_CallBack::?relay`:
        CODE
        LCALL   ?BDISPATCH
        DATA24
        DC24    SampleApp_CallBack

        RSEG BANK_RELAYS:CODE:REORDER:NOROOT(0)
`??debug::?relay`:
        CODE
        LCALL   ?BDISPATCH
        DATA24
        DC24    debug

        RSEG XDATA_ROM_C:CONST:REORDER:NOROOT(0)
        DATA8
`?<Constant {0, 0, 0, 0, 0}>`:
        DB 0
        DB 0
        DB 0
        DB 0
        DB 0

        RSEG XDATA_ROM_C:CONST:REORDER:NOROOT(0)
        DATA8
`?<Constant {0, 0, 0, 0, 0, 0, 0, 0, 0, 0, 0, 0`:
        DB 0
        DB 0
        DB 0
        DB 0
        DB 0
        DB 0
        DB 0
        DB 0
        DB 0
        DB 0
        DB 0
        DB 0
        DB 0
        DB 0
        DB 0
        DB 0
        DB 0
        DB 0
        DB 0
        DB 0

        RSEG XDATA_ROM_C:CONST:REORDER:NOROOT(0)
        DATA8
`?<Constant "T&H:%d %d">`:
        DB "T&H:%d %d"

        RSEG XDATA_ROM_C:CONST:REORDER:NOROOT(0)
        DATA8
`?<Constant "\\r\\n">`:
        DB "\015\012"

        END
//  668 
//  669 
// 
// 537 bytes in segment BANKED_CODE
//  36 bytes in segment BANK_RELAYS
//   1 byte  in segment SFR_AN
//   6 bytes in segment XDATA_I
//   6 bytes in segment XDATA_ID
//  56 bytes in segment XDATA_ROM_C
// 222 bytes in segment XDATA_Z
// 
//  42 bytes of CODE     memory
//  56 bytes of CONST    memory
//   0 bytes of DATA     memory (+ 1 byte shared)
// 537 bytes of HUGECODE memory
// 228 bytes of XDATA    memory
//
//Errors: none
//Warnings: 8
