///////////////////////////////////////////////////////////////////////////////
//
// IAR C/C++ Compiler V10.30.1.6000 for 8051              04/Sep/2021  12:32:00
// Copyright 2004-2018 IAR Systems AB.
// PC-locked license - IAR Embedded Workbench for 8051
//
//    Core               =  plain
//    Code model         =  banked
//    Data model         =  large
//    Calling convention =  xdata reentrant
//    Constant location  =  data_rom
//    Dptr setup         =  1,16
//                          
//    Source file        =  
//        C:\Users\OY\Desktop\ing\new\ZStack-2.5.1a\Projects\zstack\Samples\SampleApp\Source\mqtt.c
//    Command line       =  
//        -f C:\Users\OY\AppData\Local\Temp\EWC740.tmp
//        (C:\Users\OY\Desktop\ing\new\ZStack-2.5.1a\Projects\zstack\Samples\SampleApp\Source\mqtt.c
//        -D ZTOOL_P1 -D xMT_TASK -D xMT_SYS_FUNC -D xMT_ZDO_FUNC -D
//        LCD_SUPPORTED=DEBUG -lC
//        C:\Users\OY\Desktop\ing\new\ZStack-2.5.1a\Projects\zstack\Samples\SampleApp\CC2530DB\CoordinatorEB\List
//        -lA
//        C:\Users\OY\Desktop\ing\new\ZStack-2.5.1a\Projects\zstack\Samples\SampleApp\CC2530DB\CoordinatorEB\List
//        --diag_suppress Pe001,Pa010 -o
//        C:\Users\OY\Desktop\ing\new\ZStack-2.5.1a\Projects\zstack\Samples\SampleApp\CC2530DB\CoordinatorEB\Obj
//        -e --debug --core=plain --dptr=16,1 --data_model=large
//        --code_model=banked --calling_convention=xdata_reentrant
//        --place_constants=data_rom --nr_virtual_regs 8 -f
//        C:\Users\OY\Desktop\ing\new\ZStack-2.5.1a\Projects\zstack\Samples\SampleApp\CC2530DB\..\..\..\Tools\CC2530DB\f8wCoord.cfg
//        (-DCPU32MHZ -DROOT=__near_func -DMAC_CFG_APP_PENDING_QUEUE=TRUE
//        -DMAC_CFG_TX_DATA_MAX=5 -DMAC_CFG_TX_MAX=8 -DMAC_CFG_RX_MAX=5
//        -DZDO_COORDINATOR -DRTR_NWK) -f
//        C:\Users\OY\Desktop\ing\new\ZStack-2.5.1a\Projects\zstack\Samples\SampleApp\CC2530DB\..\..\..\Tools\CC2530DB\f8wConfig.cfg
//        (-DZIGBEEPRO -DSECURE=0 -DZG_SECURE_DYNAMIC=0 -DREFLECTOR
//        -DDEFAULT_CHANLIST=0x00000800 -DZDAPP_CONFIG_PAN_ID=0xFFF1
//        -DNWK_START_DELAY=100 -DEXTENDED_JOINING_RANDOM_MASK=0x007F
//        -DBEACON_REQUEST_DELAY=100 -DBEACON_REQ_DELAY_MASK=0x00FF
//        -DLINK_STATUS_JITTER_MASK=0x007F -DROUTE_EXPIRY_TIME=30
//        -DAPSC_ACK_WAIT_DURATION_POLLED=3000 -DNWK_INDIRECT_MSG_TIMEOUT=7
//        -DMAX_RREQ_ENTRIES=8 -DAPSC_MAX_FRAME_RETRIES=3
//        -DNWK_MAX_DATA_RETRIES=2 -DMAX_POLL_FAILURE_RETRIES=2 -DMAX_BCAST=9
//        -DAPS_MAX_GROUPS=16 -DMAX_RTG_ENTRIES=40 -DNWK_MAX_BINDING_ENTRIES=4
//        -DMAX_BINDING_CLUSTER_IDS=4 "-DDEFAULT_KEY={0x01, 0x03, 0x05, 0x07,
//        0x09, 0x0B, 0x0D, 0x0F, 0x00, 0x02, 0x04, 0x06, 0x08, 0x0A, 0x0C,
//        0x0D}" -DMAC_MAX_FRAME_SIZE=116 -DZDNWKMGR_MIN_TRANSMISSIONS=20
//        "-DCONST=const __code" -DGENERIC=__generic -DRFD_RCVC_ALWAYS_ON=FALSE
//        -DPOLL_RATE=1000 -DQUEUED_POLL_RATE=100 -DRESPONSE_POLL_RATE=100
//        -DREJOIN_POLL_RATE=440) -I
//        C:\Users\OY\Desktop\ing\new\ZStack-2.5.1a\Projects\zstack\Samples\SampleApp\CC2530DB\
//        -I
//        C:\Users\OY\Desktop\ing\new\ZStack-2.5.1a\Projects\zstack\Samples\SampleApp\CC2530DB\..\Source\
//        -I
//        C:\Users\OY\Desktop\ing\new\ZStack-2.5.1a\Projects\zstack\Samples\SampleApp\CC2530DB\..\..\..\ZMain\TI2530DB\
//        -I
//        C:\Users\OY\Desktop\ing\new\ZStack-2.5.1a\Projects\zstack\Samples\SampleApp\CC2530DB\..\..\..\..\..\Components\hal\include\
//        -I
//        C:\Users\OY\Desktop\ing\new\ZStack-2.5.1a\Projects\zstack\Samples\SampleApp\CC2530DB\..\..\..\..\..\Components\hal\target\CC2530EB\
//        -I
//        C:\Users\OY\Desktop\ing\new\ZStack-2.5.1a\Projects\zstack\Samples\SampleApp\CC2530DB\..\..\..\..\..\Components\mac\include\
//        -I
//        C:\Users\OY\Desktop\ing\new\ZStack-2.5.1a\Projects\zstack\Samples\SampleApp\CC2530DB\..\..\..\..\..\Components\mac\high_level\
//        -I
//        C:\Users\OY\Desktop\ing\new\ZStack-2.5.1a\Projects\zstack\Samples\SampleApp\CC2530DB\..\..\..\..\..\Components\mac\low_level\srf04\
//        -I
//        C:\Users\OY\Desktop\ing\new\ZStack-2.5.1a\Projects\zstack\Samples\SampleApp\CC2530DB\..\..\..\..\..\Components\mac\low_level\srf04\single_chip\
//        -I
//        C:\Users\OY\Desktop\ing\new\ZStack-2.5.1a\Projects\zstack\Samples\SampleApp\CC2530DB\..\..\..\..\..\Components\mt\
//        -I
//        C:\Users\OY\Desktop\ing\new\ZStack-2.5.1a\Projects\zstack\Samples\SampleApp\CC2530DB\..\..\..\..\..\Components\osal\include\
//        -I
//        C:\Users\OY\Desktop\ing\new\ZStack-2.5.1a\Projects\zstack\Samples\SampleApp\CC2530DB\..\..\..\..\..\Components\services\saddr\
//        -I
//        C:\Users\OY\Desktop\ing\new\ZStack-2.5.1a\Projects\zstack\Samples\SampleApp\CC2530DB\..\..\..\..\..\Components\services\sdata\
//        -I
//        C:\Users\OY\Desktop\ing\new\ZStack-2.5.1a\Projects\zstack\Samples\SampleApp\CC2530DB\..\..\..\..\..\Components\stack\af\
//        -I
//        C:\Users\OY\Desktop\ing\new\ZStack-2.5.1a\Projects\zstack\Samples\SampleApp\CC2530DB\..\..\..\..\..\Components\stack\nwk\
//        -I
//        C:\Users\OY\Desktop\ing\new\ZStack-2.5.1a\Projects\zstack\Samples\SampleApp\CC2530DB\..\..\..\..\..\Components\stack\sapi\
//        -I
//        C:\Users\OY\Desktop\ing\new\ZStack-2.5.1a\Projects\zstack\Samples\SampleApp\CC2530DB\..\..\..\..\..\Components\stack\sec\
//        -I
//        C:\Users\OY\Desktop\ing\new\ZStack-2.5.1a\Projects\zstack\Samples\SampleApp\CC2530DB\..\..\..\..\..\Components\stack\sys\
//        -I
//        C:\Users\OY\Desktop\ing\new\ZStack-2.5.1a\Projects\zstack\Samples\SampleApp\CC2530DB\..\..\..\..\..\Components\stack\zdo\
//        -I
//        C:\Users\OY\Desktop\ing\new\ZStack-2.5.1a\Projects\zstack\Samples\SampleApp\CC2530DB\..\..\..\..\..\Components\zmac\
//        -I
//        C:\Users\OY\Desktop\ing\new\ZStack-2.5.1a\Projects\zstack\Samples\SampleApp\CC2530DB\..\..\..\..\..\Components\zmac\f8w\
//        -Ohz --no_code_motion)
//    Locale             =  Chinese (Simplified)_CHN.936
//    List file          =  
//        C:\Users\OY\Desktop\ing\new\ZStack-2.5.1a\Projects\zstack\Samples\SampleApp\CC2530DB\CoordinatorEB\List\mqtt.s51
//
///////////////////////////////////////////////////////////////////////////////

        NAME mqtt

        RTMODEL "__SystemLibrary", "CLib"
        RTMODEL "__calling_convention", "xdata_reentrant"
        RTMODEL "__code_model", "banked"
        RTMODEL "__core", "plain"
        RTMODEL "__data_model", "large"
        RTMODEL "__dptr_size", "16"
        RTMODEL "__extended_stack", "disabled"
        RTMODEL "__iar_require _formatted_write", ""
        RTMODEL "__location_for_constants", "data"
        RTMODEL "__number_of_dptrs", "1"
        RTMODEL "__register_banks", "*"
        RTMODEL "__rt_version", "1"

        RSEG DOVERLAY:DATA:NOROOT(0)
        RSEG IOVERLAY:IDATA:NOROOT(0)
        RSEG ISTACK:IDATA:NOROOT(0)
        RSEG PSTACK:XDATA:NOROOT(0)
        RSEG XSTACK:XDATA:NOROOT(0)

        EXTERN ?V0
        EXTERN ?V1
        EXTERN ?V2
        EXTERN ?V3
        EXTERN ?V4
        EXTERN ?V5
        EXTERN ?V6
        EXTERN ?V7
        EXTERN ?ALLOC_XSTACK8
        EXTERN ?BANKED_ENTER_XDATA
        EXTERN ?BANKED_LEAVE_XDATA
        EXTERN ?BDISPATCH
        EXTERN ?DEALLOC_XSTACK8
        EXTERN ?L_MOV_X
        EXTERN ?MOVE_LONG8_XDATA_XDATA
        EXTERN ?PUSH_XSTACK8_X_FOUR
        EXTERN ?PUSH_XSTACK8_X_TWO
        EXTERN ?PUSH_XSTACK_I_FOUR
        EXTERN ?PUSH_XSTACK_I_ONE
        EXTERN ?PUSH_XSTACK_I_TWO
        EXTERN ?XSP
        EXTERN ?XSTACK_DISP0_8
        EXTERN ?XSTACK_DISP100_8
        EXTERN ?XSTACK_DISP101_8
        EXTERN ?XSTACK_DISP102_8
        EXTERN __INIT_XDATA_Z

        PUBLIC `??OneNet_DevLink::?relay`
        FUNCTION `??OneNet_DevLink::?relay`,0203H
        PUBLIC `??OneNet_RevPro::?relay`
        FUNCTION `??OneNet_RevPro::?relay`,0203H
        PUBLIC `??mqtt_publish_topic::?relay`
        FUNCTION `??mqtt_publish_topic::?relay`,0203H
        PUBLIC `??mqtt_subscribe_topic::?relay`
        FUNCTION `??mqtt_subscribe_topic::?relay`,0203H
        PUBLIC `??onenet_mqtt_send_heart::?relay`
        FUNCTION `??onenet_mqtt_send_heart::?relay`,0203H
        PUBLIC OneNet_DevLink
        FUNCTION OneNet_DevLink,0a1203H
        ARGFRAME XSTACK, 0, STACK
        LOCFRAME XSTACK, 38, STACK
        PUBLIC OneNet_RevPro
        FUNCTION OneNet_RevPro,0a1203H
        ARGFRAME XSTACK, 0, STACK
        LOCFRAME XSTACK, 38, STACK
        PUBWEAK __Constant_0
        PUBWEAK __Constant_1
        PUBLIC cmdid_topic
        PUBLIC mqttUsername
        PUBLIC mqtt_publish_topic
        FUNCTION mqtt_publish_topic,0a1203H
        ARGFRAME XSTACK, 0, STACK
        LOCFRAME XSTACK, 43, STACK
        PUBLIC mqtt_subscribe_topic
        FUNCTION mqtt_subscribe_topic,0a1203H
        ARGFRAME XSTACK, 0, STACK
        LOCFRAME XSTACK, 30, STACK
        PUBLIC onenet_mqtt_send_heart
        FUNCTION onenet_mqtt_send_heart,0a1203H
        ARGFRAME XSTACK, 0, STACK
        LOCFRAME XSTACK, 23, STACK
        PUBLIC packet_buff
        PUBLIC req_payload
        
          CFI Names cfiNames0
          CFI StackFrame CFA_SP SP IDATA
          CFI StackFrame CFA_PSP16 PSP16 XDATA
          CFI StackFrame CFA_XSP16 XSP16 XDATA
          CFI StaticOverlayFrame CFA_IOVERLAY IOVERLAY
          CFI StaticOverlayFrame CFA_DOVERLAY DOVERLAY
          CFI Resource `PSW.CY`:1, `B.BR0`:1, `B.BR1`:1, `B.BR2`:1, `B.BR3`:1
          CFI Resource `B.BR4`:1, `B.BR5`:1, `B.BR6`:1, `B.BR7`:1, `VB.BR8`:1
          CFI Resource `VB.BR9`:1, `VB.BR10`:1, `VB.BR11`:1, `VB.BR12`:1
          CFI Resource `VB.BR13`:1, `VB.BR14`:1, `VB.BR15`:1, VB:8, B:8, A:8
          CFI Resource PSW:8, DPL0:8, DPH0:8, R0:8, R1:8, R2:8, R3:8, R4:8, R5:8
          CFI Resource R6:8, R7:8, V0:8, V1:8, V2:8, V3:8, V4:8, V5:8, V6:8, V7:8
          CFI Resource SP:8, PSPH:8, PSPL:8, PSP16:16, XSPH:8, XSPL:8, XSP16:16
          CFI VirtualResource ?RET:24
          CFI Resource ?BRET_EXT:8
          CFI VirtualResource ?RET_HIGH:8, ?RET_LOW:8
          CFI ResourceParts PSP16 PSPH, PSPL
          CFI ResourceParts XSP16 XSPH, XSPL
          CFI ResourceParts ?RET ?BRET_EXT, ?RET_HIGH, ?RET_LOW
          CFI EndNames cfiNames0
        
          CFI Common cfiCommon0 Using cfiNames0
          CFI CodeAlign 1
          CFI DataAlign -1
          CFI ReturnAddress ?RET CODE
          CFI CFA_DOVERLAY Used
          CFI CFA_IOVERLAY Used
          CFI CFA_SP SP+-3
          CFI CFA_PSP16 PSP16+0
          CFI CFA_XSP16 XSP16+0
          CFI `PSW.CY` SameValue
          CFI `B.BR0` SameValue
          CFI `B.BR1` SameValue
          CFI `B.BR2` SameValue
          CFI `B.BR3` SameValue
          CFI `B.BR4` SameValue
          CFI `B.BR5` SameValue
          CFI `B.BR6` SameValue
          CFI `B.BR7` SameValue
          CFI `VB.BR8` SameValue
          CFI `VB.BR9` SameValue
          CFI `VB.BR10` SameValue
          CFI `VB.BR11` SameValue
          CFI `VB.BR12` SameValue
          CFI `VB.BR13` SameValue
          CFI `VB.BR14` SameValue
          CFI `VB.BR15` SameValue
          CFI VB SameValue
          CFI B Undefined
          CFI A Undefined
          CFI PSW SameValue
          CFI DPL0 SameValue
          CFI DPH0 SameValue
          CFI R0 Undefined
          CFI R1 Undefined
          CFI R2 Undefined
          CFI R3 Undefined
          CFI R4 Undefined
          CFI R5 Undefined
          CFI R6 SameValue
          CFI R7 SameValue
          CFI V0 SameValue
          CFI V1 SameValue
          CFI V2 SameValue
          CFI V3 SameValue
          CFI V4 SameValue
          CFI V5 SameValue
          CFI V6 SameValue
          CFI V7 SameValue
          CFI PSPH Undefined
          CFI PSPL Undefined
          CFI XSPH Undefined
          CFI XSPL Undefined
          CFI ?RET Concat
          CFI ?BRET_EXT Frame(CFA_SP, 3)
          CFI ?RET_HIGH Frame(CFA_SP, 2)
          CFI ?RET_LOW Frame(CFA_SP, 1)
          CFI EndCommon cfiCommon0
        
        
          CFI Common cfiCommon1 Using cfiNames0
          CFI CodeAlign 1
          CFI DataAlign -1
          CFI ReturnAddress ?RET CODE
          CFI CFA_DOVERLAY Used
          CFI CFA_IOVERLAY Used
          CFI CFA_SP SP+-2
          CFI CFA_PSP16 PSP16+0
          CFI CFA_XSP16 XSP16+0
          CFI `PSW.CY` SameValue
          CFI `B.BR0` SameValue
          CFI `B.BR1` SameValue
          CFI `B.BR2` SameValue
          CFI `B.BR3` SameValue
          CFI `B.BR4` SameValue
          CFI `B.BR5` SameValue
          CFI `B.BR6` SameValue
          CFI `B.BR7` SameValue
          CFI `VB.BR8` SameValue
          CFI `VB.BR9` SameValue
          CFI `VB.BR10` SameValue
          CFI `VB.BR11` SameValue
          CFI `VB.BR12` SameValue
          CFI `VB.BR13` SameValue
          CFI `VB.BR14` SameValue
          CFI `VB.BR15` SameValue
          CFI VB SameValue
          CFI B SameValue
          CFI A SameValue
          CFI PSW SameValue
          CFI DPL0 SameValue
          CFI DPH0 SameValue
          CFI R0 SameValue
          CFI R1 SameValue
          CFI R2 SameValue
          CFI R3 SameValue
          CFI R4 SameValue
          CFI R5 SameValue
          CFI R6 SameValue
          CFI R7 SameValue
          CFI V0 SameValue
          CFI V1 SameValue
          CFI V2 SameValue
          CFI V3 SameValue
          CFI V4 SameValue
          CFI V5 SameValue
          CFI V6 SameValue
          CFI V7 SameValue
          CFI PSPH Undefined
          CFI PSPL Undefined
          CFI XSPH Undefined
          CFI XSPL Undefined
          CFI ?RET Concat
          CFI ?BRET_EXT SameValue
          CFI ?RET_HIGH Frame(CFA_SP, 2)
          CFI ?RET_LOW Frame(CFA_SP, 1)
          CFI EndCommon cfiCommon1
        
ESP8266_SendData    SYMBOL "ESP8266_SendData"
`??ESP8266_SendData::?relay` SYMBOL "?relay", ESP8266_SendData
HalLedBlink         SYMBOL "HalLedBlink"
`??HalLedBlink::?relay` SYMBOL "?relay", HalLedBlink
MQTT_DeleteBuffer   SYMBOL "MQTT_DeleteBuffer"
`??MQTT_DeleteBuffer::?relay` SYMBOL "?relay", MQTT_DeleteBuffer
MQTT_PacketCmdResp  SYMBOL "MQTT_PacketCmdResp"
`??MQTT_PacketCmdResp::?relay` SYMBOL "?relay", MQTT_PacketCmdResp
MQTT_PacketConnect  SYMBOL "MQTT_PacketConnect"
`??MQTT_PacketConnect::?relay` SYMBOL "?relay", MQTT_PacketConnect
MQTT_PacketPing     SYMBOL "MQTT_PacketPing"
`??MQTT_PacketPing::?relay` SYMBOL "?relay", MQTT_PacketPing
MQTT_PacketPublish  SYMBOL "MQTT_PacketPublish"
`??MQTT_PacketPublish::?relay` SYMBOL "?relay", MQTT_PacketPublish
MQTT_PacketPublishAck SYMBOL "MQTT_PacketPublishAck"
`??MQTT_PacketPublishAck::?relay` SYMBOL "?relay", MQTT_PacketPublishAck
MQTT_PacketPublishComp SYMBOL "MQTT_PacketPublishComp"
`??MQTT_PacketPublishComp::?relay` SYMBOL "?relay", MQTT_PacketPublishComp
MQTT_PacketPublishRec SYMBOL "MQTT_PacketPublishRec"
`??MQTT_PacketPublishRec::?relay` SYMBOL "?relay", MQTT_PacketPublishRec
MQTT_PacketPublishRel SYMBOL "MQTT_PacketPublishRel"
`??MQTT_PacketPublishRel::?relay` SYMBOL "?relay", MQTT_PacketPublishRel
MQTT_PacketSubscribe SYMBOL "MQTT_PacketSubscribe"
`??MQTT_PacketSubscribe::?relay` SYMBOL "?relay", MQTT_PacketSubscribe
MQTT_UnPacketCmd    SYMBOL "MQTT_UnPacketCmd"
`??MQTT_UnPacketCmd::?relay` SYMBOL "?relay", MQTT_UnPacketCmd
MQTT_UnPacketPublish SYMBOL "MQTT_UnPacketPublish"
`??MQTT_UnPacketPublish::?relay` SYMBOL "?relay", MQTT_UnPacketPublish
MQTT_UnPacketPublishAck SYMBOL "MQTT_UnPacketPublishAck"
`??MQTT_UnPacketPublishAck::?relay` SYMBOL "?relay", MQTT_UnPacketPublishAck
MQTT_UnPacketPublishComp SYMBOL "MQTT_UnPacketPublishComp"
`??MQTT_UnPacketPublishComp::?relay` SYMBOL "?relay", MQTT_UnPacketPublishComp
MQTT_UnPacketPublishRec SYMBOL "MQTT_UnPacketPublishRec"
`??MQTT_UnPacketPublishRec::?relay` SYMBOL "?relay", MQTT_UnPacketPublishRec
MQTT_UnPacketPublishRel SYMBOL "MQTT_UnPacketPublishRel"
`??MQTT_UnPacketPublishRel::?relay` SYMBOL "?relay", MQTT_UnPacketPublishRel
MQTT_UnPacketRecv   SYMBOL "MQTT_UnPacketRecv"
`??MQTT_UnPacketRecv::?relay` SYMBOL "?relay", MQTT_UnPacketRecv
MQTT_UnPacketSubscribe SYMBOL "MQTT_UnPacketSubscribe"
`??MQTT_UnPacketSubscribe::?relay` SYMBOL "?relay", MQTT_UnPacketSubscribe
MQTT_UnPacketUnSubscribe SYMBOL "MQTT_UnPacketUnSubscribe"
`??MQTT_UnPacketUnSubscribe::?relay` SYMBOL "?relay", MQTT_UnPacketUnSubscribe
debug               SYMBOL "debug"
`??debug::?relay`   SYMBOL "?relay", debug
mqtt_rx             SYMBOL "mqtt_rx"
`??mqtt_rx::?relay` SYMBOL "?relay", mqtt_rx
sprintf             SYMBOL "sprintf"
`??sprintf::?relay` SYMBOL "?relay", sprintf
strlen              SYMBOL "strlen"
`??strlen::?relay`  SYMBOL "?relay", strlen
OneNet_DevLink      SYMBOL "OneNet_DevLink"
`??OneNet_DevLink::?relay` SYMBOL "?relay", OneNet_DevLink
OneNet_RevPro       SYMBOL "OneNet_RevPro"
`??OneNet_RevPro::?relay` SYMBOL "?relay", OneNet_RevPro
mqtt_publish_topic  SYMBOL "mqtt_publish_topic"
`??mqtt_publish_topic::?relay` SYMBOL "?relay", mqtt_publish_topic
mqtt_subscribe_topic SYMBOL "mqtt_subscribe_topic"
`??mqtt_subscribe_topic::?relay` SYMBOL "?relay", mqtt_subscribe_topic
onenet_mqtt_send_heart SYMBOL "onenet_mqtt_send_heart"
`??onenet_mqtt_send_heart::?relay` SYMBOL "?relay", onenet_mqtt_send_heart

        EXTERN `??ESP8266_SendData::?relay`
        FUNCTION `??ESP8266_SendData::?relay`,00H
        EXTERN `??HalLedBlink::?relay`
        FUNCTION `??HalLedBlink::?relay`,00H
        EXTERN `??MQTT_DeleteBuffer::?relay`
        FUNCTION `??MQTT_DeleteBuffer::?relay`,00H
        EXTERN `??MQTT_PacketCmdResp::?relay`
        FUNCTION `??MQTT_PacketCmdResp::?relay`,00H
        EXTERN `??MQTT_PacketConnect::?relay`
        FUNCTION `??MQTT_PacketConnect::?relay`,00H
        EXTERN `??MQTT_PacketPing::?relay`
        FUNCTION `??MQTT_PacketPing::?relay`,00H
        EXTERN `??MQTT_PacketPublish::?relay`
        FUNCTION `??MQTT_PacketPublish::?relay`,00H
        EXTERN `??MQTT_PacketPublishAck::?relay`
        FUNCTION `??MQTT_PacketPublishAck::?relay`,00H
        EXTERN `??MQTT_PacketPublishComp::?relay`
        FUNCTION `??MQTT_PacketPublishComp::?relay`,00H
        EXTERN `??MQTT_PacketPublishRec::?relay`
        FUNCTION `??MQTT_PacketPublishRec::?relay`,00H
        EXTERN `??MQTT_PacketPublishRel::?relay`
        FUNCTION `??MQTT_PacketPublishRel::?relay`,00H
        EXTERN `??MQTT_PacketSubscribe::?relay`
        FUNCTION `??MQTT_PacketSubscribe::?relay`,00H
        EXTERN `??MQTT_UnPacketCmd::?relay`
        FUNCTION `??MQTT_UnPacketCmd::?relay`,00H
        EXTERN `??MQTT_UnPacketPublish::?relay`
        FUNCTION `??MQTT_UnPacketPublish::?relay`,00H
        EXTERN `??MQTT_UnPacketPublishAck::?relay`
        FUNCTION `??MQTT_UnPacketPublishAck::?relay`,00H
        EXTERN `??MQTT_UnPacketPublishComp::?relay`
        FUNCTION `??MQTT_UnPacketPublishComp::?relay`,00H
        EXTERN `??MQTT_UnPacketPublishRec::?relay`
        FUNCTION `??MQTT_UnPacketPublishRec::?relay`,00H
        EXTERN `??MQTT_UnPacketPublishRel::?relay`
        FUNCTION `??MQTT_UnPacketPublishRel::?relay`,00H
        EXTERN `??MQTT_UnPacketRecv::?relay`
        FUNCTION `??MQTT_UnPacketRecv::?relay`,00H
        EXTERN `??MQTT_UnPacketSubscribe::?relay`
        FUNCTION `??MQTT_UnPacketSubscribe::?relay`,00H
        EXTERN `??MQTT_UnPacketUnSubscribe::?relay`
        FUNCTION `??MQTT_UnPacketUnSubscribe::?relay`,00H
        EXTERN `??debug::?relay`
        FUNCTION `??debug::?relay`,00H
        EXTERN `??mqtt_rx::?relay`
        FUNCTION `??mqtt_rx::?relay`,00H
        EXTERN `??sprintf::?relay`
        FUNCTION `??sprintf::?relay`,00H
        EXTERN `??strlen::?relay`
        FUNCTION `??strlen::?relay`,00H
        EXTERN ESP8266_SendData
        FUNCTION ESP8266_SendData,0202H
        ARGFRAME ISTACK, 0, STACK
        ARGFRAME PSTACK, 0, STACK
        ARGFRAME XSTACK, 28, STACK
        ARGFRAME IOVERLAY, 0, STATIC
        ARGFRAME DOVERLAY, 0, STATIC
        EXTERN HalLedBlink
        FUNCTION HalLedBlink,0202H
        ARGFRAME ISTACK, 0, STACK
        ARGFRAME PSTACK, 0, STACK
        ARGFRAME XSTACK, 28, STACK
        ARGFRAME IOVERLAY, 0, STATIC
        ARGFRAME DOVERLAY, 0, STATIC
        EXTERN MQTT_DeleteBuffer
        FUNCTION MQTT_DeleteBuffer,0202H
        ARGFRAME ISTACK, 0, STACK
        ARGFRAME PSTACK, 0, STACK
        ARGFRAME XSTACK, 28, STACK
        ARGFRAME IOVERLAY, 0, STATIC
        ARGFRAME DOVERLAY, 0, STATIC
        EXTERN MQTT_PacketCmdResp
        FUNCTION MQTT_PacketCmdResp,0202H
        ARGFRAME ISTACK, 0, STACK
        ARGFRAME PSTACK, 0, STACK
        ARGFRAME XSTACK, 30, STACK
        ARGFRAME IOVERLAY, 0, STATIC
        ARGFRAME DOVERLAY, 0, STATIC
        EXTERN MQTT_PacketConnect
        FUNCTION MQTT_PacketConnect,0202H
        ARGFRAME ISTACK, 0, STACK
        ARGFRAME PSTACK, 0, STACK
        ARGFRAME XSTACK, 38, STACK
        ARGFRAME IOVERLAY, 0, STATIC
        ARGFRAME DOVERLAY, 0, STATIC
        EXTERN MQTT_PacketPing
        FUNCTION MQTT_PacketPing,0202H
        ARGFRAME ISTACK, 0, STACK
        ARGFRAME PSTACK, 0, STACK
        ARGFRAME XSTACK, 23, STACK
        ARGFRAME IOVERLAY, 0, STATIC
        ARGFRAME DOVERLAY, 0, STATIC
        EXTERN MQTT_PacketPublish
        FUNCTION MQTT_PacketPublish,0202H
        ARGFRAME ISTACK, 0, STACK
        ARGFRAME PSTACK, 0, STACK
        ARGFRAME XSTACK, 43, STACK
        ARGFRAME IOVERLAY, 0, STATIC
        ARGFRAME DOVERLAY, 0, STATIC
        EXTERN MQTT_PacketPublishAck
        FUNCTION MQTT_PacketPublishAck,0202H
        ARGFRAME ISTACK, 0, STACK
        ARGFRAME PSTACK, 0, STACK
        ARGFRAME XSTACK, 28, STACK
        ARGFRAME IOVERLAY, 0, STATIC
        ARGFRAME DOVERLAY, 0, STATIC
        EXTERN MQTT_PacketPublishComp
        FUNCTION MQTT_PacketPublishComp,0202H
        ARGFRAME ISTACK, 0, STACK
        ARGFRAME PSTACK, 0, STACK
        ARGFRAME XSTACK, 28, STACK
        ARGFRAME IOVERLAY, 0, STATIC
        ARGFRAME DOVERLAY, 0, STATIC
        EXTERN MQTT_PacketPublishRec
        FUNCTION MQTT_PacketPublishRec,0202H
        ARGFRAME ISTACK, 0, STACK
        ARGFRAME PSTACK, 0, STACK
        ARGFRAME XSTACK, 28, STACK
        ARGFRAME IOVERLAY, 0, STATIC
        ARGFRAME DOVERLAY, 0, STATIC
        EXTERN MQTT_PacketPublishRel
        FUNCTION MQTT_PacketPublishRel,0202H
        ARGFRAME ISTACK, 0, STACK
        ARGFRAME PSTACK, 0, STACK
        ARGFRAME XSTACK, 28, STACK
        ARGFRAME IOVERLAY, 0, STATIC
        ARGFRAME DOVERLAY, 0, STATIC
        EXTERN MQTT_PacketSubscribe
        FUNCTION MQTT_PacketSubscribe,0202H
        ARGFRAME ISTACK, 0, STACK
        ARGFRAME PSTACK, 0, STACK
        ARGFRAME XSTACK, 30, STACK
        ARGFRAME IOVERLAY, 0, STATIC
        ARGFRAME DOVERLAY, 0, STATIC
        EXTERN MQTT_UnPacketCmd
        FUNCTION MQTT_UnPacketCmd,0202H
        ARGFRAME ISTACK, 0, STACK
        ARGFRAME PSTACK, 0, STACK
        ARGFRAME XSTACK, 32, STACK
        ARGFRAME IOVERLAY, 0, STATIC
        ARGFRAME DOVERLAY, 0, STATIC
        EXTERN MQTT_UnPacketPublish
        FUNCTION MQTT_UnPacketPublish,0202H
        ARGFRAME ISTACK, 0, STACK
        ARGFRAME PSTACK, 0, STACK
        ARGFRAME XSTACK, 38, STACK
        ARGFRAME IOVERLAY, 0, STATIC
        ARGFRAME DOVERLAY, 0, STATIC
        EXTERN MQTT_UnPacketPublishAck
        FUNCTION MQTT_UnPacketPublishAck,0202H
        ARGFRAME ISTACK, 0, STACK
        ARGFRAME PSTACK, 0, STACK
        ARGFRAME XSTACK, 28, STACK
        ARGFRAME IOVERLAY, 0, STATIC
        ARGFRAME DOVERLAY, 0, STATIC
        EXTERN MQTT_UnPacketPublishComp
        FUNCTION MQTT_UnPacketPublishComp,0202H
        ARGFRAME ISTACK, 0, STACK
        ARGFRAME PSTACK, 0, STACK
        ARGFRAME XSTACK, 28, STACK
        ARGFRAME IOVERLAY, 0, STATIC
        ARGFRAME DOVERLAY, 0, STATIC
        EXTERN MQTT_UnPacketPublishRec
        FUNCTION MQTT_UnPacketPublishRec,0202H
        ARGFRAME ISTACK, 0, STACK
        ARGFRAME PSTACK, 0, STACK
        ARGFRAME XSTACK, 28, STACK
        ARGFRAME IOVERLAY, 0, STATIC
        ARGFRAME DOVERLAY, 0, STATIC
        EXTERN MQTT_UnPacketPublishRel
        FUNCTION MQTT_UnPacketPublishRel,0202H
        ARGFRAME ISTACK, 0, STACK
        ARGFRAME PSTACK, 0, STACK
        ARGFRAME XSTACK, 28, STACK
        ARGFRAME IOVERLAY, 0, STATIC
        ARGFRAME DOVERLAY, 0, STATIC
        EXTERN MQTT_UnPacketRecv
        FUNCTION MQTT_UnPacketRecv,0202H
        ARGFRAME ISTACK, 0, STACK
        ARGFRAME PSTACK, 0, STACK
        ARGFRAME XSTACK, 28, STACK
        ARGFRAME IOVERLAY, 0, STATIC
        ARGFRAME DOVERLAY, 0, STATIC
        EXTERN MQTT_UnPacketSubscribe
        FUNCTION MQTT_UnPacketSubscribe,0202H
        ARGFRAME ISTACK, 0, STACK
        ARGFRAME PSTACK, 0, STACK
        ARGFRAME XSTACK, 28, STACK
        ARGFRAME IOVERLAY, 0, STATIC
        ARGFRAME DOVERLAY, 0, STATIC
        EXTERN MQTT_UnPacketUnSubscribe
        FUNCTION MQTT_UnPacketUnSubscribe,0202H
        ARGFRAME ISTACK, 0, STACK
        ARGFRAME PSTACK, 0, STACK
        ARGFRAME XSTACK, 28, STACK
        ARGFRAME IOVERLAY, 0, STATIC
        ARGFRAME DOVERLAY, 0, STATIC
        EXTERN debug
        FUNCTION debug,0202H
        ARGFRAME ISTACK, 0, STACK
        ARGFRAME PSTACK, 0, STACK
        ARGFRAME XSTACK, 36, STACK
        ARGFRAME IOVERLAY, 0, STATIC
        ARGFRAME DOVERLAY, 0, STATIC
        EXTERN mqtt_rx
        FUNCTION mqtt_rx,0202H
        ARGFRAME ISTACK, 0, STACK
        ARGFRAME PSTACK, 0, STACK
        ARGFRAME XSTACK, 28, STACK
        ARGFRAME IOVERLAY, 0, STATIC
        ARGFRAME DOVERLAY, 0, STATIC
        EXTERN sprintf
        FUNCTION sprintf,0202H
        ARGFRAME ISTACK, 0, STACK
        ARGFRAME PSTACK, 0, STACK
        ARGFRAME XSTACK, 27, STACK
        ARGFRAME IOVERLAY, 0, STATIC
        ARGFRAME DOVERLAY, 0, STATIC
        EXTERN strlen
        FUNCTION strlen,010202H
        ARGFRAME ISTACK, 0, STACK
        ARGFRAME PSTACK, 0, STACK
        ARGFRAME XSTACK, 27, STACK
        ARGFRAME IOVERLAY, 0, STATIC
        ARGFRAME DOVERLAY, 0, STATIC

// C:\Users\OY\Desktop\ing\new\ZStack-2.5.1a\Projects\zstack\Samples\SampleApp\Source\mqtt.c
//    1 /**
//    2 	************************************************************
//    3 	************************************************************
//    4 	************************************************************
//    5 	*	文件名： 	onenet.c
//    6 	*
//    7 	*	作者： 		
//    8 	*
//    9 	*	日期： 		2017-05-08
//   10 	*
//   11 	*	版本： 		V1.1
//   12 	*
//   13 	*	说明： 		与onenet平台的数据交互接口层
//   14 	*
//   15 	*	修改记录：	V1.0：协议封装、返回判断都在同一个文件，并且不同协议接口不同。
//   16 	*				V1.1：提供统一接口供应用层使用，根据不同协议文件来封装协议相关的内容。
//   17 	************************************************************
//   18 	************************************************************
//   19 	************************************************************
//   20 **/
//   21 //协议文件
//   22 #include "mqtt.h"
//   23 #include "mqttkit.h"
//   24 
//   25 //C库
//   26 #include <string.h>
//   27 #include <stdio.h>
//   28 #include "hal_led.h"
//   29 

        RSEG XDATA_Z:XDATA:NOROOT(0)
        DATA8
//   30 uint8 packet_buff[max_packet_len]={0};
packet_buff:
        DS 300
        REQUIRE __INIT_XDATA_Z
//   31 

        RSEG XDATA_Z:XDATA:NOROOT(0)
        DATA8
//   32 char cmdid_topic[MAX_CMDID_TOPIC_LEN+1] = {0};
cmdid_topic:
        DS 51
        REQUIRE __INIT_XDATA_Z

        RSEG XDATA_Z:XDATA:NOROOT(0)
        DATA8
//   33 char req_payload[MAX_REQ_PAYLOAD_LEN+1] = {0};
req_payload:
        DS 101
        REQUIRE __INIT_XDATA_Z
//   34 

        RSEG XDATA_Z:XDATA:NOROOT(0)
        DATA8
//   35 unsigned char mqttUsername[30]={0};
mqttUsername:
        DS 30
        REQUIRE __INIT_XDATA_Z
//   36 //==========================================================
//   37 //	函数名称：	OneNet_DevLink
//   38 //
//   39 //	函数功能：	与onenet创建连接
//   40 //
//   41 //	入口参数：	无
//   42 //
//   43 //	返回参数：	0-成功	1-失败
//   44 //
//   45 //	说明：		与onenet平台建立连接
//   46 //==========================================================

        RSEG BANKED_CODE:HUGECODE:NOROOT(0)
//   47 _Bool OneNet_DevLink(void)
OneNet_DevLink:
          CFI Block cfiBlock0 Using cfiCommon0
          CFI Function OneNet_DevLink
        CODE
//   48 {
        FUNCALL OneNet_DevLink, sprintf
        LOCFRAME ISTACK, 0, STACK
        LOCFRAME PSTACK, 0, STACK
        LOCFRAME XSTACK, 27, STACK
        LOCFRAME IOVERLAY, 0, STATIC
        LOCFRAME DOVERLAY, 0, STATIC
        ARGFRAME ISTACK, 0, STACK
        ARGFRAME PSTACK, 0, STACK
        ARGFRAME XSTACK, 27, STACK
        ARGFRAME IOVERLAY, 0, STATIC
        ARGFRAME DOVERLAY, 0, STATIC
        FUNCALL OneNet_DevLink, debug
        LOCFRAME ISTACK, 0, STACK
        LOCFRAME PSTACK, 0, STACK
        LOCFRAME XSTACK, 23, STACK
        LOCFRAME IOVERLAY, 0, STATIC
        LOCFRAME DOVERLAY, 0, STATIC
        ARGFRAME ISTACK, 0, STACK
        ARGFRAME PSTACK, 0, STACK
        ARGFRAME XSTACK, 23, STACK
        ARGFRAME IOVERLAY, 0, STATIC
        ARGFRAME DOVERLAY, 0, STATIC
        FUNCALL OneNet_DevLink, MQTT_PacketConnect
        LOCFRAME ISTACK, 0, STACK
        LOCFRAME PSTACK, 0, STACK
        LOCFRAME XSTACK, 38, STACK
        LOCFRAME IOVERLAY, 0, STATIC
        LOCFRAME DOVERLAY, 0, STATIC
        ARGFRAME ISTACK, 0, STACK
        ARGFRAME PSTACK, 0, STACK
        ARGFRAME XSTACK, 38, STACK
        ARGFRAME IOVERLAY, 0, STATIC
        ARGFRAME DOVERLAY, 0, STATIC
        FUNCALL OneNet_DevLink, ESP8266_SendData
        LOCFRAME ISTACK, 0, STACK
        LOCFRAME PSTACK, 0, STACK
        LOCFRAME XSTACK, 23, STACK
        LOCFRAME IOVERLAY, 0, STATIC
        LOCFRAME DOVERLAY, 0, STATIC
        ARGFRAME ISTACK, 0, STACK
        ARGFRAME PSTACK, 0, STACK
        ARGFRAME XSTACK, 23, STACK
        ARGFRAME IOVERLAY, 0, STATIC
        ARGFRAME DOVERLAY, 0, STATIC
        FUNCALL OneNet_DevLink, MQTT_DeleteBuffer
        LOCFRAME ISTACK, 0, STACK
        LOCFRAME PSTACK, 0, STACK
        LOCFRAME XSTACK, 23, STACK
        LOCFRAME IOVERLAY, 0, STATIC
        LOCFRAME DOVERLAY, 0, STATIC
        ARGFRAME ISTACK, 0, STACK
        ARGFRAME PSTACK, 0, STACK
        ARGFRAME XSTACK, 23, STACK
        ARGFRAME IOVERLAY, 0, STATIC
        ARGFRAME DOVERLAY, 0, STATIC
        FUNCALL OneNet_DevLink, debug
        LOCFRAME ISTACK, 0, STACK
        LOCFRAME PSTACK, 0, STACK
        LOCFRAME XSTACK, 23, STACK
        LOCFRAME IOVERLAY, 0, STATIC
        LOCFRAME DOVERLAY, 0, STATIC
        ARGFRAME ISTACK, 0, STACK
        ARGFRAME PSTACK, 0, STACK
        ARGFRAME XSTACK, 23, STACK
        ARGFRAME IOVERLAY, 0, STATIC
        ARGFRAME DOVERLAY, 0, STATIC
        FUNCALL OneNet_DevLink, debug
        LOCFRAME ISTACK, 0, STACK
        LOCFRAME PSTACK, 0, STACK
        LOCFRAME XSTACK, 23, STACK
        LOCFRAME IOVERLAY, 0, STATIC
        LOCFRAME DOVERLAY, 0, STATIC
        ARGFRAME ISTACK, 0, STACK
        ARGFRAME PSTACK, 0, STACK
        ARGFRAME XSTACK, 23, STACK
        ARGFRAME IOVERLAY, 0, STATIC
        ARGFRAME DOVERLAY, 0, STATIC
        REQUIRE ?V0
        REQUIRE ?V1
        REQUIRE ?V2
        REQUIRE ?V3
        MOV       A,#-0xc
        LCALL     ?BANKED_ENTER_XDATA
          CFI DPH0 load(1, XDATA, add(CFA_XSP16, literal(-1)))
          CFI DPL0 load(1, XDATA, add(CFA_XSP16, literal(-2)))
          CFI ?BRET_EXT load(1, XDATA, add(CFA_XSP16, literal(-3)))
          CFI ?RET_HIGH load(1, XDATA, add(CFA_XSP16, literal(-4)))
          CFI ?RET_LOW load(1, XDATA, add(CFA_XSP16, literal(-5)))
          CFI R7 load(1, XDATA, add(CFA_XSP16, literal(-6)))
          CFI V3 load(1, XDATA, add(CFA_XSP16, literal(-7)))
          CFI V2 load(1, XDATA, add(CFA_XSP16, literal(-8)))
          CFI V1 load(1, XDATA, add(CFA_XSP16, literal(-9)))
          CFI V0 load(1, XDATA, add(CFA_XSP16, literal(-10)))
          CFI VB load(1, XDATA, add(CFA_XSP16, literal(-11)))
          CFI R6 load(1, XDATA, add(CFA_XSP16, literal(-12)))
          CFI CFA_SP SP+0
          CFI CFA_XSP16 add(XSP16, 12)
        ; Saved register size: 12
        ; Auto size: 11
        MOV       A,#-0xb
        LCALL     ?ALLOC_XSTACK8
          CFI CFA_XSP16 add(XSP16, 23)
//   49     MQTT_PACKET_STRUCTURE mqttPacket = {packet_buff, 0, max_packet_len, MEM_FLAG_STATIC};                //协议包
        MOV       DPTR,#`?<Constant {packet_buff, 0L, 300L, 2}>`
        MOV       R4,?XSP + 0
        MOV       R5,?XSP + 1
        MOV       A,#0xb
        LCALL     ?MOVE_LONG8_XDATA_XDATA
//   50 
//   51 	unsigned char *dataPtr;
//   52 	
//   53 	_Bool status = 1;
//   54 
//   55         sprintf(mqttUsername, "%s&%s", DeviceName, ProductKey);
        ; Setup parameters for call to function sprintf
        MOV       ?V0,#`?<Constant "a1sYYwS4kmH">` & 0xff
        MOV       ?V1,#(`?<Constant "a1sYYwS4kmH">` >> 8) & 0xff
        MOV       R0,#?V0
        LCALL     ?PUSH_XSTACK_I_TWO
          CFI CFA_XSP16 add(XSP16, 25)
        MOV       ?V0,#`?<Constant "mytestdev">` & 0xff
        MOV       ?V1,#(`?<Constant "mytestdev">` >> 8) & 0xff
        MOV       R0,#?V0
        LCALL     ?PUSH_XSTACK_I_TWO
          CFI CFA_XSP16 add(XSP16, 27)
        MOV       R4,#`?<Constant "%s&%s">` & 0xff
        MOV       R5,#(`?<Constant "%s&%s">` >> 8) & 0xff
        MOV       R2,#mqttUsername & 0xff
        MOV       R3,#(mqttUsername >> 8) & 0xff
        LCALL     `??sprintf::?relay`; Banked call to: sprintf
        MOV       A,#0x4
        LCALL     ?DEALLOC_XSTACK8
          CFI CFA_XSP16 add(XSP16, 23)
//   56 //        debug( "OneNet_DevLink\r\nmqttUsername:%s, mqttPassword:%s,mqttClientId:%s\r\n", mqttUsername, mqttPassword, mqttClientId);
//   57         debug("start mqtt connet!\r\n");
        ; Setup parameters for call to function debug
        MOV       R2,#`?<Constant "start mqtt connet!\\r\\n">` & 0xff
        MOV       R3,#(`?<Constant "start mqtt connet!\\r\\n">` >> 8) & 0xff
        LCALL     `??debug::?relay`; Banked call to: debug
//   58     //接入onenet
//   59 	if(MQTT_PacketConnect(mqttUsername, mqttPassword, mqttClientId, 60, 0, MQTT_QOS_LEVEL0, NULL, NULL, 0, &mqttPacket) == 0)
        ; Setup parameters for call to function MQTT_PacketConnect
        MOV       R0,?XSP + 0
        MOV       R1,?XSP + 1
        MOV       ?V0,R0
        MOV       ?V1,R1
        MOV       R0,#?V0
        LCALL     ?PUSH_XSTACK_I_TWO
          CFI CFA_XSP16 add(XSP16, 25)
        MOV       DPTR,#__Constant_0
        LCALL     ?PUSH_XSTACK8_X_FOUR
          CFI CFA_XSP16 add(XSP16, 29)
        CLR       A
        MOV       ?V0,A
        MOV       ?V1,A
        MOV       R0,#?V0
        LCALL     ?PUSH_XSTACK_I_TWO
          CFI CFA_XSP16 add(XSP16, 31)
        MOV       R0,#?V0
        LCALL     ?PUSH_XSTACK_I_TWO
          CFI CFA_XSP16 add(XSP16, 33)
        MOV       R0,#?V0
        LCALL     ?PUSH_XSTACK_I_ONE
          CFI CFA_XSP16 add(XSP16, 34)
        MOV       ?V0,#0x3c
        MOV       R0,#?V0
        LCALL     ?PUSH_XSTACK_I_TWO
          CFI CFA_XSP16 add(XSP16, 36)
        MOV       ?V0,#`?<Constant "123|securemode=3,sign...">` & 0xff
        MOV       ?V1,#(`?<Constant "123|securemode=3,sign...">` >> 8) & 0xff
        MOV       R0,#?V0
        LCALL     ?PUSH_XSTACK_I_TWO
          CFI CFA_XSP16 add(XSP16, 38)
        MOV       R1,#0x0
        MOV       R4,#`?<Constant "17225AC3F1B89135E1F19...">` & 0xff
        MOV       R5,#(`?<Constant "17225AC3F1B89135E1F19...">` >> 8) & 0xff
        MOV       R2,#mqttUsername & 0xff
        MOV       R3,#(mqttUsername >> 8) & 0xff
        LCALL     `??MQTT_PacketConnect::?relay`; Banked call to: MQTT_PacketConnect
        MOV       A,#0xf
        LCALL     ?DEALLOC_XSTACK8
          CFI CFA_XSP16 add(XSP16, 23)
        MOV       A,R1
        JNZ       ??OneNet_DevLink_0
//   60 	{                                                              //原本的是256为心跳。我修改为60
//   61 		ESP8266_SendData(mqttPacket._data, mqttPacket._len);			//上传平台
        ; Setup parameters for call to function ESP8266_SendData
        MOV       A,#0x2
        LCALL     ?XSTACK_DISP0_8
        MOV       R0,#?V0
        LCALL     ?L_MOV_X
        LCALL     ?Subroutine3 & 0xFFFF
//   62 		
//   63 		MQTT_DeleteBuffer(&mqttPacket);								//删包
//   64                 debug("mqtt conneted!\r\n");
??CrossCallReturnLabel_2:
        ; Setup parameters for call to function debug
        MOV       R2,#`?<Constant "mqtt conneted!\\r\\n">` & 0xff
        MOV       R3,#(`?<Constant "mqtt conneted!\\r\\n">` >> 8) & 0xff
        SJMP      ??OneNet_DevLink_1
//   65 	}
//   66 	else
//   67 		debug("WARN:	MQTT_PacketConnect Failed\r\n");
??OneNet_DevLink_0:
        ; Setup parameters for call to function debug
        MOV       R2,#`?<Constant "WARN:\\tMQTT_PacketConn...">` & 0xff
        MOV       R3,#(`?<Constant "WARN:\\tMQTT_PacketConn...">` >> 8) & 0xff
??OneNet_DevLink_1:
        LCALL     `??debug::?relay`; Banked call to: debug
//   68 	
//   69 	return status;
        SETB      C
          CFI EndBlock cfiBlock0
        REQUIRE ?Subroutine0
        ; // Fall through to label ?Subroutine0
//   70 	
//   71 }

        RSEG BANKED_CODE:HUGECODE:NOROOT(0)
?Subroutine0:
          CFI Block cfiBlock1 Using cfiCommon0
          CFI NoFunction
          CFI CFA_SP SP+0
          CFI CFA_XSP16 add(XSP16, 23)
          CFI VB load(1, XDATA, add(CFA_XSP16, literal(-11)))
          CFI DPL0 load(1, XDATA, add(CFA_XSP16, literal(-2)))
          CFI DPH0 load(1, XDATA, add(CFA_XSP16, literal(-1)))
          CFI R6 load(1, XDATA, add(CFA_XSP16, literal(-12)))
          CFI R7 load(1, XDATA, add(CFA_XSP16, literal(-6)))
          CFI V0 load(1, XDATA, add(CFA_XSP16, literal(-10)))
          CFI V1 load(1, XDATA, add(CFA_XSP16, literal(-9)))
          CFI V2 load(1, XDATA, add(CFA_XSP16, literal(-8)))
          CFI V3 load(1, XDATA, add(CFA_XSP16, literal(-7)))
          CFI ?BRET_EXT load(1, XDATA, add(CFA_XSP16, literal(-3)))
          CFI ?RET_HIGH load(1, XDATA, add(CFA_XSP16, literal(-4)))
          CFI ?RET_LOW load(1, XDATA, add(CFA_XSP16, literal(-5)))
        MOV       A,#0xb
          CFI EndBlock cfiBlock1
        REQUIRE ??Subroutine6_0
        ; // Fall through to label ??Subroutine6_0

        RSEG BANKED_CODE:HUGECODE:NOROOT(0)
??Subroutine6_0:
          CFI Block cfiBlock2 Using cfiCommon0
          CFI NoFunction
          CFI CFA_SP SP+0
          CFI CFA_XSP16 add(XSP16, 28)
          CFI VB load(1, XDATA, add(CFA_XSP16, literal(-11)))
          CFI DPL0 load(1, XDATA, add(CFA_XSP16, literal(-2)))
          CFI DPH0 load(1, XDATA, add(CFA_XSP16, literal(-1)))
          CFI R6 load(1, XDATA, add(CFA_XSP16, literal(-12)))
          CFI R7 load(1, XDATA, add(CFA_XSP16, literal(-6)))
          CFI V0 load(1, XDATA, add(CFA_XSP16, literal(-10)))
          CFI V1 load(1, XDATA, add(CFA_XSP16, literal(-9)))
          CFI V2 load(1, XDATA, add(CFA_XSP16, literal(-8)))
          CFI V3 load(1, XDATA, add(CFA_XSP16, literal(-7)))
          CFI ?BRET_EXT load(1, XDATA, add(CFA_XSP16, literal(-3)))
          CFI ?RET_HIGH load(1, XDATA, add(CFA_XSP16, literal(-4)))
          CFI ?RET_LOW load(1, XDATA, add(CFA_XSP16, literal(-5)))
          CFI Invalid
        LCALL     ?DEALLOC_XSTACK8
          CFI CFA_XSP16 add(XSP16, 12)
          CFI Valid
        MOV       R7,#0x4
        LJMP      ?BANKED_LEAVE_XDATA
          CFI EndBlock cfiBlock2

        RSEG XDATA_ROM_C:CONST:REORDER:NOROOT(0)
        DATA8
`?<Constant {packet_buff, 0L, 300L, 2}>`:
        DATA16
        DW packet_buff
        DATA32
        DD 0
        DD 300
        DATA8
        DB 2
//   72 
//   73 
//   74 //==========================================================
//   75 //	函数名称：	OneNet_RevPro
//   76 //
//   77 //	函数功能：	平台返回数据检测
//   78 //
//   79 //	入口参数：	dataPtr：平台返回的数据
//   80 //
//   81 //	返回参数：	无
//   82 //
//   83 //	说明：		
//   84 //==========================================================

        RSEG BANKED_CODE:HUGECODE:NOROOT(0)
//   85 void OneNet_RevPro(unsigned char *cmd)
OneNet_RevPro:
          CFI Block cfiBlock3 Using cfiCommon0
          CFI Function OneNet_RevPro
        CODE
//   86 {
        FUNCALL OneNet_RevPro, MQTT_UnPacketRecv
        LOCFRAME ISTACK, 0, STACK
        LOCFRAME PSTACK, 0, STACK
        LOCFRAME XSTACK, 28, STACK
        LOCFRAME IOVERLAY, 0, STATIC
        LOCFRAME DOVERLAY, 0, STATIC
        ARGFRAME ISTACK, 0, STACK
        ARGFRAME PSTACK, 0, STACK
        ARGFRAME XSTACK, 28, STACK
        ARGFRAME IOVERLAY, 0, STATIC
        ARGFRAME DOVERLAY, 0, STATIC
        FUNCALL OneNet_RevPro, HalLedBlink
        LOCFRAME ISTACK, 0, STACK
        LOCFRAME PSTACK, 0, STACK
        LOCFRAME XSTACK, 28, STACK
        LOCFRAME IOVERLAY, 0, STATIC
        LOCFRAME DOVERLAY, 0, STATIC
        ARGFRAME ISTACK, 0, STACK
        ARGFRAME PSTACK, 0, STACK
        ARGFRAME XSTACK, 28, STACK
        ARGFRAME IOVERLAY, 0, STATIC
        ARGFRAME DOVERLAY, 0, STATIC
        FUNCALL OneNet_RevPro, MQTT_UnPacketCmd
        LOCFRAME ISTACK, 0, STACK
        LOCFRAME PSTACK, 0, STACK
        LOCFRAME XSTACK, 32, STACK
        LOCFRAME IOVERLAY, 0, STATIC
        LOCFRAME DOVERLAY, 0, STATIC
        ARGFRAME ISTACK, 0, STACK
        ARGFRAME PSTACK, 0, STACK
        ARGFRAME XSTACK, 32, STACK
        ARGFRAME IOVERLAY, 0, STATIC
        ARGFRAME DOVERLAY, 0, STATIC
        FUNCALL OneNet_RevPro, debug
        LOCFRAME ISTACK, 0, STACK
        LOCFRAME PSTACK, 0, STACK
        LOCFRAME XSTACK, 34, STACK
        LOCFRAME IOVERLAY, 0, STATIC
        LOCFRAME DOVERLAY, 0, STATIC
        ARGFRAME ISTACK, 0, STACK
        ARGFRAME PSTACK, 0, STACK
        ARGFRAME XSTACK, 34, STACK
        ARGFRAME IOVERLAY, 0, STATIC
        ARGFRAME DOVERLAY, 0, STATIC
        FUNCALL OneNet_RevPro, mqtt_rx
        LOCFRAME ISTACK, 0, STACK
        LOCFRAME PSTACK, 0, STACK
        LOCFRAME XSTACK, 28, STACK
        LOCFRAME IOVERLAY, 0, STATIC
        LOCFRAME DOVERLAY, 0, STATIC
        ARGFRAME ISTACK, 0, STACK
        ARGFRAME PSTACK, 0, STACK
        ARGFRAME XSTACK, 28, STACK
        ARGFRAME IOVERLAY, 0, STATIC
        ARGFRAME DOVERLAY, 0, STATIC
        FUNCALL OneNet_RevPro, MQTT_PacketCmdResp
        LOCFRAME ISTACK, 0, STACK
        LOCFRAME PSTACK, 0, STACK
        LOCFRAME XSTACK, 30, STACK
        LOCFRAME IOVERLAY, 0, STATIC
        LOCFRAME DOVERLAY, 0, STATIC
        ARGFRAME ISTACK, 0, STACK
        ARGFRAME PSTACK, 0, STACK
        ARGFRAME XSTACK, 30, STACK
        ARGFRAME IOVERLAY, 0, STATIC
        ARGFRAME DOVERLAY, 0, STATIC
        FUNCALL OneNet_RevPro, debug
        LOCFRAME ISTACK, 0, STACK
        LOCFRAME PSTACK, 0, STACK
        LOCFRAME XSTACK, 28, STACK
        LOCFRAME IOVERLAY, 0, STATIC
        LOCFRAME DOVERLAY, 0, STATIC
        ARGFRAME ISTACK, 0, STACK
        ARGFRAME PSTACK, 0, STACK
        ARGFRAME XSTACK, 28, STACK
        ARGFRAME IOVERLAY, 0, STATIC
        ARGFRAME DOVERLAY, 0, STATIC
        FUNCALL OneNet_RevPro, ESP8266_SendData
        LOCFRAME ISTACK, 0, STACK
        LOCFRAME PSTACK, 0, STACK
        LOCFRAME XSTACK, 28, STACK
        LOCFRAME IOVERLAY, 0, STATIC
        LOCFRAME DOVERLAY, 0, STATIC
        ARGFRAME ISTACK, 0, STACK
        ARGFRAME PSTACK, 0, STACK
        ARGFRAME XSTACK, 28, STACK
        ARGFRAME IOVERLAY, 0, STATIC
        ARGFRAME DOVERLAY, 0, STATIC
        FUNCALL OneNet_RevPro, MQTT_DeleteBuffer
        LOCFRAME ISTACK, 0, STACK
        LOCFRAME PSTACK, 0, STACK
        LOCFRAME XSTACK, 28, STACK
        LOCFRAME IOVERLAY, 0, STATIC
        LOCFRAME DOVERLAY, 0, STATIC
        ARGFRAME ISTACK, 0, STACK
        ARGFRAME PSTACK, 0, STACK
        ARGFRAME XSTACK, 28, STACK
        ARGFRAME IOVERLAY, 0, STATIC
        ARGFRAME DOVERLAY, 0, STATIC
        FUNCALL OneNet_RevPro, MQTT_UnPacketPublishAck
        LOCFRAME ISTACK, 0, STACK
        LOCFRAME PSTACK, 0, STACK
        LOCFRAME XSTACK, 28, STACK
        LOCFRAME IOVERLAY, 0, STATIC
        LOCFRAME DOVERLAY, 0, STATIC
        ARGFRAME ISTACK, 0, STACK
        ARGFRAME PSTACK, 0, STACK
        ARGFRAME XSTACK, 28, STACK
        ARGFRAME IOVERLAY, 0, STATIC
        ARGFRAME DOVERLAY, 0, STATIC
        FUNCALL OneNet_RevPro, debug
        LOCFRAME ISTACK, 0, STACK
        LOCFRAME PSTACK, 0, STACK
        LOCFRAME XSTACK, 28, STACK
        LOCFRAME IOVERLAY, 0, STATIC
        LOCFRAME DOVERLAY, 0, STATIC
        ARGFRAME ISTACK, 0, STACK
        ARGFRAME PSTACK, 0, STACK
        ARGFRAME XSTACK, 28, STACK
        ARGFRAME IOVERLAY, 0, STATIC
        ARGFRAME DOVERLAY, 0, STATIC
        FUNCALL OneNet_RevPro, debug
        LOCFRAME ISTACK, 0, STACK
        LOCFRAME PSTACK, 0, STACK
        LOCFRAME XSTACK, 28, STACK
        LOCFRAME IOVERLAY, 0, STATIC
        LOCFRAME DOVERLAY, 0, STATIC
        ARGFRAME ISTACK, 0, STACK
        ARGFRAME PSTACK, 0, STACK
        ARGFRAME XSTACK, 28, STACK
        ARGFRAME IOVERLAY, 0, STATIC
        ARGFRAME DOVERLAY, 0, STATIC
        FUNCALL OneNet_RevPro, MQTT_UnPacketPublish
        LOCFRAME ISTACK, 0, STACK
        LOCFRAME PSTACK, 0, STACK
        LOCFRAME XSTACK, 38, STACK
        LOCFRAME IOVERLAY, 0, STATIC
        LOCFRAME DOVERLAY, 0, STATIC
        ARGFRAME ISTACK, 0, STACK
        ARGFRAME PSTACK, 0, STACK
        ARGFRAME XSTACK, 38, STACK
        ARGFRAME IOVERLAY, 0, STATIC
        ARGFRAME DOVERLAY, 0, STATIC
        FUNCALL OneNet_RevPro, debug
        LOCFRAME ISTACK, 0, STACK
        LOCFRAME PSTACK, 0, STACK
        LOCFRAME XSTACK, 36, STACK
        LOCFRAME IOVERLAY, 0, STATIC
        LOCFRAME DOVERLAY, 0, STATIC
        ARGFRAME ISTACK, 0, STACK
        ARGFRAME PSTACK, 0, STACK
        ARGFRAME XSTACK, 36, STACK
        ARGFRAME IOVERLAY, 0, STATIC
        ARGFRAME DOVERLAY, 0, STATIC
        FUNCALL OneNet_RevPro, mqtt_rx
        LOCFRAME ISTACK, 0, STACK
        LOCFRAME PSTACK, 0, STACK
        LOCFRAME XSTACK, 28, STACK
        LOCFRAME IOVERLAY, 0, STATIC
        LOCFRAME DOVERLAY, 0, STATIC
        ARGFRAME ISTACK, 0, STACK
        ARGFRAME PSTACK, 0, STACK
        ARGFRAME XSTACK, 28, STACK
        ARGFRAME IOVERLAY, 0, STATIC
        ARGFRAME DOVERLAY, 0, STATIC
        FUNCALL OneNet_RevPro, MQTT_PacketPublishAck
        LOCFRAME ISTACK, 0, STACK
        LOCFRAME PSTACK, 0, STACK
        LOCFRAME XSTACK, 28, STACK
        LOCFRAME IOVERLAY, 0, STATIC
        LOCFRAME DOVERLAY, 0, STATIC
        ARGFRAME ISTACK, 0, STACK
        ARGFRAME PSTACK, 0, STACK
        ARGFRAME XSTACK, 28, STACK
        ARGFRAME IOVERLAY, 0, STATIC
        ARGFRAME DOVERLAY, 0, STATIC
        FUNCALL OneNet_RevPro, debug
        LOCFRAME ISTACK, 0, STACK
        LOCFRAME PSTACK, 0, STACK
        LOCFRAME XSTACK, 28, STACK
        LOCFRAME IOVERLAY, 0, STATIC
        LOCFRAME DOVERLAY, 0, STATIC
        ARGFRAME ISTACK, 0, STACK
        ARGFRAME PSTACK, 0, STACK
        ARGFRAME XSTACK, 28, STACK
        ARGFRAME IOVERLAY, 0, STATIC
        ARGFRAME DOVERLAY, 0, STATIC
        FUNCALL OneNet_RevPro, ESP8266_SendData
        LOCFRAME ISTACK, 0, STACK
        LOCFRAME PSTACK, 0, STACK
        LOCFRAME XSTACK, 28, STACK
        LOCFRAME IOVERLAY, 0, STATIC
        LOCFRAME DOVERLAY, 0, STATIC
        ARGFRAME ISTACK, 0, STACK
        ARGFRAME PSTACK, 0, STACK
        ARGFRAME XSTACK, 28, STACK
        ARGFRAME IOVERLAY, 0, STATIC
        ARGFRAME DOVERLAY, 0, STATIC
        FUNCALL OneNet_RevPro, MQTT_DeleteBuffer
        LOCFRAME ISTACK, 0, STACK
        LOCFRAME PSTACK, 0, STACK
        LOCFRAME XSTACK, 28, STACK
        LOCFRAME IOVERLAY, 0, STATIC
        LOCFRAME DOVERLAY, 0, STATIC
        ARGFRAME ISTACK, 0, STACK
        ARGFRAME PSTACK, 0, STACK
        ARGFRAME XSTACK, 28, STACK
        ARGFRAME IOVERLAY, 0, STATIC
        ARGFRAME DOVERLAY, 0, STATIC
        FUNCALL OneNet_RevPro, MQTT_PacketPublishRec
        LOCFRAME ISTACK, 0, STACK
        LOCFRAME PSTACK, 0, STACK
        LOCFRAME XSTACK, 28, STACK
        LOCFRAME IOVERLAY, 0, STATIC
        LOCFRAME DOVERLAY, 0, STATIC
        ARGFRAME ISTACK, 0, STACK
        ARGFRAME PSTACK, 0, STACK
        ARGFRAME XSTACK, 28, STACK
        ARGFRAME IOVERLAY, 0, STATIC
        ARGFRAME DOVERLAY, 0, STATIC
        FUNCALL OneNet_RevPro, debug
        LOCFRAME ISTACK, 0, STACK
        LOCFRAME PSTACK, 0, STACK
        LOCFRAME XSTACK, 28, STACK
        LOCFRAME IOVERLAY, 0, STATIC
        LOCFRAME DOVERLAY, 0, STATIC
        ARGFRAME ISTACK, 0, STACK
        ARGFRAME PSTACK, 0, STACK
        ARGFRAME XSTACK, 28, STACK
        ARGFRAME IOVERLAY, 0, STATIC
        ARGFRAME DOVERLAY, 0, STATIC
        FUNCALL OneNet_RevPro, ESP8266_SendData
        LOCFRAME ISTACK, 0, STACK
        LOCFRAME PSTACK, 0, STACK
        LOCFRAME XSTACK, 28, STACK
        LOCFRAME IOVERLAY, 0, STATIC
        LOCFRAME DOVERLAY, 0, STATIC
        ARGFRAME ISTACK, 0, STACK
        ARGFRAME PSTACK, 0, STACK
        ARGFRAME XSTACK, 28, STACK
        ARGFRAME IOVERLAY, 0, STATIC
        ARGFRAME DOVERLAY, 0, STATIC
        FUNCALL OneNet_RevPro, MQTT_DeleteBuffer
        LOCFRAME ISTACK, 0, STACK
        LOCFRAME PSTACK, 0, STACK
        LOCFRAME XSTACK, 28, STACK
        LOCFRAME IOVERLAY, 0, STATIC
        LOCFRAME DOVERLAY, 0, STATIC
        ARGFRAME ISTACK, 0, STACK
        ARGFRAME PSTACK, 0, STACK
        ARGFRAME XSTACK, 28, STACK
        ARGFRAME IOVERLAY, 0, STATIC
        ARGFRAME DOVERLAY, 0, STATIC
        FUNCALL OneNet_RevPro, MQTT_UnPacketPublishRec
        LOCFRAME ISTACK, 0, STACK
        LOCFRAME PSTACK, 0, STACK
        LOCFRAME XSTACK, 28, STACK
        LOCFRAME IOVERLAY, 0, STATIC
        LOCFRAME DOVERLAY, 0, STATIC
        ARGFRAME ISTACK, 0, STACK
        ARGFRAME PSTACK, 0, STACK
        ARGFRAME XSTACK, 28, STACK
        ARGFRAME IOVERLAY, 0, STATIC
        ARGFRAME DOVERLAY, 0, STATIC
        FUNCALL OneNet_RevPro, debug
        LOCFRAME ISTACK, 0, STACK
        LOCFRAME PSTACK, 0, STACK
        LOCFRAME XSTACK, 28, STACK
        LOCFRAME IOVERLAY, 0, STATIC
        LOCFRAME DOVERLAY, 0, STATIC
        ARGFRAME ISTACK, 0, STACK
        ARGFRAME PSTACK, 0, STACK
        ARGFRAME XSTACK, 28, STACK
        ARGFRAME IOVERLAY, 0, STATIC
        ARGFRAME DOVERLAY, 0, STATIC
        FUNCALL OneNet_RevPro, MQTT_PacketPublishRel
        LOCFRAME ISTACK, 0, STACK
        LOCFRAME PSTACK, 0, STACK
        LOCFRAME XSTACK, 28, STACK
        LOCFRAME IOVERLAY, 0, STATIC
        LOCFRAME DOVERLAY, 0, STATIC
        ARGFRAME ISTACK, 0, STACK
        ARGFRAME PSTACK, 0, STACK
        ARGFRAME XSTACK, 28, STACK
        ARGFRAME IOVERLAY, 0, STATIC
        ARGFRAME DOVERLAY, 0, STATIC
        FUNCALL OneNet_RevPro, debug
        LOCFRAME ISTACK, 0, STACK
        LOCFRAME PSTACK, 0, STACK
        LOCFRAME XSTACK, 28, STACK
        LOCFRAME IOVERLAY, 0, STATIC
        LOCFRAME DOVERLAY, 0, STATIC
        ARGFRAME ISTACK, 0, STACK
        ARGFRAME PSTACK, 0, STACK
        ARGFRAME XSTACK, 28, STACK
        ARGFRAME IOVERLAY, 0, STATIC
        ARGFRAME DOVERLAY, 0, STATIC
        FUNCALL OneNet_RevPro, ESP8266_SendData
        LOCFRAME ISTACK, 0, STACK
        LOCFRAME PSTACK, 0, STACK
        LOCFRAME XSTACK, 28, STACK
        LOCFRAME IOVERLAY, 0, STATIC
        LOCFRAME DOVERLAY, 0, STATIC
        ARGFRAME ISTACK, 0, STACK
        ARGFRAME PSTACK, 0, STACK
        ARGFRAME XSTACK, 28, STACK
        ARGFRAME IOVERLAY, 0, STATIC
        ARGFRAME DOVERLAY, 0, STATIC
        FUNCALL OneNet_RevPro, MQTT_DeleteBuffer
        LOCFRAME ISTACK, 0, STACK
        LOCFRAME PSTACK, 0, STACK
        LOCFRAME XSTACK, 28, STACK
        LOCFRAME IOVERLAY, 0, STATIC
        LOCFRAME DOVERLAY, 0, STATIC
        ARGFRAME ISTACK, 0, STACK
        ARGFRAME PSTACK, 0, STACK
        ARGFRAME XSTACK, 28, STACK
        ARGFRAME IOVERLAY, 0, STATIC
        ARGFRAME DOVERLAY, 0, STATIC
        FUNCALL OneNet_RevPro, MQTT_UnPacketPublishRel
        LOCFRAME ISTACK, 0, STACK
        LOCFRAME PSTACK, 0, STACK
        LOCFRAME XSTACK, 28, STACK
        LOCFRAME IOVERLAY, 0, STATIC
        LOCFRAME DOVERLAY, 0, STATIC
        ARGFRAME ISTACK, 0, STACK
        ARGFRAME PSTACK, 0, STACK
        ARGFRAME XSTACK, 28, STACK
        ARGFRAME IOVERLAY, 0, STATIC
        ARGFRAME DOVERLAY, 0, STATIC
        FUNCALL OneNet_RevPro, debug
        LOCFRAME ISTACK, 0, STACK
        LOCFRAME PSTACK, 0, STACK
        LOCFRAME XSTACK, 28, STACK
        LOCFRAME IOVERLAY, 0, STATIC
        LOCFRAME DOVERLAY, 0, STATIC
        ARGFRAME ISTACK, 0, STACK
        ARGFRAME PSTACK, 0, STACK
        ARGFRAME XSTACK, 28, STACK
        ARGFRAME IOVERLAY, 0, STATIC
        ARGFRAME DOVERLAY, 0, STATIC
        FUNCALL OneNet_RevPro, MQTT_PacketPublishComp
        LOCFRAME ISTACK, 0, STACK
        LOCFRAME PSTACK, 0, STACK
        LOCFRAME XSTACK, 28, STACK
        LOCFRAME IOVERLAY, 0, STATIC
        LOCFRAME DOVERLAY, 0, STATIC
        ARGFRAME ISTACK, 0, STACK
        ARGFRAME PSTACK, 0, STACK
        ARGFRAME XSTACK, 28, STACK
        ARGFRAME IOVERLAY, 0, STATIC
        ARGFRAME DOVERLAY, 0, STATIC
        FUNCALL OneNet_RevPro, debug
        LOCFRAME ISTACK, 0, STACK
        LOCFRAME PSTACK, 0, STACK
        LOCFRAME XSTACK, 28, STACK
        LOCFRAME IOVERLAY, 0, STATIC
        LOCFRAME DOVERLAY, 0, STATIC
        ARGFRAME ISTACK, 0, STACK
        ARGFRAME PSTACK, 0, STACK
        ARGFRAME XSTACK, 28, STACK
        ARGFRAME IOVERLAY, 0, STATIC
        ARGFRAME DOVERLAY, 0, STATIC
        FUNCALL OneNet_RevPro, ESP8266_SendData
        LOCFRAME ISTACK, 0, STACK
        LOCFRAME PSTACK, 0, STACK
        LOCFRAME XSTACK, 28, STACK
        LOCFRAME IOVERLAY, 0, STATIC
        LOCFRAME DOVERLAY, 0, STATIC
        ARGFRAME ISTACK, 0, STACK
        ARGFRAME PSTACK, 0, STACK
        ARGFRAME XSTACK, 28, STACK
        ARGFRAME IOVERLAY, 0, STATIC
        ARGFRAME DOVERLAY, 0, STATIC
        FUNCALL OneNet_RevPro, MQTT_DeleteBuffer
        LOCFRAME ISTACK, 0, STACK
        LOCFRAME PSTACK, 0, STACK
        LOCFRAME XSTACK, 28, STACK
        LOCFRAME IOVERLAY, 0, STATIC
        LOCFRAME DOVERLAY, 0, STATIC
        ARGFRAME ISTACK, 0, STACK
        ARGFRAME PSTACK, 0, STACK
        ARGFRAME XSTACK, 28, STACK
        ARGFRAME IOVERLAY, 0, STATIC
        ARGFRAME DOVERLAY, 0, STATIC
        FUNCALL OneNet_RevPro, MQTT_UnPacketPublishComp
        LOCFRAME ISTACK, 0, STACK
        LOCFRAME PSTACK, 0, STACK
        LOCFRAME XSTACK, 28, STACK
        LOCFRAME IOVERLAY, 0, STATIC
        LOCFRAME DOVERLAY, 0, STATIC
        ARGFRAME ISTACK, 0, STACK
        ARGFRAME PSTACK, 0, STACK
        ARGFRAME XSTACK, 28, STACK
        ARGFRAME IOVERLAY, 0, STATIC
        ARGFRAME DOVERLAY, 0, STATIC
        FUNCALL OneNet_RevPro, debug
        LOCFRAME ISTACK, 0, STACK
        LOCFRAME PSTACK, 0, STACK
        LOCFRAME XSTACK, 28, STACK
        LOCFRAME IOVERLAY, 0, STATIC
        LOCFRAME DOVERLAY, 0, STATIC
        ARGFRAME ISTACK, 0, STACK
        ARGFRAME PSTACK, 0, STACK
        ARGFRAME XSTACK, 28, STACK
        ARGFRAME IOVERLAY, 0, STATIC
        ARGFRAME DOVERLAY, 0, STATIC
        FUNCALL OneNet_RevPro, MQTT_UnPacketSubscribe
        LOCFRAME ISTACK, 0, STACK
        LOCFRAME PSTACK, 0, STACK
        LOCFRAME XSTACK, 28, STACK
        LOCFRAME IOVERLAY, 0, STATIC
        LOCFRAME DOVERLAY, 0, STATIC
        ARGFRAME ISTACK, 0, STACK
        ARGFRAME PSTACK, 0, STACK
        ARGFRAME XSTACK, 28, STACK
        ARGFRAME IOVERLAY, 0, STATIC
        ARGFRAME DOVERLAY, 0, STATIC
        FUNCALL OneNet_RevPro, debug
        LOCFRAME ISTACK, 0, STACK
        LOCFRAME PSTACK, 0, STACK
        LOCFRAME XSTACK, 28, STACK
        LOCFRAME IOVERLAY, 0, STATIC
        LOCFRAME DOVERLAY, 0, STATIC
        ARGFRAME ISTACK, 0, STACK
        ARGFRAME PSTACK, 0, STACK
        ARGFRAME XSTACK, 28, STACK
        ARGFRAME IOVERLAY, 0, STATIC
        ARGFRAME DOVERLAY, 0, STATIC
        FUNCALL OneNet_RevPro, debug
        LOCFRAME ISTACK, 0, STACK
        LOCFRAME PSTACK, 0, STACK
        LOCFRAME XSTACK, 28, STACK
        LOCFRAME IOVERLAY, 0, STATIC
        LOCFRAME DOVERLAY, 0, STATIC
        ARGFRAME ISTACK, 0, STACK
        ARGFRAME PSTACK, 0, STACK
        ARGFRAME XSTACK, 28, STACK
        ARGFRAME IOVERLAY, 0, STATIC
        ARGFRAME DOVERLAY, 0, STATIC
        FUNCALL OneNet_RevPro, MQTT_UnPacketUnSubscribe
        LOCFRAME ISTACK, 0, STACK
        LOCFRAME PSTACK, 0, STACK
        LOCFRAME XSTACK, 28, STACK
        LOCFRAME IOVERLAY, 0, STATIC
        LOCFRAME DOVERLAY, 0, STATIC
        ARGFRAME ISTACK, 0, STACK
        ARGFRAME PSTACK, 0, STACK
        ARGFRAME XSTACK, 28, STACK
        ARGFRAME IOVERLAY, 0, STATIC
        ARGFRAME DOVERLAY, 0, STATIC
        FUNCALL OneNet_RevPro, debug
        LOCFRAME ISTACK, 0, STACK
        LOCFRAME PSTACK, 0, STACK
        LOCFRAME XSTACK, 28, STACK
        LOCFRAME IOVERLAY, 0, STATIC
        LOCFRAME DOVERLAY, 0, STATIC
        ARGFRAME ISTACK, 0, STACK
        ARGFRAME PSTACK, 0, STACK
        ARGFRAME XSTACK, 28, STACK
        ARGFRAME IOVERLAY, 0, STATIC
        ARGFRAME DOVERLAY, 0, STATIC
        FUNCALL OneNet_RevPro, debug
        LOCFRAME ISTACK, 0, STACK
        LOCFRAME PSTACK, 0, STACK
        LOCFRAME XSTACK, 28, STACK
        LOCFRAME IOVERLAY, 0, STATIC
        LOCFRAME DOVERLAY, 0, STATIC
        ARGFRAME ISTACK, 0, STACK
        ARGFRAME PSTACK, 0, STACK
        ARGFRAME XSTACK, 28, STACK
        ARGFRAME IOVERLAY, 0, STATIC
        ARGFRAME DOVERLAY, 0, STATIC
        REQUIRE ?V0
        REQUIRE ?V1
        REQUIRE ?V2
        REQUIRE ?V3
        MOV       A,#-0xc
        LCALL     ?BANKED_ENTER_XDATA
          CFI DPH0 load(1, XDATA, add(CFA_XSP16, literal(-1)))
          CFI DPL0 load(1, XDATA, add(CFA_XSP16, literal(-2)))
          CFI ?BRET_EXT load(1, XDATA, add(CFA_XSP16, literal(-3)))
          CFI ?RET_HIGH load(1, XDATA, add(CFA_XSP16, literal(-4)))
          CFI ?RET_LOW load(1, XDATA, add(CFA_XSP16, literal(-5)))
          CFI R7 load(1, XDATA, add(CFA_XSP16, literal(-6)))
          CFI V3 load(1, XDATA, add(CFA_XSP16, literal(-7)))
          CFI V2 load(1, XDATA, add(CFA_XSP16, literal(-8)))
          CFI V1 load(1, XDATA, add(CFA_XSP16, literal(-9)))
          CFI V0 load(1, XDATA, add(CFA_XSP16, literal(-10)))
          CFI VB load(1, XDATA, add(CFA_XSP16, literal(-11)))
          CFI R6 load(1, XDATA, add(CFA_XSP16, literal(-12)))
          CFI CFA_SP SP+0
          CFI CFA_XSP16 add(XSP16, 12)
        ; Saved register size: 12
        ; Auto size: 16
        MOV       A,#-0x10
        LCALL     ?ALLOC_XSTACK8
          CFI CFA_XSP16 add(XSP16, 28)
        MOV       A,R2
        MOV       R6,A
        MOV       A,R3
        MOV       R7,A
//   87 	MQTT_PACKET_STRUCTURE mqttPacket = {packet_buff, 0, max_packet_len, 0};								//协议包
        MOV       DPTR,#`?<Constant {packet_buff, 0L, 300L, 0}>`
        MOV       A,#0x3
        LCALL     ?XSTACK_DISP102_8
        MOV       A,#0xb
        LCALL     ?MOVE_LONG8_XDATA_XDATA
//   88 	
//   89 	unsigned short topic_len = 0;
        MOV       A,#0xe
        LCALL     ?XSTACK_DISP0_8
        CLR       A
        MOVX      @DPTR,A
        INC       DPTR
        MOVX      @DPTR,A
//   90 	unsigned short req_len = 0;
        INC       A
        LCALL     ?XSTACK_DISP0_8
        CLR       A
        MOVX      @DPTR,A
        INC       DPTR
        MOVX      @DPTR,A
//   91 
//   92 	unsigned char qos = 0;
        MOV       DPL,?XSP + 0
        MOV       DPH,?XSP + 1
        MOVX      @DPTR,A
//   93 	static unsigned short pkt_id = 0;
//   94 
//   95     
//   96 	unsigned char type = 0;
//   97 	
//   98 	short result = 0;
//   99         
//  100 	type = MQTT_UnPacketRecv(cmd);
//  101         //解包数据led1闪烁
//  102 //        P1_0 = 0; 
//  103 //        HalLedBlink (HAL_LED_1, 5, 50, 500);
//  104 //        P1_0 = 1;
//  105 //        P1_4 = 1; //全灭
//  106 //        P1_1 = 1;
//  107 //        P1_0 = 1;
//  108 	switch(type)
        ; Setup parameters for call to function MQTT_UnPacketRecv
        LCALL     `??MQTT_UnPacketRecv::?relay`; Banked call to: MQTT_UnPacketRecv
        MOV       A,R1
        ADD       A,#-0x3
        JNZ       $+5
        LJMP      ??OneNet_RevPro_0 & 0xFFFF
        DEC       A
        JNZ       $+5
        LJMP      ??OneNet_RevPro_1 & 0xFFFF
        DEC       A
        JNZ       $+5
        LJMP      ??OneNet_RevPro_2 & 0xFFFF
        DEC       A
        JNZ       $+5
        LJMP      ??OneNet_RevPro_3 & 0xFFFF
        DEC       A
        JNZ       $+5
        LJMP      ??OneNet_RevPro_4 & 0xFFFF
        ADD       A,#-0x2
        JNZ       $+5
        LJMP      ??OneNet_RevPro_5 & 0xFFFF
        ADD       A,#-0x2
        JNZ       $+5
        LJMP      ??OneNet_RevPro_6 & 0xFFFF
        ADD       A,#-0x2
        JNZ       $+5
        LJMP      ??OneNet_RevPro_7 & 0xFFFF
        ADD       A,#-0x2
        JZ        $+5
        LJMP      ??OneNet_RevPro_8 & 0xFFFF
//  109 	{       
//  110 		case MQTT_PKT_CMD://进不来															//命令下发
//  111     {                   HalLedBlink (HAL_LED_2, 5, 50, 500); //可以进
        ; Setup parameters for call to function HalLedBlink
        MOV       R4,#-0xc
        MOV       R5,#0x1
        MOV       R3,#0x32
        MOV       R2,#0x5
        MOV       R1,#0x2
        LCALL     `??HalLedBlink::?relay`; Banked call to: HalLedBlink
//  112 			result = MQTT_UnPacketCmd(cmd, cmdid_topic, req_payload, &req_len);	//解出topic和消息体
//  113 			if(result == 0)
        ; Setup parameters for call to function MQTT_UnPacketCmd
        MOV       A,#0x1
        LCALL     ?XSTACK_DISP100_8
        MOV       ?V0,R0
        MOV       ?V1,R1
        MOV       R0,#?V0
        LCALL     ?PUSH_XSTACK_I_TWO
          CFI CFA_XSP16 add(XSP16, 30)
        MOV       ?V0,#req_payload & 0xff
        MOV       ?V1,#(req_payload >> 8) & 0xff
        MOV       R0,#?V0
        LCALL     ?PUSH_XSTACK_I_TWO
          CFI CFA_XSP16 add(XSP16, 32)
        MOV       R4,#cmdid_topic & 0xff
        MOV       R5,#(cmdid_topic >> 8) & 0xff
        MOV       A,R6
        MOV       R2,A
        MOV       A,R7
        MOV       R3,A
        LCALL     `??MQTT_UnPacketCmd::?relay`; Banked call to: MQTT_UnPacketCmd
        MOV       A,#0x4
        LCALL     ?DEALLOC_XSTACK8
          CFI CFA_XSP16 add(XSP16, 28)
        MOV       A,R1
        JZ        $+5
        LJMP      ??OneNet_RevPro_8 & 0xFFFF
//  114 			{
//  115 				debug("cmdid: %s, req: %s, req_len: %d\r\n", cmdid_topic, req_payload, req_len);
        ; Setup parameters for call to function debug
        MOV       A,#0x1
        LCALL     ?XSTACK_DISP0_8
        LCALL     ?PUSH_XSTACK8_X_TWO
          CFI CFA_XSP16 add(XSP16, 30)
        MOV       R0,#?V0
        LCALL     ?PUSH_XSTACK_I_TWO
          CFI CFA_XSP16 add(XSP16, 32)
        MOV       ?V0,#cmdid_topic & 0xff
        MOV       ?V1,#(cmdid_topic >> 8) & 0xff
        MOV       R0,#?V0
        LCALL     ?PUSH_XSTACK_I_TWO
          CFI CFA_XSP16 add(XSP16, 34)
        MOV       R2,#`?<Constant "cmdid: %s, req: %s, r...">` & 0xff
        MOV       R3,#(`?<Constant "cmdid: %s, req: %s, r...">` >> 8) & 0xff
        LCALL     `??debug::?relay`; Banked call to: debug
        MOV       A,#0x6
        LCALL     ?DEALLOC_XSTACK8
          CFI CFA_XSP16 add(XSP16, 28)
//  116 				mqtt_rx(cmdid_topic, req_payload);
        ; Setup parameters for call to function mqtt_rx
        MOV       R4,#req_payload & 0xff
        MOV       R5,#(req_payload >> 8) & 0xff
        MOV       R2,#cmdid_topic & 0xff
        MOV       R3,#(cmdid_topic >> 8) & 0xff
        LCALL     `??mqtt_rx::?relay`; Banked call to: mqtt_rx
//  117 #if 1
//  118 
//  119 				if(MQTT_PacketCmdResp(cmdid_topic, req_payload, &mqttPacket) == 0)	//命令回复组包
        ; Setup parameters for call to function MQTT_PacketCmdResp
        MOV       A,#0x3
        LCALL     ?XSTACK_DISP100_8
        MOV       ?V0,R0
        MOV       ?V1,R1
        MOV       R0,#?V0
        LCALL     ?PUSH_XSTACK_I_TWO
          CFI CFA_XSP16 add(XSP16, 30)
        MOV       R4,#req_payload & 0xff
        MOV       R5,#(req_payload >> 8) & 0xff
        MOV       R2,#cmdid_topic & 0xff
        MOV       R3,#(cmdid_topic >> 8) & 0xff
        LCALL     `??MQTT_PacketCmdResp::?relay`; Banked call to: MQTT_PacketCmdResp
        MOV       A,#0x2
        LCALL     ?DEALLOC_XSTACK8
          CFI CFA_XSP16 add(XSP16, 28)
        MOV       A,R1
        JZ        $+5
        LJMP      ??OneNet_RevPro_8 & 0xFFFF
//  120 				{
//  121 					debug("Tips:	Send CmdResp\r\n");
        ; Setup parameters for call to function debug
        MOV       R2,#`?<Constant "Tips:\\tSend CmdResp\\r\\n">` & 0xff
        MOV       R3,#(`?<Constant "Tips:\\tSend CmdResp\\r\\n">` >> 8) & 0xff
        LJMP      ??OneNet_RevPro_9 & 0xFFFF
//  122 					
//  123 					ESP8266_SendData(mqttPacket._data, mqttPacket._len);			//回复命令
//  124 					MQTT_DeleteBuffer(&mqttPacket);									//删包
//  125 				}
//  126 #endif
//  127 			}
//  128     }
//  129 		break;
//  130 			
//  131 		case MQTT_PKT_PUBACK:														//发送Publish消息，平台回复的Ack
//  132 		
//  133 			if(MQTT_UnPacketPublishAck(cmd) == 0)
??OneNet_RevPro_1:
        ; Setup parameters for call to function MQTT_UnPacketPublishAck
        MOV       A,R6
        MOV       R2,A
        MOV       A,R7
        MOV       R3,A
        LCALL     `??MQTT_UnPacketPublishAck::?relay`; Banked call to: MQTT_UnPacketPublishAck
        MOV       A,R1
        JZ        $+5
        LJMP      ??OneNet_RevPro_8 & 0xFFFF
//  134 				debug("Tips:	MQTT Publish Send OK\r\n");
        ; Setup parameters for call to function debug
        MOV       R2,#`?<Constant "Tips:\\tMQTT Publish Se...">` & 0xff
        MOV       R3,#(`?<Constant "Tips:\\tMQTT Publish Se...">` >> 8) & 0xff
        LJMP      ??OneNet_RevPro_10 & 0xFFFF
//  135 			
//  136 		break;
//  137 
//  138         case MQTT_PKT_PINGRESP:
//  139         {
//  140             debug("Tips:  HeartBeat OK\r\n");
??OneNet_RevPro_7:
        ; Setup parameters for call to function debug
        MOV       R2,#`?<Constant "Tips:  HeartBeat OK\\r\\n">` & 0xff
        MOV       R3,#(`?<Constant "Tips:  HeartBeat OK\\r\\n">` >> 8) & 0xff
        LJMP      ??OneNet_RevPro_10 & 0xFFFF
//  141             break;
//  142         }
//  143         
//  144         //进不来   
//  145         case MQTT_PKT_PUBLISH:  //接收的Publish消息
//  146         {
//  147 //            HalLedBlink (HAL_LED_3, 5, 50, 500); //也可以进，要注意数据长度
//  148             if(MQTT_UnPacketPublish(cmd, cmdid_topic, &topic_len, req_payload, &req_len, &qos, &pkt_id) == 0)
??OneNet_RevPro_0:
        ; Setup parameters for call to function MQTT_UnPacketPublish
        MOV       ?V0,#??pkt_id & 0xff
        MOV       ?V1,#(??pkt_id >> 8) & 0xff
        MOV       R0,#?V0
        LCALL     ?PUSH_XSTACK_I_TWO
          CFI CFA_XSP16 add(XSP16, 30)
        MOV       A,#0x2
        LCALL     ?XSTACK_DISP100_8
        MOV       ?V0,R0
        MOV       ?V1,R1
        MOV       R0,#?V0
        LCALL     ?PUSH_XSTACK_I_TWO
          CFI CFA_XSP16 add(XSP16, 32)
        MOV       A,#0x5
        LCALL     ?XSTACK_DISP100_8
        MOV       ?V0,R0
        MOV       ?V1,R1
        MOV       R0,#?V0
        LCALL     ?PUSH_XSTACK_I_TWO
          CFI CFA_XSP16 add(XSP16, 34)
        MOV       ?V0,#req_payload & 0xff
        MOV       ?V1,#(req_payload >> 8) & 0xff
        MOV       R0,#?V0
        LCALL     ?PUSH_XSTACK_I_TWO
          CFI CFA_XSP16 add(XSP16, 36)
        MOV       A,#0x16
        LCALL     ?XSTACK_DISP100_8
        MOV       ?V0,R0
        MOV       ?V1,R1
        MOV       R0,#?V0
        LCALL     ?PUSH_XSTACK_I_TWO
          CFI CFA_XSP16 add(XSP16, 38)
        MOV       R4,#cmdid_topic & 0xff
        MOV       R5,#(cmdid_topic >> 8) & 0xff
        MOV       A,R6
        MOV       R2,A
        MOV       A,R7
        MOV       R3,A
        LCALL     `??MQTT_UnPacketPublish::?relay`; Banked call to: MQTT_UnPacketPublish
        MOV       A,#0xa
        LCALL     ?DEALLOC_XSTACK8
          CFI CFA_XSP16 add(XSP16, 28)
        MOV       A,R1
        JZ        $+5
        LJMP      ??OneNet_RevPro_8 & 0xFFFF
//  149             {
//  150                 debug("topic: %s, topic_len: %d, payload: %s, payload_len: %d\r\n",cmdid_topic, topic_len, req_payload, req_len);
        ; Setup parameters for call to function debug
        MOV       A,#0x1
        LCALL     ?XSTACK_DISP0_8
        LCALL     ?PUSH_XSTACK8_X_TWO
          CFI CFA_XSP16 add(XSP16, 30)
        MOV       ?V0,#req_payload & 0xff
        MOV       ?V1,#(req_payload >> 8) & 0xff
        MOV       R0,#?V0
        LCALL     ?PUSH_XSTACK_I_TWO
          CFI CFA_XSP16 add(XSP16, 32)
        MOV       A,#0x12
        LCALL     ?XSTACK_DISP0_8
        LCALL     ?PUSH_XSTACK8_X_TWO
          CFI CFA_XSP16 add(XSP16, 34)
        MOV       ?V0,#cmdid_topic & 0xff
        MOV       ?V1,#(cmdid_topic >> 8) & 0xff
        MOV       R0,#?V0
        LCALL     ?PUSH_XSTACK_I_TWO
          CFI CFA_XSP16 add(XSP16, 36)
        MOV       R2,#`?<Constant "topic: %s, topic_len:...">` & 0xff
        MOV       R3,#(`?<Constant "topic: %s, topic_len:...">` >> 8) & 0xff
        LCALL     `??debug::?relay`; Banked call to: debug
        MOV       A,#0x8
        LCALL     ?DEALLOC_XSTACK8
          CFI CFA_XSP16 add(XSP16, 28)
//  151                 mqtt_rx(cmdid_topic, req_payload);
        ; Setup parameters for call to function mqtt_rx
        MOV       R4,#req_payload & 0xff
        MOV       R5,#(req_payload >> 8) & 0xff
        MOV       R2,#cmdid_topic & 0xff
        MOV       R3,#(cmdid_topic >> 8) & 0xff
        LCALL     `??mqtt_rx::?relay`; Banked call to: mqtt_rx
//  152 
//  153                // MQTT_FreeBuffer(cmdid_topic);
//  154                // MQTT_FreeBuffer(req_payload);        
//  155 
//  156                 switch(qos)
        MOV       DPL,?XSP + 0
        MOV       DPH,?XSP + 1
        MOVX      A,@DPTR
        DEC       A
        JZ        ??OneNet_RevPro_11
        DEC       A
        JZ        ??OneNet_RevPro_12
        LJMP      ??OneNet_RevPro_8 & 0xFFFF
//  157                 {
//  158                     case 1:                                                         //收到publish的qos为1，设备需要回复Ack
//  159                     {
//  160                         if(MQTT_PacketPublishAck(pkt_id, &mqttPacket) == 0)
??OneNet_RevPro_11:
        ; Setup parameters for call to function MQTT_PacketPublishAck
        MOV       A,#0x3
        LCALL     ?XSTACK_DISP102_8
        MOV       DPTR,#??pkt_id
        MOVX      A,@DPTR
        MOV       R2,A
        INC       DPTR
        MOVX      A,@DPTR
        MOV       R3,A
        LCALL     `??MQTT_PacketPublishAck::?relay`; Banked call to: MQTT_PacketPublishAck
        MOV       A,R1
        JZ        $+5
        LJMP      ??OneNet_RevPro_8 & 0xFFFF
//  161                         {
//  162                             debug("Tips:  Send PublishAck\r\n");
        ; Setup parameters for call to function debug
        MOV       R2,#`?<Constant "Tips:  Send PublishAck\\r\\n">` & 0xff
        MOV       R3,#(`?<Constant "Tips:  Send PublishAck\\r\\n">` >> 8) & 0xff
        SJMP      ??OneNet_RevPro_9
//  163                             ESP8266_SendData(mqttPacket._data, mqttPacket._len);
//  164                             MQTT_DeleteBuffer(&mqttPacket);
//  165                         }
//  166                         break;
//  167                     }
//  168                     case 2: //收到publish的qos为2，设备先回复Rec
//  169                     {       //平台回复Rel，设备再回复Comp
//  170                         if(MQTT_PacketPublishRec(pkt_id, &mqttPacket) == 0)
??OneNet_RevPro_12:
        ; Setup parameters for call to function MQTT_PacketPublishRec
        MOV       A,#0x3
        LCALL     ?XSTACK_DISP102_8
        MOV       DPTR,#??pkt_id
        MOVX      A,@DPTR
        MOV       R2,A
        INC       DPTR
        MOVX      A,@DPTR
        MOV       R3,A
        LCALL     `??MQTT_PacketPublishRec::?relay`; Banked call to: MQTT_PacketPublishRec
        MOV       A,R1
        JZ        $+5
        LJMP      ??OneNet_RevPro_8 & 0xFFFF
//  171                         {
//  172                             debug("Tips:  Send PublishRec\r\n");
        ; Setup parameters for call to function debug
        MOV       R2,#`?<Constant "Tips:  Send PublishRec\\r\\n">` & 0xff
        MOV       R3,#(`?<Constant "Tips:  Send PublishRec\\r\\n">` >> 8) & 0xff
        SJMP      ??OneNet_RevPro_9
//  173                             ESP8266_SendData(mqttPacket._data, mqttPacket._len);
//  174                             MQTT_DeleteBuffer(&mqttPacket);
//  175                         }
//  176                         break;
//  177                     }
//  178                     default:
//  179                         break;
//  180                 }
//  181                 
//  182             }
//  183             break;
//  184         }
//  185         case MQTT_PKT_PUBREC:   //发送Publish消息，平台回复的Rec，设备需回复Rel消息
//  186         {
//  187             if(MQTT_UnPacketPublishRec(cmd) == 0)
??OneNet_RevPro_2:
        ; Setup parameters for call to function MQTT_UnPacketPublishRec
        MOV       A,R6
        MOV       R2,A
        MOV       A,R7
        MOV       R3,A
        LCALL     `??MQTT_UnPacketPublishRec::?relay`; Banked call to: MQTT_UnPacketPublishRec
        MOV       A,R1
        JZ        $+5
        LJMP      ??OneNet_RevPro_8 & 0xFFFF
//  188             {
//  189                 debug("Tips:  Rev PublishRec\r\n");
        ; Setup parameters for call to function debug
        MOV       R2,#`?<Constant "Tips:  Rev PublishRec\\r\\n">` & 0xff
        MOV       R3,#(`?<Constant "Tips:  Rev PublishRec\\r\\n">` >> 8) & 0xff
        LCALL     `??debug::?relay`; Banked call to: debug
//  190                 if(MQTT_PacketPublishRel(MQTT_PUBLISH_ID, &mqttPacket) == 0)
        ; Setup parameters for call to function MQTT_PacketPublishRel
        MOV       A,#0x3
        LCALL     ?XSTACK_DISP102_8
        MOV       R2,#0xa
        MOV       R3,#0x0
        LCALL     `??MQTT_PacketPublishRel::?relay`; Banked call to: MQTT_PacketPublishRel
        MOV       A,R1
        JZ        $+5
        LJMP      ??OneNet_RevPro_8 & 0xFFFF
//  191                 {
//  192                     debug("Tips:  Send PublishRel\r\n");
        ; Setup parameters for call to function debug
        MOV       R2,#`?<Constant "Tips:  Send PublishRel\\r\\n">` & 0xff
        MOV       R3,#(`?<Constant "Tips:  Send PublishRel\\r\\n">` >> 8) & 0xff
        SJMP      ??OneNet_RevPro_9
//  193                     ESP8266_SendData(mqttPacket._data, mqttPacket._len);
//  194                     MQTT_DeleteBuffer(&mqttPacket);
//  195                 }
//  196             }
//  197             break;
//  198         }   
//  199         case MQTT_PKT_PUBREL://收到Publish消息，设备回复Rec后，平台回复的Rel，设备需再回复Comp
//  200         {
//  201             if(MQTT_UnPacketPublishRel(cmd, pkt_id) == 0)
??OneNet_RevPro_3:
        ; Setup parameters for call to function MQTT_UnPacketPublishRel
        MOV       DPTR,#??pkt_id
        MOVX      A,@DPTR
        MOV       R4,A
        INC       DPTR
        MOVX      A,@DPTR
        MOV       R5,A
        MOV       A,R6
        MOV       R2,A
        MOV       A,R7
        MOV       R3,A
        LCALL     `??MQTT_UnPacketPublishRel::?relay`; Banked call to: MQTT_UnPacketPublishRel
        MOV       A,R1
        JNZ       ??OneNet_RevPro_8
//  202             {
//  203                 debug("Tips:  Rev PublishRel\r\n");
        ; Setup parameters for call to function debug
        MOV       R2,#`?<Constant "Tips:  Rev PublishRel\\r\\n">` & 0xff
        MOV       R3,#(`?<Constant "Tips:  Rev PublishRel\\r\\n">` >> 8) & 0xff
        LCALL     `??debug::?relay`; Banked call to: debug
//  204                 if(MQTT_PacketPublishComp(MQTT_PUBLISH_ID, &mqttPacket) == 0)
        ; Setup parameters for call to function MQTT_PacketPublishComp
        MOV       A,#0x3
        LCALL     ?XSTACK_DISP102_8
        MOV       R2,#0xa
        MOV       R3,#0x0
        LCALL     `??MQTT_PacketPublishComp::?relay`; Banked call to: MQTT_PacketPublishComp
        MOV       A,R1
        JNZ       ??OneNet_RevPro_8
//  205                 {
//  206                    debug("Tips:  Send PublishComp\r\n");
        ; Setup parameters for call to function debug
        MOV       R2,#`?<Constant "Tips:  Send PublishCo...">` & 0xff
        MOV       R3,#(`?<Constant "Tips:  Send PublishCo...">` >> 8) & 0xff
??OneNet_RevPro_9:
        LCALL     `??debug::?relay`; Banked call to: debug
//  207                     ESP8266_SendData(mqttPacket._data, mqttPacket._len);
        ; Setup parameters for call to function ESP8266_SendData
        MOV       A,#0x5
        LCALL     ?XSTACK_DISP0_8
        MOV       R0,#?V0
        LCALL     ?L_MOV_X
        MOV       R4,?V0
        MOV       R5,?V1
        MOV       A,#0x3
        LCALL     ?XSTACK_DISP0_8
        LCALL     ?Subroutine5 & 0xFFFF
//  208                     MQTT_DeleteBuffer(&mqttPacket);
??CrossCallReturnLabel_6:
        ; Setup parameters for call to function MQTT_DeleteBuffer
        MOV       A,#0x3
        LCALL     ?XSTACK_DISP101_8
        LCALL     `??MQTT_DeleteBuffer::?relay`; Banked call to: MQTT_DeleteBuffer
        SJMP      ??OneNet_RevPro_8
//  209                 }
//  210             }
//  211             break;
//  212         }
//  213         case MQTT_PKT_PUBCOMP:  //发送Publish消息，平台返回Rec，设备回复Rel，平台再返回的Comp
//  214         {
//  215             if(MQTT_UnPacketPublishComp(cmd) == 0)
??OneNet_RevPro_4:
        ; Setup parameters for call to function MQTT_UnPacketPublishComp
        MOV       A,R6
        MOV       R2,A
        MOV       A,R7
        MOV       R3,A
        LCALL     `??MQTT_UnPacketPublishComp::?relay`; Banked call to: MQTT_UnPacketPublishComp
        MOV       A,R1
        JNZ       ??OneNet_RevPro_8
//  216             {
//  217                 debug("Tips:  Rev PublishComp\r\n");
        ; Setup parameters for call to function debug
        MOV       R2,#`?<Constant "Tips:  Rev PublishComp\\r\\n">` & 0xff
        MOV       R3,#(`?<Constant "Tips:  Rev PublishComp\\r\\n">` >> 8) & 0xff
        SJMP      ??OneNet_RevPro_10
//  218             }
//  219             break;
//  220         }
//  221         case MQTT_PKT_SUBACK:   //发送Subscribe消息的Ack
//  222         {
//  223             if(MQTT_UnPacketSubscribe(cmd) == 0)
??OneNet_RevPro_5:
        ; Setup parameters for call to function MQTT_UnPacketSubscribe
        MOV       A,R6
        MOV       R2,A
        MOV       A,R7
        MOV       R3,A
        LCALL     `??MQTT_UnPacketSubscribe::?relay`; Banked call to: MQTT_UnPacketSubscribe
        MOV       A,R1
        JNZ       ??OneNet_RevPro_13
//  224             {
//  225                 debug("Tips:  MQTT Subscribe OK\r\n");
        ; Setup parameters for call to function debug
        MOV       R2,#`?<Constant "Tips:  MQTT Subscribe...">` & 0xff
        MOV       R3,#(`?<Constant "Tips:  MQTT Subscribe...">` >> 8) & 0xff
        SJMP      ??OneNet_RevPro_10
//  226             }
//  227             else
//  228             {
//  229                 debug("Tips:  MQTT Subscribe Err\r\n");
??OneNet_RevPro_13:
        ; Setup parameters for call to function debug
        MOV       R2,#`?<Constant "Tips:  MQTT Subscribe...">_1` & 0xff
        MOV       R3,#(`?<Constant "Tips:  MQTT Subscribe...">_1` >> 8) & 0xff
        SJMP      ??OneNet_RevPro_10
//  230             }
//  231             break;
//  232         }
//  233         case MQTT_PKT_UNSUBACK: //发送UnSubscribe消息的Ack
//  234         {
//  235             if(MQTT_UnPacketUnSubscribe(cmd) == 0)
??OneNet_RevPro_6:
        ; Setup parameters for call to function MQTT_UnPacketUnSubscribe
        MOV       A,R6
        MOV       R2,A
        MOV       A,R7
        MOV       R3,A
        LCALL     `??MQTT_UnPacketUnSubscribe::?relay`; Banked call to: MQTT_UnPacketUnSubscribe
        MOV       A,R1
        JNZ       ??OneNet_RevPro_14
//  236             {
//  237                 debug("Tips:  MQTT UnSubscribe OK\r\n");
        ; Setup parameters for call to function debug
        MOV       R2,#`?<Constant "Tips:  MQTT UnSubscri...">` & 0xff
        MOV       R3,#(`?<Constant "Tips:  MQTT UnSubscri...">` >> 8) & 0xff
        SJMP      ??OneNet_RevPro_10
//  238             }
//  239             else
//  240             {
//  241                 debug("Tips:  MQTT UnSubscribe Err\r\n");
??OneNet_RevPro_14:
        ; Setup parameters for call to function debug
        MOV       R2,#`?<Constant "Tips:  MQTT UnSubscri...">_1` & 0xff
        MOV       R3,#(`?<Constant "Tips:  MQTT UnSubscri...">_1` >> 8) & 0xff
??OneNet_RevPro_10:
        LCALL     `??debug::?relay`; Banked call to: debug
//  242             }
//  243             break;
//  244         } 		
//  245 		default:
//  246 			result = -1;
//  247 		break;
//  248 	}
//  249 }
??OneNet_RevPro_8:
        MOV       A,#0x10
        LJMP      ??Subroutine6_0 & 0xFFFF
          CFI EndBlock cfiBlock3

        RSEG XDATA_ROM_C:CONST:REORDER:NOROOT(0)
        DATA8
`?<Constant {packet_buff, 0L, 300L, 0}>`:
        DATA16
        DW packet_buff
        DATA32
        DD 0
        DD 300
        DATA8
        DB 0

        RSEG XDATA_Z:XDATA:NOROOT(0)
        DATA16
??pkt_id:
        DS 2
        REQUIRE __INIT_XDATA_Z
//  250 
//  251 /**************************************************************
//  252 函数名称 : onenet_mqtt_send_heart
//  253 函数功能 : 发送心跳
//  254 输入参数 : 无
//  255 返回值  	 : 无
//  256 备注		 : 无
//  257 **************************************************************/

        RSEG BANKED_CODE:HUGECODE:NOROOT(0)
//  258 void onenet_mqtt_send_heart(void)
onenet_mqtt_send_heart:
          CFI Block cfiBlock4 Using cfiCommon0
          CFI Function onenet_mqtt_send_heart
        CODE
//  259 {
        FUNCALL onenet_mqtt_send_heart, debug
        LOCFRAME ISTACK, 0, STACK
        LOCFRAME PSTACK, 0, STACK
        LOCFRAME XSTACK, 23, STACK
        LOCFRAME IOVERLAY, 0, STATIC
        LOCFRAME DOVERLAY, 0, STATIC
        ARGFRAME ISTACK, 0, STACK
        ARGFRAME PSTACK, 0, STACK
        ARGFRAME XSTACK, 23, STACK
        ARGFRAME IOVERLAY, 0, STATIC
        ARGFRAME DOVERLAY, 0, STATIC
        FUNCALL onenet_mqtt_send_heart, MQTT_PacketPing
        LOCFRAME ISTACK, 0, STACK
        LOCFRAME PSTACK, 0, STACK
        LOCFRAME XSTACK, 23, STACK
        LOCFRAME IOVERLAY, 0, STATIC
        LOCFRAME DOVERLAY, 0, STATIC
        ARGFRAME ISTACK, 0, STACK
        ARGFRAME PSTACK, 0, STACK
        ARGFRAME XSTACK, 23, STACK
        ARGFRAME IOVERLAY, 0, STATIC
        ARGFRAME DOVERLAY, 0, STATIC
        FUNCALL onenet_mqtt_send_heart, ESP8266_SendData
        LOCFRAME ISTACK, 0, STACK
        LOCFRAME PSTACK, 0, STACK
        LOCFRAME XSTACK, 23, STACK
        LOCFRAME IOVERLAY, 0, STATIC
        LOCFRAME DOVERLAY, 0, STATIC
        ARGFRAME ISTACK, 0, STACK
        ARGFRAME PSTACK, 0, STACK
        ARGFRAME XSTACK, 23, STACK
        ARGFRAME IOVERLAY, 0, STATIC
        ARGFRAME DOVERLAY, 0, STATIC
        FUNCALL onenet_mqtt_send_heart, MQTT_DeleteBuffer
        LOCFRAME ISTACK, 0, STACK
        LOCFRAME PSTACK, 0, STACK
        LOCFRAME XSTACK, 23, STACK
        LOCFRAME IOVERLAY, 0, STATIC
        LOCFRAME DOVERLAY, 0, STATIC
        ARGFRAME ISTACK, 0, STACK
        ARGFRAME PSTACK, 0, STACK
        ARGFRAME XSTACK, 23, STACK
        ARGFRAME IOVERLAY, 0, STATIC
        ARGFRAME DOVERLAY, 0, STATIC
        REQUIRE ?V0
        REQUIRE ?V1
        REQUIRE ?V2
        REQUIRE ?V3
        MOV       A,#-0xc
        LCALL     ?BANKED_ENTER_XDATA
          CFI DPH0 load(1, XDATA, add(CFA_XSP16, literal(-1)))
          CFI DPL0 load(1, XDATA, add(CFA_XSP16, literal(-2)))
          CFI ?BRET_EXT load(1, XDATA, add(CFA_XSP16, literal(-3)))
          CFI ?RET_HIGH load(1, XDATA, add(CFA_XSP16, literal(-4)))
          CFI ?RET_LOW load(1, XDATA, add(CFA_XSP16, literal(-5)))
          CFI R7 load(1, XDATA, add(CFA_XSP16, literal(-6)))
          CFI V3 load(1, XDATA, add(CFA_XSP16, literal(-7)))
          CFI V2 load(1, XDATA, add(CFA_XSP16, literal(-8)))
          CFI V1 load(1, XDATA, add(CFA_XSP16, literal(-9)))
          CFI V0 load(1, XDATA, add(CFA_XSP16, literal(-10)))
          CFI VB load(1, XDATA, add(CFA_XSP16, literal(-11)))
          CFI R6 load(1, XDATA, add(CFA_XSP16, literal(-12)))
          CFI CFA_SP SP+0
          CFI CFA_XSP16 add(XSP16, 12)
        ; Saved register size: 12
        ; Auto size: 11
        MOV       A,#-0xb
        LCALL     ?ALLOC_XSTACK8
          CFI CFA_XSP16 add(XSP16, 23)
//  260     MQTT_PACKET_STRUCTURE mqttPacket = {packet_buff, 0, max_packet_len, MEM_FLAG_STATIC};                //协议包
        MOV       DPTR,#`?<Constant {packet_buff, 0L, 300L, 2}>_1`
        MOV       R4,?XSP + 0
        MOV       R5,?XSP + 1
        MOV       A,#0xb
        LCALL     ?MOVE_LONG8_XDATA_XDATA
//  261 
//  262 	debug("send heart\r\n");
        ; Setup parameters for call to function debug
        MOV       R2,#`?<Constant "send heart\\r\\n">` & 0xff
        MOV       R3,#(`?<Constant "send heart\\r\\n">` >> 8) & 0xff
        LCALL     `??debug::?relay`; Banked call to: debug
//  263 	MQTT_PacketPing(&mqttPacket);
        ; Setup parameters for call to function MQTT_PacketPing
        MOV       R2,?XSP + 0
        MOV       R3,?XSP + 1
        LCALL     `??MQTT_PacketPing::?relay`; Banked call to: MQTT_PacketPing
//  264     ESP8266_SendData(mqttPacket._data, mqttPacket._len);
        ; Setup parameters for call to function ESP8266_SendData
        MOV       A,#0x2
        LCALL     ?XSTACK_DISP0_8
        MOV       R0,#?V0
        LCALL     ?L_MOV_X
        LCALL     ?Subroutine3 & 0xFFFF
//  265 	MQTT_DeleteBuffer(&mqttPacket);									//删包
//  266 }
??CrossCallReturnLabel_3:
        LJMP      ?Subroutine0 & 0xFFFF
          CFI EndBlock cfiBlock4

        RSEG BANKED_CODE:HUGECODE:NOROOT(0)
?Subroutine3:
          CFI Block cfiCond5 Using cfiCommon0
          CFI Function OneNet_DevLink
          CFI Conditional ??CrossCallReturnLabel_2
          CFI R6 load(1, XDATA, add(CFA_XSP16, literal(-12)))
          CFI VB load(1, XDATA, add(CFA_XSP16, literal(-11)))
          CFI V0 load(1, XDATA, add(CFA_XSP16, literal(-10)))
          CFI V1 load(1, XDATA, add(CFA_XSP16, literal(-9)))
          CFI V2 load(1, XDATA, add(CFA_XSP16, literal(-8)))
          CFI V3 load(1, XDATA, add(CFA_XSP16, literal(-7)))
          CFI R7 load(1, XDATA, add(CFA_XSP16, literal(-6)))
          CFI ?RET_LOW load(1, XDATA, add(CFA_XSP16, literal(-5)))
          CFI ?RET_HIGH load(1, XDATA, add(CFA_XSP16, literal(-4)))
          CFI ?BRET_EXT load(1, XDATA, add(CFA_XSP16, literal(-3)))
          CFI DPL0 load(1, XDATA, add(CFA_XSP16, literal(-2)))
          CFI DPH0 load(1, XDATA, add(CFA_XSP16, literal(-1)))
          CFI CFA_SP SP+-2
          CFI CFA_XSP16 add(XSP16, 23)
          CFI Block cfiCond6 Using cfiCommon0
          CFI (cfiCond6) Function onenet_mqtt_send_heart
          CFI (cfiCond6) Conditional ??CrossCallReturnLabel_3
          CFI (cfiCond6) R6 load(1, XDATA, add(CFA_XSP16, literal(-12)))
          CFI (cfiCond6) VB load(1, XDATA, add(CFA_XSP16, literal(-11)))
          CFI (cfiCond6) V0 load(1, XDATA, add(CFA_XSP16, literal(-10)))
          CFI (cfiCond6) V1 load(1, XDATA, add(CFA_XSP16, literal(-9)))
          CFI (cfiCond6) V2 load(1, XDATA, add(CFA_XSP16, literal(-8)))
          CFI (cfiCond6) V3 load(1, XDATA, add(CFA_XSP16, literal(-7)))
          CFI (cfiCond6) R7 load(1, XDATA, add(CFA_XSP16, literal(-6)))
          CFI (cfiCond6) ?RET_LOW load(1, XDATA, add(CFA_XSP16, literal(-5)))
          CFI (cfiCond6) ?RET_HIGH load(1, XDATA, add(CFA_XSP16, literal(-4)))
          CFI (cfiCond6) ?BRET_EXT load(1, XDATA, add(CFA_XSP16, literal(-3)))
          CFI (cfiCond6) DPL0 load(1, XDATA, add(CFA_XSP16, literal(-2)))
          CFI (cfiCond6) DPH0 load(1, XDATA, add(CFA_XSP16, literal(-1)))
          CFI (cfiCond6) CFA_SP SP+-2
          CFI (cfiCond6) CFA_XSP16 add(XSP16, 23)
          CFI Block cfiPicker7 Using cfiCommon1
          CFI (cfiPicker7) NoFunction
          CFI (cfiPicker7) Picker
        MOV       R4,?V0
        MOV       R5,?V1
        LCALL     ?Subroutine4 & 0xFFFF
??CrossCallReturnLabel_4:
        RET
          CFI EndBlock cfiCond5
          CFI EndBlock cfiCond6
          CFI EndBlock cfiPicker7

        RSEG BANKED_CODE:HUGECODE:NOROOT(0)
?Subroutine4:
          CFI Block cfiCond8 Using cfiCommon0
          CFI Function OneNet_DevLink
          CFI Conditional ??CrossCallReturnLabel_4, ??CrossCallReturnLabel_2
          CFI R6 load(1, XDATA, add(CFA_XSP16, literal(-12)))
          CFI VB load(1, XDATA, add(CFA_XSP16, literal(-11)))
          CFI V0 load(1, XDATA, add(CFA_XSP16, literal(-10)))
          CFI V1 load(1, XDATA, add(CFA_XSP16, literal(-9)))
          CFI V2 load(1, XDATA, add(CFA_XSP16, literal(-8)))
          CFI V3 load(1, XDATA, add(CFA_XSP16, literal(-7)))
          CFI R7 load(1, XDATA, add(CFA_XSP16, literal(-6)))
          CFI ?RET_LOW load(1, XDATA, add(CFA_XSP16, literal(-5)))
          CFI ?RET_HIGH load(1, XDATA, add(CFA_XSP16, literal(-4)))
          CFI ?BRET_EXT load(1, XDATA, add(CFA_XSP16, literal(-3)))
          CFI DPL0 load(1, XDATA, add(CFA_XSP16, literal(-2)))
          CFI DPH0 load(1, XDATA, add(CFA_XSP16, literal(-1)))
          CFI CFA_SP SP+-4
          CFI CFA_XSP16 add(XSP16, 23)
          CFI Block cfiCond9 Using cfiCommon0
          CFI (cfiCond9) Function onenet_mqtt_send_heart
          CFI (cfiCond9) Conditional ??CrossCallReturnLabel_4, ??CrossCallReturnLabel_3
          CFI (cfiCond9) R6 load(1, XDATA, add(CFA_XSP16, literal(-12)))
          CFI (cfiCond9) VB load(1, XDATA, add(CFA_XSP16, literal(-11)))
          CFI (cfiCond9) V0 load(1, XDATA, add(CFA_XSP16, literal(-10)))
          CFI (cfiCond9) V1 load(1, XDATA, add(CFA_XSP16, literal(-9)))
          CFI (cfiCond9) V2 load(1, XDATA, add(CFA_XSP16, literal(-8)))
          CFI (cfiCond9) V3 load(1, XDATA, add(CFA_XSP16, literal(-7)))
          CFI (cfiCond9) R7 load(1, XDATA, add(CFA_XSP16, literal(-6)))
          CFI (cfiCond9) ?RET_LOW load(1, XDATA, add(CFA_XSP16, literal(-5)))
          CFI (cfiCond9) ?RET_HIGH load(1, XDATA, add(CFA_XSP16, literal(-4)))
          CFI (cfiCond9) ?BRET_EXT load(1, XDATA, add(CFA_XSP16, literal(-3)))
          CFI (cfiCond9) DPL0 load(1, XDATA, add(CFA_XSP16, literal(-2)))
          CFI (cfiCond9) DPH0 load(1, XDATA, add(CFA_XSP16, literal(-1)))
          CFI (cfiCond9) CFA_SP SP+-4
          CFI (cfiCond9) CFA_XSP16 add(XSP16, 23)
          CFI Block cfiCond10 Using cfiCommon0
          CFI (cfiCond10) Function mqtt_publish_topic
          CFI (cfiCond10) Conditional ??CrossCallReturnLabel_5, ??CrossCallReturnLabel_0
          CFI (cfiCond10) R6 load(1, XDATA, add(CFA_XSP16, literal(-16)))
          CFI (cfiCond10) VB load(1, XDATA, add(CFA_XSP16, literal(-15)))
          CFI (cfiCond10) V0 load(1, XDATA, add(CFA_XSP16, literal(-14)))
          CFI (cfiCond10) V1 load(1, XDATA, add(CFA_XSP16, literal(-13)))
          CFI (cfiCond10) V2 load(1, XDATA, add(CFA_XSP16, literal(-12)))
          CFI (cfiCond10) V3 load(1, XDATA, add(CFA_XSP16, literal(-11)))
          CFI (cfiCond10) V4 load(1, XDATA, add(CFA_XSP16, literal(-10)))
          CFI (cfiCond10) V5 load(1, XDATA, add(CFA_XSP16, literal(-9)))
          CFI (cfiCond10) V6 load(1, XDATA, add(CFA_XSP16, literal(-8)))
          CFI (cfiCond10) V7 load(1, XDATA, add(CFA_XSP16, literal(-7)))
          CFI (cfiCond10) R7 load(1, XDATA, add(CFA_XSP16, literal(-6)))
          CFI (cfiCond10) ?RET_LOW load(1, XDATA, add(CFA_XSP16, literal(-5)))
          CFI (cfiCond10) ?RET_HIGH load(1, XDATA, add(CFA_XSP16, literal(-4)))
          CFI (cfiCond10) ?BRET_EXT load(1, XDATA, add(CFA_XSP16, literal(-3)))
          CFI (cfiCond10) DPL0 load(1, XDATA, add(CFA_XSP16, literal(-2)))
          CFI (cfiCond10) DPH0 load(1, XDATA, add(CFA_XSP16, literal(-1)))
          CFI (cfiCond10) CFA_SP SP+-4
          CFI (cfiCond10) CFA_XSP16 add(XSP16, 27)
          CFI Block cfiCond11 Using cfiCommon0
          CFI (cfiCond11) Function mqtt_subscribe_topic
          CFI (cfiCond11) Conditional ??CrossCallReturnLabel_5, ??CrossCallReturnLabel_1
          CFI (cfiCond11) R6 load(1, XDATA, add(CFA_XSP16, literal(-16)))
          CFI (cfiCond11) VB load(1, XDATA, add(CFA_XSP16, literal(-15)))
          CFI (cfiCond11) V0 load(1, XDATA, add(CFA_XSP16, literal(-14)))
          CFI (cfiCond11) V1 load(1, XDATA, add(CFA_XSP16, literal(-13)))
          CFI (cfiCond11) V2 load(1, XDATA, add(CFA_XSP16, literal(-12)))
          CFI (cfiCond11) V3 load(1, XDATA, add(CFA_XSP16, literal(-11)))
          CFI (cfiCond11) V4 load(1, XDATA, add(CFA_XSP16, literal(-10)))
          CFI (cfiCond11) V5 load(1, XDATA, add(CFA_XSP16, literal(-9)))
          CFI (cfiCond11) V6 load(1, XDATA, add(CFA_XSP16, literal(-8)))
          CFI (cfiCond11) V7 load(1, XDATA, add(CFA_XSP16, literal(-7)))
          CFI (cfiCond11) R7 load(1, XDATA, add(CFA_XSP16, literal(-6)))
          CFI (cfiCond11) ?RET_LOW load(1, XDATA, add(CFA_XSP16, literal(-5)))
          CFI (cfiCond11) ?RET_HIGH load(1, XDATA, add(CFA_XSP16, literal(-4)))
          CFI (cfiCond11) ?BRET_EXT load(1, XDATA, add(CFA_XSP16, literal(-3)))
          CFI (cfiCond11) DPL0 load(1, XDATA, add(CFA_XSP16, literal(-2)))
          CFI (cfiCond11) DPH0 load(1, XDATA, add(CFA_XSP16, literal(-1)))
          CFI (cfiCond11) CFA_SP SP+-4
          CFI (cfiCond11) CFA_XSP16 add(XSP16, 27)
          CFI Block cfiPicker12 Using cfiCommon1
          CFI (cfiPicker12) NoFunction
          CFI (cfiPicker12) Picker
        MOV       DPL,?XSP + 0
        MOV       DPH,?XSP + 1
        LCALL     ?Subroutine5 & 0xFFFF
??CrossCallReturnLabel_7:
        ; Setup parameters for call to function MQTT_DeleteBuffer
        ; Setup parameters for call to function MQTT_DeleteBuffer
        ; Setup parameters for call to function MQTT_DeleteBuffer
        ; Setup parameters for call to function MQTT_DeleteBuffer
        MOV       R2,?XSP + 0
        MOV       R3,?XSP + 1
        LCALL     `??MQTT_DeleteBuffer::?relay`; Banked call to: MQTT_DeleteBuffer
        RET
          CFI EndBlock cfiCond8
          CFI EndBlock cfiCond9
          CFI EndBlock cfiCond10
          CFI EndBlock cfiCond11
          CFI EndBlock cfiPicker12

        RSEG BANKED_CODE:HUGECODE:NOROOT(0)
?Subroutine5:
          CFI Block cfiCond13 Using cfiCommon0
          CFI Function OneNet_RevPro
          CFI Conditional ??CrossCallReturnLabel_6
          CFI R6 load(1, XDATA, add(CFA_XSP16, literal(-12)))
          CFI VB load(1, XDATA, add(CFA_XSP16, literal(-11)))
          CFI V0 load(1, XDATA, add(CFA_XSP16, literal(-10)))
          CFI V1 load(1, XDATA, add(CFA_XSP16, literal(-9)))
          CFI V2 load(1, XDATA, add(CFA_XSP16, literal(-8)))
          CFI V3 load(1, XDATA, add(CFA_XSP16, literal(-7)))
          CFI R7 load(1, XDATA, add(CFA_XSP16, literal(-6)))
          CFI ?RET_LOW load(1, XDATA, add(CFA_XSP16, literal(-5)))
          CFI ?RET_HIGH load(1, XDATA, add(CFA_XSP16, literal(-4)))
          CFI ?BRET_EXT load(1, XDATA, add(CFA_XSP16, literal(-3)))
          CFI DPL0 load(1, XDATA, add(CFA_XSP16, literal(-2)))
          CFI DPH0 load(1, XDATA, add(CFA_XSP16, literal(-1)))
          CFI CFA_SP SP+-2
          CFI CFA_XSP16 add(XSP16, 28)
          CFI Block cfiCond14 Using cfiCommon0
          CFI (cfiCond14) Function OneNet_DevLink
          CFI (cfiCond14) Conditional ??CrossCallReturnLabel_7, ??CrossCallReturnLabel_4, ??CrossCallReturnLabel_2
          CFI (cfiCond14) R6 load(1, XDATA, add(CFA_XSP16, literal(-12)))
          CFI (cfiCond14) VB load(1, XDATA, add(CFA_XSP16, literal(-11)))
          CFI (cfiCond14) V0 load(1, XDATA, add(CFA_XSP16, literal(-10)))
          CFI (cfiCond14) V1 load(1, XDATA, add(CFA_XSP16, literal(-9)))
          CFI (cfiCond14) V2 load(1, XDATA, add(CFA_XSP16, literal(-8)))
          CFI (cfiCond14) V3 load(1, XDATA, add(CFA_XSP16, literal(-7)))
          CFI (cfiCond14) R7 load(1, XDATA, add(CFA_XSP16, literal(-6)))
          CFI (cfiCond14) ?RET_LOW load(1, XDATA, add(CFA_XSP16, literal(-5)))
          CFI (cfiCond14) ?RET_HIGH load(1, XDATA, add(CFA_XSP16, literal(-4)))
          CFI (cfiCond14) ?BRET_EXT load(1, XDATA, add(CFA_XSP16, literal(-3)))
          CFI (cfiCond14) DPL0 load(1, XDATA, add(CFA_XSP16, literal(-2)))
          CFI (cfiCond14) DPH0 load(1, XDATA, add(CFA_XSP16, literal(-1)))
          CFI (cfiCond14) CFA_SP SP+-6
          CFI (cfiCond14) CFA_XSP16 add(XSP16, 23)
          CFI Block cfiCond15 Using cfiCommon0
          CFI (cfiCond15) Function onenet_mqtt_send_heart
          CFI (cfiCond15) Conditional ??CrossCallReturnLabel_7, ??CrossCallReturnLabel_4, ??CrossCallReturnLabel_3
          CFI (cfiCond15) R6 load(1, XDATA, add(CFA_XSP16, literal(-12)))
          CFI (cfiCond15) VB load(1, XDATA, add(CFA_XSP16, literal(-11)))
          CFI (cfiCond15) V0 load(1, XDATA, add(CFA_XSP16, literal(-10)))
          CFI (cfiCond15) V1 load(1, XDATA, add(CFA_XSP16, literal(-9)))
          CFI (cfiCond15) V2 load(1, XDATA, add(CFA_XSP16, literal(-8)))
          CFI (cfiCond15) V3 load(1, XDATA, add(CFA_XSP16, literal(-7)))
          CFI (cfiCond15) R7 load(1, XDATA, add(CFA_XSP16, literal(-6)))
          CFI (cfiCond15) ?RET_LOW load(1, XDATA, add(CFA_XSP16, literal(-5)))
          CFI (cfiCond15) ?RET_HIGH load(1, XDATA, add(CFA_XSP16, literal(-4)))
          CFI (cfiCond15) ?BRET_EXT load(1, XDATA, add(CFA_XSP16, literal(-3)))
          CFI (cfiCond15) DPL0 load(1, XDATA, add(CFA_XSP16, literal(-2)))
          CFI (cfiCond15) DPH0 load(1, XDATA, add(CFA_XSP16, literal(-1)))
          CFI (cfiCond15) CFA_SP SP+-6
          CFI (cfiCond15) CFA_XSP16 add(XSP16, 23)
          CFI Block cfiCond16 Using cfiCommon0
          CFI (cfiCond16) Function mqtt_publish_topic
          CFI (cfiCond16) Conditional ??CrossCallReturnLabel_7, ??CrossCallReturnLabel_5, ??CrossCallReturnLabel_0
          CFI (cfiCond16) R6 load(1, XDATA, add(CFA_XSP16, literal(-16)))
          CFI (cfiCond16) VB load(1, XDATA, add(CFA_XSP16, literal(-15)))
          CFI (cfiCond16) V0 load(1, XDATA, add(CFA_XSP16, literal(-14)))
          CFI (cfiCond16) V1 load(1, XDATA, add(CFA_XSP16, literal(-13)))
          CFI (cfiCond16) V2 load(1, XDATA, add(CFA_XSP16, literal(-12)))
          CFI (cfiCond16) V3 load(1, XDATA, add(CFA_XSP16, literal(-11)))
          CFI (cfiCond16) V4 load(1, XDATA, add(CFA_XSP16, literal(-10)))
          CFI (cfiCond16) V5 load(1, XDATA, add(CFA_XSP16, literal(-9)))
          CFI (cfiCond16) V6 load(1, XDATA, add(CFA_XSP16, literal(-8)))
          CFI (cfiCond16) V7 load(1, XDATA, add(CFA_XSP16, literal(-7)))
          CFI (cfiCond16) R7 load(1, XDATA, add(CFA_XSP16, literal(-6)))
          CFI (cfiCond16) ?RET_LOW load(1, XDATA, add(CFA_XSP16, literal(-5)))
          CFI (cfiCond16) ?RET_HIGH load(1, XDATA, add(CFA_XSP16, literal(-4)))
          CFI (cfiCond16) ?BRET_EXT load(1, XDATA, add(CFA_XSP16, literal(-3)))
          CFI (cfiCond16) DPL0 load(1, XDATA, add(CFA_XSP16, literal(-2)))
          CFI (cfiCond16) DPH0 load(1, XDATA, add(CFA_XSP16, literal(-1)))
          CFI (cfiCond16) CFA_SP SP+-6
          CFI (cfiCond16) CFA_XSP16 add(XSP16, 27)
          CFI Block cfiCond17 Using cfiCommon0
          CFI (cfiCond17) Function mqtt_subscribe_topic
          CFI (cfiCond17) Conditional ??CrossCallReturnLabel_7, ??CrossCallReturnLabel_5, ??CrossCallReturnLabel_1
          CFI (cfiCond17) R6 load(1, XDATA, add(CFA_XSP16, literal(-16)))
          CFI (cfiCond17) VB load(1, XDATA, add(CFA_XSP16, literal(-15)))
          CFI (cfiCond17) V0 load(1, XDATA, add(CFA_XSP16, literal(-14)))
          CFI (cfiCond17) V1 load(1, XDATA, add(CFA_XSP16, literal(-13)))
          CFI (cfiCond17) V2 load(1, XDATA, add(CFA_XSP16, literal(-12)))
          CFI (cfiCond17) V3 load(1, XDATA, add(CFA_XSP16, literal(-11)))
          CFI (cfiCond17) V4 load(1, XDATA, add(CFA_XSP16, literal(-10)))
          CFI (cfiCond17) V5 load(1, XDATA, add(CFA_XSP16, literal(-9)))
          CFI (cfiCond17) V6 load(1, XDATA, add(CFA_XSP16, literal(-8)))
          CFI (cfiCond17) V7 load(1, XDATA, add(CFA_XSP16, literal(-7)))
          CFI (cfiCond17) R7 load(1, XDATA, add(CFA_XSP16, literal(-6)))
          CFI (cfiCond17) ?RET_LOW load(1, XDATA, add(CFA_XSP16, literal(-5)))
          CFI (cfiCond17) ?RET_HIGH load(1, XDATA, add(CFA_XSP16, literal(-4)))
          CFI (cfiCond17) ?BRET_EXT load(1, XDATA, add(CFA_XSP16, literal(-3)))
          CFI (cfiCond17) DPL0 load(1, XDATA, add(CFA_XSP16, literal(-2)))
          CFI (cfiCond17) DPH0 load(1, XDATA, add(CFA_XSP16, literal(-1)))
          CFI (cfiCond17) CFA_SP SP+-6
          CFI (cfiCond17) CFA_XSP16 add(XSP16, 27)
          CFI Block cfiPicker18 Using cfiCommon1
          CFI (cfiPicker18) NoFunction
          CFI (cfiPicker18) Picker
        MOVX      A,@DPTR
        MOV       R2,A
        INC       DPTR
        MOVX      A,@DPTR
        MOV       R3,A
        LCALL     `??ESP8266_SendData::?relay`; Banked call to: ESP8266_SendData
        RET
          CFI EndBlock cfiCond13
          CFI EndBlock cfiCond14
          CFI EndBlock cfiCond15
          CFI EndBlock cfiCond16
          CFI EndBlock cfiCond17
          CFI EndBlock cfiPicker18

        RSEG XDATA_ROM_C:CONST:REORDER:NOROOT(0)
        DATA8
`?<Constant {packet_buff, 0L, 300L, 2}>_1`:
        DATA16
        DW packet_buff
        DATA32
        DD 0
        DD 300
        DATA8
        DB 2
//  267 
//  268 
//  269 /**************************************************************
//  270 函数名称 : mqtt_publish_topic
//  271 函数功能 : onenet mqtt 发布主题消息
//  272 输入参数 : topic：发布的主题
//  273 		   msg：消息内容
//  274 返回值  	 : PUBLISH_MSG_OK: 发布消息成功
//  275 		   PUBLISH_MSG_ERROR：发布消息失败
//  276 备注		 : 无
//  277 **************************************************************/

        RSEG BANKED_CODE:HUGECODE:NOROOT(0)
//  278 _Bool mqtt_publish_topic(const char *topic, const char *msg)
mqtt_publish_topic:
          CFI Block cfiBlock19 Using cfiCommon0
          CFI Function mqtt_publish_topic
        CODE
//  279 {
        FUNCALL mqtt_publish_topic, debug
        LOCFRAME ISTACK, 0, STACK
        LOCFRAME PSTACK, 0, STACK
        LOCFRAME XSTACK, 31, STACK
        LOCFRAME IOVERLAY, 0, STATIC
        LOCFRAME DOVERLAY, 0, STATIC
        ARGFRAME ISTACK, 0, STACK
        ARGFRAME PSTACK, 0, STACK
        ARGFRAME XSTACK, 31, STACK
        ARGFRAME IOVERLAY, 0, STATIC
        ARGFRAME DOVERLAY, 0, STATIC
        FUNCALL mqtt_publish_topic, strlen
        LOCFRAME ISTACK, 0, STACK
        LOCFRAME PSTACK, 0, STACK
        LOCFRAME XSTACK, 27, STACK
        LOCFRAME IOVERLAY, 0, STATIC
        LOCFRAME DOVERLAY, 0, STATIC
        ARGFRAME ISTACK, 0, STACK
        ARGFRAME PSTACK, 0, STACK
        ARGFRAME XSTACK, 27, STACK
        ARGFRAME IOVERLAY, 0, STATIC
        ARGFRAME DOVERLAY, 0, STATIC
        FUNCALL mqtt_publish_topic, MQTT_PacketPublish
        LOCFRAME ISTACK, 0, STACK
        LOCFRAME PSTACK, 0, STACK
        LOCFRAME XSTACK, 43, STACK
        LOCFRAME IOVERLAY, 0, STATIC
        LOCFRAME DOVERLAY, 0, STATIC
        ARGFRAME ISTACK, 0, STACK
        ARGFRAME PSTACK, 0, STACK
        ARGFRAME XSTACK, 43, STACK
        ARGFRAME IOVERLAY, 0, STATIC
        ARGFRAME DOVERLAY, 0, STATIC
        FUNCALL mqtt_publish_topic, ESP8266_SendData
        LOCFRAME ISTACK, 0, STACK
        LOCFRAME PSTACK, 0, STACK
        LOCFRAME XSTACK, 27, STACK
        LOCFRAME IOVERLAY, 0, STATIC
        LOCFRAME DOVERLAY, 0, STATIC
        ARGFRAME ISTACK, 0, STACK
        ARGFRAME PSTACK, 0, STACK
        ARGFRAME XSTACK, 27, STACK
        ARGFRAME IOVERLAY, 0, STATIC
        ARGFRAME DOVERLAY, 0, STATIC
        FUNCALL mqtt_publish_topic, MQTT_DeleteBuffer
        LOCFRAME ISTACK, 0, STACK
        LOCFRAME PSTACK, 0, STACK
        LOCFRAME XSTACK, 27, STACK
        LOCFRAME IOVERLAY, 0, STATIC
        LOCFRAME DOVERLAY, 0, STATIC
        ARGFRAME ISTACK, 0, STACK
        ARGFRAME PSTACK, 0, STACK
        ARGFRAME XSTACK, 27, STACK
        ARGFRAME IOVERLAY, 0, STATIC
        ARGFRAME DOVERLAY, 0, STATIC
        REQUIRE ?V0
        REQUIRE ?V1
        REQUIRE ?V2
        REQUIRE ?V3
        REQUIRE ?V4
        REQUIRE ?V5
        REQUIRE ?V6
        REQUIRE ?V7
        MOV       A,#-0x10
        LCALL     ?BANKED_ENTER_XDATA
          CFI DPH0 load(1, XDATA, add(CFA_XSP16, literal(-1)))
          CFI DPL0 load(1, XDATA, add(CFA_XSP16, literal(-2)))
          CFI ?BRET_EXT load(1, XDATA, add(CFA_XSP16, literal(-3)))
          CFI ?RET_HIGH load(1, XDATA, add(CFA_XSP16, literal(-4)))
          CFI ?RET_LOW load(1, XDATA, add(CFA_XSP16, literal(-5)))
          CFI R7 load(1, XDATA, add(CFA_XSP16, literal(-6)))
          CFI V7 load(1, XDATA, add(CFA_XSP16, literal(-7)))
          CFI V6 load(1, XDATA, add(CFA_XSP16, literal(-8)))
          CFI V5 load(1, XDATA, add(CFA_XSP16, literal(-9)))
          CFI V4 load(1, XDATA, add(CFA_XSP16, literal(-10)))
          CFI V3 load(1, XDATA, add(CFA_XSP16, literal(-11)))
          CFI V2 load(1, XDATA, add(CFA_XSP16, literal(-12)))
          CFI V1 load(1, XDATA, add(CFA_XSP16, literal(-13)))
          CFI V0 load(1, XDATA, add(CFA_XSP16, literal(-14)))
          CFI VB load(1, XDATA, add(CFA_XSP16, literal(-15)))
          CFI R6 load(1, XDATA, add(CFA_XSP16, literal(-16)))
          CFI CFA_SP SP+0
          CFI CFA_XSP16 add(XSP16, 16)
        ; Saved register size: 16
        ; Auto size: 11
        MOV       A,#-0xb
        LCALL     ?ALLOC_XSTACK8
          CFI CFA_XSP16 add(XSP16, 27)
        MOV       ?V2,R2
        MOV       ?V3,R3
        MOV       ?V0,R4
        MOV       ?V1,R5
//  280   MQTT_PACKET_STRUCTURE mqttPacket = {packet_buff, 0, max_packet_len, MEM_FLAG_STATIC};                //协议包
        MOV       DPTR,#`?<Constant {packet_buff, 0L, 300L, 2}>_2`
        MOV       R4,?XSP + 0
        MOV       R5,?XSP + 1
        MOV       A,#0xb
        LCALL     ?MOVE_LONG8_XDATA_XDATA
//  281 	
//  282 	debug("publish topic: %s, msg: %s\r\n", topic, msg);
        ; Setup parameters for call to function debug
        MOV       R0,#?V0
        LCALL     ?PUSH_XSTACK_I_TWO
          CFI CFA_XSP16 add(XSP16, 29)
        MOV       R0,#?V2
        LCALL     ?PUSH_XSTACK_I_TWO
          CFI CFA_XSP16 add(XSP16, 31)
        MOV       R2,#`?<Constant "publish topic: %s, ms...">` & 0xff
        MOV       R3,#(`?<Constant "publish topic: %s, ms...">` >> 8) & 0xff
        LCALL     `??debug::?relay`; Banked call to: debug
        MOV       A,#0x4
        LCALL     ?DEALLOC_XSTACK8
          CFI CFA_XSP16 add(XSP16, 27)
//  283 
//  284 	if(MQTT_PacketPublish(MQTT_PUBLISH_ID, topic, msg, strlen(msg), MQTT_QOS_LEVEL2, 0, 1, &mqttPacket) == 0)
        ; Setup parameters for call to function strlen
        MOV       R2,?V0
        MOV       R3,?V1
        LCALL     `??strlen::?relay`; Banked call to: strlen
        MOV       ?V4,R2
        MOV       ?V5,R3
        ; Setup parameters for call to function MQTT_PacketPublish
        MOV       R0,?XSP + 0
        MOV       R1,?XSP + 1
        MOV       ?V6,R0
        MOV       ?V7,R1
        MOV       R0,#?V6
        LCALL     ?PUSH_XSTACK_I_TWO
          CFI CFA_XSP16 add(XSP16, 29)
        MOV       DPTR,#__Constant_1
        LCALL     ?PUSH_XSTACK8_X_FOUR
          CFI CFA_XSP16 add(XSP16, 33)
        MOV       DPTR,#__Constant_0
        LCALL     ?PUSH_XSTACK8_X_FOUR
          CFI CFA_XSP16 add(XSP16, 37)
        CLR       A
        MOV       ?V6,A
        MOV       ?V7,A
        MOV       R0,#?V4
        LCALL     ?PUSH_XSTACK_I_FOUR
          CFI CFA_XSP16 add(XSP16, 41)
        MOV       R0,#?V0
        LCALL     ?PUSH_XSTACK_I_TWO
          CFI CFA_XSP16 add(XSP16, 43)
        MOV       R1,#0x2
        MOV       R4,?V2
        MOV       R5,?V3
        MOV       R2,#0xa
        MOV       R3,#0x0
        LCALL     `??MQTT_PacketPublish::?relay`; Banked call to: MQTT_PacketPublish
        MOV       A,#0x10
        LCALL     ?DEALLOC_XSTACK8
          CFI CFA_XSP16 add(XSP16, 27)
        MOV       A,R1
        JNZ       ??mqtt_publish_topic_0
//  285 	{
//  286 		ESP8266_SendData(mqttPacket._data, mqttPacket._len);//上传平台
        ; Setup parameters for call to function ESP8266_SendData
        MOV       A,#0x2
        LCALL     ?XSTACK_DISP0_8
        MOV       R0,#?V0
        LCALL     ?L_MOV_X
        MOV       R4,?V0
        MOV       R5,?V1
        LCALL     ?Subroutine2 & 0xFFFF
//  287 		MQTT_DeleteBuffer(&mqttPacket);	//删包
//  288 		return 0;
//  289 	}
??CrossCallReturnLabel_0:
        SJMP      ??mqtt_publish_topic_1
//  290 	else
//  291 	{
//  292 		return 1;
??mqtt_publish_topic_0:
        SETB      C
//  293 	}
??mqtt_publish_topic_1:
          CFI EndBlock cfiBlock19
        REQUIRE ?Subroutine1
        ; // Fall through to label ?Subroutine1
//  294 
//  295 }

        RSEG BANKED_CODE:HUGECODE:NOROOT(0)
?Subroutine1:
          CFI Block cfiBlock20 Using cfiCommon0
          CFI NoFunction
          CFI CFA_SP SP+0
          CFI CFA_XSP16 add(XSP16, 27)
          CFI VB load(1, XDATA, add(CFA_XSP16, literal(-15)))
          CFI DPL0 load(1, XDATA, add(CFA_XSP16, literal(-2)))
          CFI DPH0 load(1, XDATA, add(CFA_XSP16, literal(-1)))
          CFI R6 load(1, XDATA, add(CFA_XSP16, literal(-16)))
          CFI R7 load(1, XDATA, add(CFA_XSP16, literal(-6)))
          CFI V0 load(1, XDATA, add(CFA_XSP16, literal(-14)))
          CFI V1 load(1, XDATA, add(CFA_XSP16, literal(-13)))
          CFI V2 load(1, XDATA, add(CFA_XSP16, literal(-12)))
          CFI V3 load(1, XDATA, add(CFA_XSP16, literal(-11)))
          CFI V4 load(1, XDATA, add(CFA_XSP16, literal(-10)))
          CFI V5 load(1, XDATA, add(CFA_XSP16, literal(-9)))
          CFI V6 load(1, XDATA, add(CFA_XSP16, literal(-8)))
          CFI V7 load(1, XDATA, add(CFA_XSP16, literal(-7)))
          CFI ?BRET_EXT load(1, XDATA, add(CFA_XSP16, literal(-3)))
          CFI ?RET_HIGH load(1, XDATA, add(CFA_XSP16, literal(-4)))
          CFI ?RET_LOW load(1, XDATA, add(CFA_XSP16, literal(-5)))
        MOV       A,#0xb
        LCALL     ?DEALLOC_XSTACK8
          CFI CFA_XSP16 add(XSP16, 16)
        MOV       R7,#0x8
        LJMP      ?BANKED_LEAVE_XDATA
          CFI EndBlock cfiBlock20

        RSEG XDATA_ROM_C:CONST:REORDER:NOROOT(0)
        DATA8
`?<Constant {packet_buff, 0L, 300L, 2}>_2`:
        DATA16
        DW packet_buff
        DATA32
        DD 0
        DD 300
        DATA8
        DB 2
//  296 
//  297 /*  发布主题为"hello_topic"，消息为"hello_world" */
//  298 //if(0 == onenet_mqtt_publish_topic("hello_topic", "hello_world"))
//  299 //{;}
//  300 
//  301  
//  302 /**************************************************************
//  303 函数名称 : onenet_mqtt_subscribe_topic
//  304 函数功能 : onenet mqtt 订阅主题
//  305 输入参数 : topic：订阅的topic
//  306 		   topic_cnt：topic个数
//  307 返回值  	 : SUBSCRIBE_TOPIC_OK:订阅成功 0
//  308 		   SUBSCRIBE_TOPIC_ERROR：订阅失败 其他
//  309 备注		 : 无
//  310 **************************************************************/

        RSEG BANKED_CODE:HUGECODE:NOROOT(0)
//  311 _Bool mqtt_subscribe_topic(const signed char *topic[], unsigned char topic_cnt)
mqtt_subscribe_topic:
          CFI Block cfiBlock21 Using cfiCommon0
          CFI Function mqtt_subscribe_topic
        CODE
//  312 {
        FUNCALL mqtt_subscribe_topic, debug
        LOCFRAME ISTACK, 0, STACK
        LOCFRAME PSTACK, 0, STACK
        LOCFRAME XSTACK, 29, STACK
        LOCFRAME IOVERLAY, 0, STATIC
        LOCFRAME DOVERLAY, 0, STATIC
        ARGFRAME ISTACK, 0, STACK
        ARGFRAME PSTACK, 0, STACK
        ARGFRAME XSTACK, 29, STACK
        ARGFRAME IOVERLAY, 0, STATIC
        ARGFRAME DOVERLAY, 0, STATIC
        FUNCALL mqtt_subscribe_topic, MQTT_PacketSubscribe
        LOCFRAME ISTACK, 0, STACK
        LOCFRAME PSTACK, 0, STACK
        LOCFRAME XSTACK, 30, STACK
        LOCFRAME IOVERLAY, 0, STATIC
        LOCFRAME DOVERLAY, 0, STATIC
        ARGFRAME ISTACK, 0, STACK
        ARGFRAME PSTACK, 0, STACK
        ARGFRAME XSTACK, 30, STACK
        ARGFRAME IOVERLAY, 0, STATIC
        ARGFRAME DOVERLAY, 0, STATIC
        FUNCALL mqtt_subscribe_topic, ESP8266_SendData
        LOCFRAME ISTACK, 0, STACK
        LOCFRAME PSTACK, 0, STACK
        LOCFRAME XSTACK, 27, STACK
        LOCFRAME IOVERLAY, 0, STATIC
        LOCFRAME DOVERLAY, 0, STATIC
        ARGFRAME ISTACK, 0, STACK
        ARGFRAME PSTACK, 0, STACK
        ARGFRAME XSTACK, 27, STACK
        ARGFRAME IOVERLAY, 0, STATIC
        ARGFRAME DOVERLAY, 0, STATIC
        FUNCALL mqtt_subscribe_topic, MQTT_DeleteBuffer
        LOCFRAME ISTACK, 0, STACK
        LOCFRAME PSTACK, 0, STACK
        LOCFRAME XSTACK, 27, STACK
        LOCFRAME IOVERLAY, 0, STATIC
        LOCFRAME DOVERLAY, 0, STATIC
        ARGFRAME ISTACK, 0, STACK
        ARGFRAME PSTACK, 0, STACK
        ARGFRAME XSTACK, 27, STACK
        ARGFRAME IOVERLAY, 0, STATIC
        ARGFRAME DOVERLAY, 0, STATIC
        REQUIRE ?V0
        REQUIRE ?V1
        REQUIRE ?V2
        REQUIRE ?V3
        REQUIRE ?V4
        REQUIRE ?V5
        REQUIRE ?V6
        REQUIRE ?V7
        MOV       A,#-0x10
        LCALL     ?BANKED_ENTER_XDATA
          CFI DPH0 load(1, XDATA, add(CFA_XSP16, literal(-1)))
          CFI DPL0 load(1, XDATA, add(CFA_XSP16, literal(-2)))
          CFI ?BRET_EXT load(1, XDATA, add(CFA_XSP16, literal(-3)))
          CFI ?RET_HIGH load(1, XDATA, add(CFA_XSP16, literal(-4)))
          CFI ?RET_LOW load(1, XDATA, add(CFA_XSP16, literal(-5)))
          CFI R7 load(1, XDATA, add(CFA_XSP16, literal(-6)))
          CFI V7 load(1, XDATA, add(CFA_XSP16, literal(-7)))
          CFI V6 load(1, XDATA, add(CFA_XSP16, literal(-8)))
          CFI V5 load(1, XDATA, add(CFA_XSP16, literal(-9)))
          CFI V4 load(1, XDATA, add(CFA_XSP16, literal(-10)))
          CFI V3 load(1, XDATA, add(CFA_XSP16, literal(-11)))
          CFI V2 load(1, XDATA, add(CFA_XSP16, literal(-12)))
          CFI V1 load(1, XDATA, add(CFA_XSP16, literal(-13)))
          CFI V0 load(1, XDATA, add(CFA_XSP16, literal(-14)))
          CFI VB load(1, XDATA, add(CFA_XSP16, literal(-15)))
          CFI R6 load(1, XDATA, add(CFA_XSP16, literal(-16)))
          CFI CFA_SP SP+0
          CFI CFA_XSP16 add(XSP16, 16)
        ; Saved register size: 16
        ; Auto size: 11
        MOV       A,#-0xb
        LCALL     ?ALLOC_XSTACK8
          CFI CFA_XSP16 add(XSP16, 27)
        MOV       A,R2
        MOV       R6,A
        MOV       A,R3
        MOV       R7,A
        MOV       ?V0,R1
//  313 	
//  314 	unsigned char i = 0;
        MOV       ?V1,#0x0
//  315   MQTT_PACKET_STRUCTURE mqttPacket = {packet_buff, 0, max_packet_len, MEM_FLAG_STATIC};                //协议包
        MOV       DPTR,#`?<Constant {packet_buff, 0L, 300L, 2}>_3`
        MOV       R4,?XSP + 0
        MOV       R5,?XSP + 1
        MOV       A,#0xb
        LCALL     ?MOVE_LONG8_XDATA_XDATA
//  316  
//  317 	for(i=0; i < topic_cnt; i++)
        SJMP      ??mqtt_subscribe_topic_0
//  318 	{
//  319 		debug("subscribe topic: %s\r\n", topic[i]);
??mqtt_subscribe_topic_1:
        ; Setup parameters for call to function debug
        MOV       R0,?V1
        MOV       A,R0
        ADD       A,R0
        MOV       R0,A
        CLR       A
        RLC       A
        MOV       R1,A
        MOV       A,R6
        ADD       A,R0
        MOV       DPL,A
        MOV       A,R7
        ADDC      A,R1
        MOV       DPH,A
        LCALL     ?PUSH_XSTACK8_X_TWO
          CFI CFA_XSP16 add(XSP16, 29)
        MOV       R2,#`?<Constant "subscribe topic: %s\\r\\n">` & 0xff
        MOV       R3,#(`?<Constant "subscribe topic: %s\\r\\n">` >> 8) & 0xff
        LCALL     `??debug::?relay`; Banked call to: debug
        MOV       A,#0x2
        LCALL     ?DEALLOC_XSTACK8
          CFI CFA_XSP16 add(XSP16, 27)
//  320 	}
        INC       ?V1
??mqtt_subscribe_topic_0:
        MOV       A,?V1
        CLR       C
        SUBB      A,?V0
        JC        ??mqtt_subscribe_topic_1
//  321     
//  322 	if(MQTT_PacketSubscribe(MQTT_SUBSCRIBE_ID, MQTT_QOS_LEVEL2, topic, topic_cnt, &mqttPacket) == 0)
        ; Setup parameters for call to function MQTT_PacketSubscribe
        MOV       R0,?XSP + 0
        MOV       R1,?XSP + 1
        MOV       ?V2,R0
        MOV       ?V3,R1
        MOV       R0,#?V2
        LCALL     ?PUSH_XSTACK_I_TWO
          CFI CFA_XSP16 add(XSP16, 29)
        MOV       A,?V0
        MOV       ?V1,A
        MOV       R0,#?V1
        LCALL     ?PUSH_XSTACK_I_ONE
          CFI CFA_XSP16 add(XSP16, 30)
        MOV       A,R6
        MOV       R4,A
        MOV       A,R7
        MOV       R5,A
        MOV       R1,#0x2
        MOV       R2,#0x14
        MOV       R3,#0x0
        LCALL     `??MQTT_PacketSubscribe::?relay`; Banked call to: MQTT_PacketSubscribe
        MOV       A,#0x3
        LCALL     ?DEALLOC_XSTACK8
          CFI CFA_XSP16 add(XSP16, 27)
        MOV       A,R1
        JNZ       ??mqtt_subscribe_topic_2
//  323 	{
//  324 		ESP8266_SendData(mqttPacket._data, mqttPacket._len);//上传平台
        ; Setup parameters for call to function ESP8266_SendData
        MOV       A,#0x2
        LCALL     ?XSTACK_DISP0_8
        MOV       R0,#?V4
        LCALL     ?L_MOV_X
        MOV       R4,?V4
        MOV       R5,?V5
        LCALL     ?Subroutine2 & 0xFFFF
//  325 		MQTT_DeleteBuffer(&mqttPacket);											//删包
//  326 		return 0;
//  327 	}
??CrossCallReturnLabel_1:
        SJMP      ??mqtt_subscribe_topic_3
//  328 	else
//  329 	{
//  330 		return 1;
??mqtt_subscribe_topic_2:
        SETB      C
//  331 	}
??mqtt_subscribe_topic_3:
        LJMP      ?Subroutine1 & 0xFFFF
//  332 }
          CFI EndBlock cfiBlock21

        RSEG BANKED_CODE:HUGECODE:NOROOT(0)
?Subroutine2:
          CFI Block cfiCond22 Using cfiCommon0
          CFI Function mqtt_publish_topic
          CFI Conditional ??CrossCallReturnLabel_0
          CFI R6 load(1, XDATA, add(CFA_XSP16, literal(-16)))
          CFI VB load(1, XDATA, add(CFA_XSP16, literal(-15)))
          CFI V0 load(1, XDATA, add(CFA_XSP16, literal(-14)))
          CFI V1 load(1, XDATA, add(CFA_XSP16, literal(-13)))
          CFI V2 load(1, XDATA, add(CFA_XSP16, literal(-12)))
          CFI V3 load(1, XDATA, add(CFA_XSP16, literal(-11)))
          CFI V4 load(1, XDATA, add(CFA_XSP16, literal(-10)))
          CFI V5 load(1, XDATA, add(CFA_XSP16, literal(-9)))
          CFI V6 load(1, XDATA, add(CFA_XSP16, literal(-8)))
          CFI V7 load(1, XDATA, add(CFA_XSP16, literal(-7)))
          CFI R7 load(1, XDATA, add(CFA_XSP16, literal(-6)))
          CFI ?RET_LOW load(1, XDATA, add(CFA_XSP16, literal(-5)))
          CFI ?RET_HIGH load(1, XDATA, add(CFA_XSP16, literal(-4)))
          CFI ?BRET_EXT load(1, XDATA, add(CFA_XSP16, literal(-3)))
          CFI DPL0 load(1, XDATA, add(CFA_XSP16, literal(-2)))
          CFI DPH0 load(1, XDATA, add(CFA_XSP16, literal(-1)))
          CFI CFA_SP SP+-2
          CFI CFA_XSP16 add(XSP16, 27)
          CFI Block cfiCond23 Using cfiCommon0
          CFI (cfiCond23) Function mqtt_subscribe_topic
          CFI (cfiCond23) Conditional ??CrossCallReturnLabel_1
          CFI (cfiCond23) R6 load(1, XDATA, add(CFA_XSP16, literal(-16)))
          CFI (cfiCond23) VB load(1, XDATA, add(CFA_XSP16, literal(-15)))
          CFI (cfiCond23) V0 load(1, XDATA, add(CFA_XSP16, literal(-14)))
          CFI (cfiCond23) V1 load(1, XDATA, add(CFA_XSP16, literal(-13)))
          CFI (cfiCond23) V2 load(1, XDATA, add(CFA_XSP16, literal(-12)))
          CFI (cfiCond23) V3 load(1, XDATA, add(CFA_XSP16, literal(-11)))
          CFI (cfiCond23) V4 load(1, XDATA, add(CFA_XSP16, literal(-10)))
          CFI (cfiCond23) V5 load(1, XDATA, add(CFA_XSP16, literal(-9)))
          CFI (cfiCond23) V6 load(1, XDATA, add(CFA_XSP16, literal(-8)))
          CFI (cfiCond23) V7 load(1, XDATA, add(CFA_XSP16, literal(-7)))
          CFI (cfiCond23) R7 load(1, XDATA, add(CFA_XSP16, literal(-6)))
          CFI (cfiCond23) ?RET_LOW load(1, XDATA, add(CFA_XSP16, literal(-5)))
          CFI (cfiCond23) ?RET_HIGH load(1, XDATA, add(CFA_XSP16, literal(-4)))
          CFI (cfiCond23) ?BRET_EXT load(1, XDATA, add(CFA_XSP16, literal(-3)))
          CFI (cfiCond23) DPL0 load(1, XDATA, add(CFA_XSP16, literal(-2)))
          CFI (cfiCond23) DPH0 load(1, XDATA, add(CFA_XSP16, literal(-1)))
          CFI (cfiCond23) CFA_SP SP+-2
          CFI (cfiCond23) CFA_XSP16 add(XSP16, 27)
          CFI Block cfiPicker24 Using cfiCommon1
          CFI (cfiPicker24) NoFunction
          CFI (cfiPicker24) Picker
        LCALL     ?Subroutine4 & 0xFFFF
??CrossCallReturnLabel_5:
        CLR       C
        RET
          CFI EndBlock cfiCond22
          CFI EndBlock cfiCond23
          CFI EndBlock cfiPicker24

        RSEG XDATA_ROM_C:CONST:REORDER:NOROOT(0)
        DATA8
`?<Constant {packet_buff, 0L, 300L, 2}>_3`:
        DATA16
        DW packet_buff
        DATA32
        DD 0
        DD 300
        DATA8
        DB 2

        RSEG BANK_RELAYS:CODE:REORDER:NOROOT(0)
`??OneNet_DevLink::?relay`:
        CODE
        LCALL   ?BDISPATCH
        DATA24
        DC24    OneNet_DevLink

        RSEG BANK_RELAYS:CODE:REORDER:NOROOT(0)
`??OneNet_RevPro::?relay`:
        CODE
        LCALL   ?BDISPATCH
        DATA24
        DC24    OneNet_RevPro

        RSEG BANK_RELAYS:CODE:REORDER:NOROOT(0)
`??onenet_mqtt_send_heart::?relay`:
        CODE
        LCALL   ?BDISPATCH
        DATA24
        DC24    onenet_mqtt_send_heart

        RSEG BANK_RELAYS:CODE:REORDER:NOROOT(0)
`??mqtt_publish_topic::?relay`:
        CODE
        LCALL   ?BDISPATCH
        DATA24
        DC24    mqtt_publish_topic

        RSEG BANK_RELAYS:CODE:REORDER:NOROOT(0)
`??mqtt_subscribe_topic::?relay`:
        CODE
        LCALL   ?BDISPATCH
        DATA24
        DC24    mqtt_subscribe_topic

        RSEG XDATA_ROM_C:CONST:REORDER:NOROOT(0)
        DATA8
`?<Constant "%s&%s">`:
        DB "%s&%s"

        RSEG XDATA_ROM_C:CONST:REORDER:NOROOT(0)
        DATA8
`?<Constant "mytestdev">`:
        DB "mytestdev"

        RSEG XDATA_ROM_C:CONST:REORDER:NOROOT(0)
        DATA8
`?<Constant "a1sYYwS4kmH">`:
        DB "a1sYYwS4kmH"

        RSEG XDATA_ROM_C:CONST:REORDER:NOROOT(0)
        DATA8
`?<Constant "start mqtt connet!\\r\\n">`:
        DB "start mqtt connet!\015\012"

        RSEG XDATA_ROM_C:CONST:REORDER:NOROOT(0)
        DATA8
`?<Constant "17225AC3F1B89135E1F19...">`:
        DB "17225AC3F1B89135E1F193716E99000171405856"

        RSEG XDATA_ROM_C:CONST:REORDER:NOROOT(0)
        DATA8
`?<Constant "123|securemode=3,sign...">`:
        DB "123|securemode=3,signmethod=hmacsha1|"

        RSEG XDATA_ROM_C:CONST:REORDER:NOROOT(0)
        DATA8
`?<Constant "mqtt conneted!\\r\\n">`:
        DB "mqtt conneted!\015\012"

        RSEG XDATA_ROM_C:CONST:REORDER:NOROOT(0)
        DATA8
`?<Constant "WARN:\\tMQTT_PacketConn...">`:
        DB "WARN:\tMQTT_PacketConnect Failed\015\012"

        RSEG XDATA_ROM_C:CONST:REORDER:NOROOT(0)
        DATA8
`?<Constant "cmdid: %s, req: %s, r...">`:
        DB "cmdid: %s, req: %s, req_len: %d\015\012"

        RSEG XDATA_ROM_C:CONST:REORDER:NOROOT(0)
        DATA8
`?<Constant "Tips:\\tSend CmdResp\\r\\n">`:
        DB "Tips:\tSend CmdResp\015\012"

        RSEG XDATA_ROM_C:CONST:REORDER:NOROOT(0)
        DATA8
`?<Constant "Tips:\\tMQTT Publish Se...">`:
        DB "Tips:\tMQTT Publish Send OK\015\012"

        RSEG XDATA_ROM_C:CONST:REORDER:NOROOT(0)
        DATA8
`?<Constant "Tips:  HeartBeat OK\\r\\n">`:
        DB "Tips:  HeartBeat OK\015\012"

        RSEG XDATA_ROM_C:CONST:REORDER:NOROOT(0)
        DATA8
`?<Constant "topic: %s, topic_len:...">`:
        DB 74H, 6FH, 70H, 69H, 63H, 3AH, 20H, 25H
        DB 73H, 2CH, 20H, 74H, 6FH, 70H, 69H, 63H
        DB 5FH, 6CH, 65H, 6EH, 3AH, 20H, 25H, 64H
        DB 2CH, 20H, 70H, 61H, 79H, 6CH, 6FH, 61H
        DB 64H, 3AH, 20H, 25H, 73H, 2CH, 20H, 70H
        DB 61H, 79H, 6CH, 6FH, 61H, 64H, 5FH, 6CH
        DB 65H, 6EH, 3AH, 20H, 25H, 64H, 0DH, 0AH
        DB 0

        RSEG XDATA_ROM_C:CONST:REORDER:NOROOT(0)
        DATA8
`?<Constant "Tips:  Send PublishAck\\r\\n">`:
        DB "Tips:  Send PublishAck\015\012"

        RSEG XDATA_ROM_C:CONST:REORDER:NOROOT(0)
        DATA8
`?<Constant "Tips:  Send PublishRec\\r\\n">`:
        DB "Tips:  Send PublishRec\015\012"

        RSEG XDATA_ROM_C:CONST:REORDER:NOROOT(0)
        DATA8
`?<Constant "Tips:  Rev PublishRec\\r\\n">`:
        DB "Tips:  Rev PublishRec\015\012"

        RSEG XDATA_ROM_C:CONST:REORDER:NOROOT(0)
        DATA8
`?<Constant "Tips:  Send PublishRel\\r\\n">`:
        DB "Tips:  Send PublishRel\015\012"

        RSEG XDATA_ROM_C:CONST:REORDER:NOROOT(0)
        DATA8
`?<Constant "Tips:  Rev PublishRel\\r\\n">`:
        DB "Tips:  Rev PublishRel\015\012"

        RSEG XDATA_ROM_C:CONST:REORDER:NOROOT(0)
        DATA8
`?<Constant "Tips:  Send PublishCo...">`:
        DB "Tips:  Send PublishComp\015\012"

        RSEG XDATA_ROM_C:CONST:REORDER:NOROOT(0)
        DATA8
`?<Constant "Tips:  Rev PublishComp\\r\\n">`:
        DB "Tips:  Rev PublishComp\015\012"

        RSEG XDATA_ROM_C:CONST:REORDER:NOROOT(0)
        DATA8
`?<Constant "Tips:  MQTT Subscribe...">`:
        DB "Tips:  MQTT Subscribe OK\015\012"

        RSEG XDATA_ROM_C:CONST:REORDER:NOROOT(0)
        DATA8
`?<Constant "Tips:  MQTT Subscribe...">_1`:
        DB "Tips:  MQTT Subscribe Err\015\012"

        RSEG XDATA_ROM_C:CONST:REORDER:NOROOT(0)
        DATA8
`?<Constant "Tips:  MQTT UnSubscri...">`:
        DB "Tips:  MQTT UnSubscribe OK\015\012"

        RSEG XDATA_ROM_C:CONST:REORDER:NOROOT(0)
        DATA8
`?<Constant "Tips:  MQTT UnSubscri...">_1`:
        DB "Tips:  MQTT UnSubscribe Err\015\012"

        RSEG XDATA_ROM_C:CONST:REORDER:NOROOT(0)
        DATA8
`?<Constant "send heart\\r\\n">`:
        DB "send heart\015\012"

        RSEG XDATA_ROM_C:CONST:REORDER:NOROOT(0)
        DATA8
`?<Constant "publish topic: %s, ms...">`:
        DB "publish topic: %s, msg: %s\015\012"

        RSEG XDATA_ROM_C:CONST:REORDER:NOROOT(0)
        DATA8
`?<Constant "subscribe topic: %s\\r\\n">`:
        DB "subscribe topic: %s\015\012"

        RSEG XDATA_ROM_C:CONST:REORDER:NOROOT(0)
        DATA32
__Constant_0:
        DD 0

        RSEG XDATA_ROM_C:CONST:REORDER:NOROOT(0)
        DATA32
__Constant_1:
        DD 1

        END
//  333 
//  334 //主题订阅方法
//  335 //const signed char *g_mqtt_topics[] = {"mqtt_topic", "topic_test"};
//  336 //if(0 == onenet_mqtt_subscribe_topic(g_mqtt_topics, 2))
//  337 
//  338 
//  339 
// 
// 1 266 bytes in segment BANKED_CODE
//    30 bytes in segment BANK_RELAYS
//   757 bytes in segment XDATA_ROM_C
//   484 bytes in segment XDATA_Z
// 
//    30 bytes of CODE     memory
//   749 bytes of CONST    memory (+ 8 bytes shared)
// 1 266 bytes of HUGECODE memory
//   484 bytes of XDATA    memory
//
//Errors: none
//Warnings: 24
