///////////////////////////////////////////////////////////////////////////////
//
// IAR C/C++ Compiler V10.30.1.6000 for 8051              04/Sep/2021  08:55:21
// Copyright 2004-2018 IAR Systems AB.
// PC-locked license - IAR Embedded Workbench for 8051
//
//    Core               =  plain
//    Code model         =  banked
//    Data model         =  large
//    Calling convention =  xdata reentrant
//    Constant location  =  data_rom
//    Dptr setup         =  1,16
//                          
//    Source file        =  
//        C:\Users\OY\Desktop\ZStack-2.5.1a\Projects\zstack\Samples\SampleApp\Source\SampleApp.c
//    Command line       =  
//        -f C:\Users\OY\AppData\Local\Temp\EW6996.tmp
//        (C:\Users\OY\Desktop\ZStack-2.5.1a\Projects\zstack\Samples\SampleApp\Source\SampleApp.c
//        -D ZTOOL_P1 -D xMT_TASK -D xMT_SYS_FUNC -D xMT_ZDO_FUNC -D
//        LCD_SUPPORTED=DEBUG -lC
//        C:\Users\OY\Desktop\ZStack-2.5.1a\Projects\zstack\Samples\SampleApp\CC2530DB\CoordinatorEB\List
//        -lA
//        C:\Users\OY\Desktop\ZStack-2.5.1a\Projects\zstack\Samples\SampleApp\CC2530DB\CoordinatorEB\List
//        --diag_suppress Pe001,Pa010 -o
//        C:\Users\OY\Desktop\ZStack-2.5.1a\Projects\zstack\Samples\SampleApp\CC2530DB\CoordinatorEB\Obj
//        -e --debug --core=plain --dptr=16,1 --data_model=large
//        --code_model=banked --calling_convention=xdata_reentrant
//        --place_constants=data_rom --nr_virtual_regs 8 -f
//        C:\Users\OY\Desktop\ZStack-2.5.1a\Projects\zstack\Samples\SampleApp\CC2530DB\..\..\..\Tools\CC2530DB\f8wCoord.cfg
//        (-DCPU32MHZ -DROOT=__near_func -DMAC_CFG_APP_PENDING_QUEUE=TRUE
//        -DMAC_CFG_TX_DATA_MAX=5 -DMAC_CFG_TX_MAX=8 -DMAC_CFG_RX_MAX=5
//        -DZDO_COORDINATOR -DRTR_NWK) -f
//        C:\Users\OY\Desktop\ZStack-2.5.1a\Projects\zstack\Samples\SampleApp\CC2530DB\..\..\..\Tools\CC2530DB\f8wConfig.cfg
//        (-DZIGBEEPRO -DSECURE=0 -DZG_SECURE_DYNAMIC=0 -DREFLECTOR
//        -DDEFAULT_CHANLIST=0x00000800 -DZDAPP_CONFIG_PAN_ID=0xFFF1
//        -DNWK_START_DELAY=100 -DEXTENDED_JOINING_RANDOM_MASK=0x007F
//        -DBEACON_REQUEST_DELAY=100 -DBEACON_REQ_DELAY_MASK=0x00FF
//        -DLINK_STATUS_JITTER_MASK=0x007F -DROUTE_EXPIRY_TIME=30
//        -DAPSC_ACK_WAIT_DURATION_POLLED=3000 -DNWK_INDIRECT_MSG_TIMEOUT=7
//        -DMAX_RREQ_ENTRIES=8 -DAPSC_MAX_FRAME_RETRIES=3
//        -DNWK_MAX_DATA_RETRIES=2 -DMAX_POLL_FAILURE_RETRIES=2 -DMAX_BCAST=9
//        -DAPS_MAX_GROUPS=16 -DMAX_RTG_ENTRIES=40 -DNWK_MAX_BINDING_ENTRIES=4
//        -DMAX_BINDING_CLUSTER_IDS=4 "-DDEFAULT_KEY={0x01, 0x03, 0x05, 0x07,
//        0x09, 0x0B, 0x0D, 0x0F, 0x00, 0x02, 0x04, 0x06, 0x08, 0x0A, 0x0C,
//        0x0D}" -DMAC_MAX_FRAME_SIZE=116 -DZDNWKMGR_MIN_TRANSMISSIONS=20
//        "-DCONST=const __code" -DGENERIC=__generic -DRFD_RCVC_ALWAYS_ON=FALSE
//        -DPOLL_RATE=1000 -DQUEUED_POLL_RATE=100 -DRESPONSE_POLL_RATE=100
//        -DREJOIN_POLL_RATE=440) -I
//        C:\Users\OY\Desktop\ZStack-2.5.1a\Projects\zstack\Samples\SampleApp\CC2530DB\
//        -I
//        C:\Users\OY\Desktop\ZStack-2.5.1a\Projects\zstack\Samples\SampleApp\CC2530DB\..\Source\
//        -I
//        C:\Users\OY\Desktop\ZStack-2.5.1a\Projects\zstack\Samples\SampleApp\CC2530DB\..\..\..\ZMain\TI2530DB\
//        -I
//        C:\Users\OY\Desktop\ZStack-2.5.1a\Projects\zstack\Samples\SampleApp\CC2530DB\..\..\..\..\..\Components\hal\include\
//        -I
//        C:\Users\OY\Desktop\ZStack-2.5.1a\Projects\zstack\Samples\SampleApp\CC2530DB\..\..\..\..\..\Components\hal\target\CC2530EB\
//        -I
//        C:\Users\OY\Desktop\ZStack-2.5.1a\Projects\zstack\Samples\SampleApp\CC2530DB\..\..\..\..\..\Components\mac\include\
//        -I
//        C:\Users\OY\Desktop\ZStack-2.5.1a\Projects\zstack\Samples\SampleApp\CC2530DB\..\..\..\..\..\Components\mac\high_level\
//        -I
//        C:\Users\OY\Desktop\ZStack-2.5.1a\Projects\zstack\Samples\SampleApp\CC2530DB\..\..\..\..\..\Components\mac\low_level\srf04\
//        -I
//        C:\Users\OY\Desktop\ZStack-2.5.1a\Projects\zstack\Samples\SampleApp\CC2530DB\..\..\..\..\..\Components\mac\low_level\srf04\single_chip\
//        -I
//        C:\Users\OY\Desktop\ZStack-2.5.1a\Projects\zstack\Samples\SampleApp\CC2530DB\..\..\..\..\..\Components\mt\
//        -I
//        C:\Users\OY\Desktop\ZStack-2.5.1a\Projects\zstack\Samples\SampleApp\CC2530DB\..\..\..\..\..\Components\osal\include\
//        -I
//        C:\Users\OY\Desktop\ZStack-2.5.1a\Projects\zstack\Samples\SampleApp\CC2530DB\..\..\..\..\..\Components\services\saddr\
//        -I
//        C:\Users\OY\Desktop\ZStack-2.5.1a\Projects\zstack\Samples\SampleApp\CC2530DB\..\..\..\..\..\Components\services\sdata\
//        -I
//        C:\Users\OY\Desktop\ZStack-2.5.1a\Projects\zstack\Samples\SampleApp\CC2530DB\..\..\..\..\..\Components\stack\af\
//        -I
//        C:\Users\OY\Desktop\ZStack-2.5.1a\Projects\zstack\Samples\SampleApp\CC2530DB\..\..\..\..\..\Components\stack\nwk\
//        -I
//        C:\Users\OY\Desktop\ZStack-2.5.1a\Projects\zstack\Samples\SampleApp\CC2530DB\..\..\..\..\..\Components\stack\sapi\
//        -I
//        C:\Users\OY\Desktop\ZStack-2.5.1a\Projects\zstack\Samples\SampleApp\CC2530DB\..\..\..\..\..\Components\stack\sec\
//        -I
//        C:\Users\OY\Desktop\ZStack-2.5.1a\Projects\zstack\Samples\SampleApp\CC2530DB\..\..\..\..\..\Components\stack\sys\
//        -I
//        C:\Users\OY\Desktop\ZStack-2.5.1a\Projects\zstack\Samples\SampleApp\CC2530DB\..\..\..\..\..\Components\stack\zdo\
//        -I
//        C:\Users\OY\Desktop\ZStack-2.5.1a\Projects\zstack\Samples\SampleApp\CC2530DB\..\..\..\..\..\Components\zmac\
//        -I
//        C:\Users\OY\Desktop\ZStack-2.5.1a\Projects\zstack\Samples\SampleApp\CC2530DB\..\..\..\..\..\Components\zmac\f8w\
//        -Ohz --no_code_motion)
//    Locale             =  Chinese (Simplified)_CHN.936
//    List file          =  
//        C:\Users\OY\Desktop\ZStack-2.5.1a\Projects\zstack\Samples\SampleApp\CC2530DB\CoordinatorEB\List\SampleApp.s51
//
///////////////////////////////////////////////////////////////////////////////

        NAME SampleApp

        RTMODEL "__SystemLibrary", "CLib"
        RTMODEL "__calling_convention", "xdata_reentrant"
        RTMODEL "__code_model", "banked"
        RTMODEL "__core", "plain"
        RTMODEL "__data_model", "large"
        RTMODEL "__dptr_size", "16"
        RTMODEL "__extended_stack", "disabled"
        RTMODEL "__iar_require _formatted_write", ""
        RTMODEL "__location_for_constants", "data"
        RTMODEL "__number_of_dptrs", "1"
        RTMODEL "__register_banks", "*"
        RTMODEL "__rt_version", "1"

        RSEG DOVERLAY:DATA:NOROOT(0)
        RSEG IOVERLAY:IDATA:NOROOT(0)
        RSEG ISTACK:IDATA:NOROOT(0)
        RSEG PSTACK:XDATA:NOROOT(0)
        RSEG XSTACK:XDATA:NOROOT(0)

        EXTERN ?V0
        EXTERN ?V1
        EXTERN ?V2
        EXTERN ?V3
        EXTERN ?V4
        EXTERN ?V5
        EXTERN ?V6
        EXTERN ?V7
        EXTERN ?ALLOC_XSTACK8
        EXTERN ?BANKED_ENTER_XDATA
        EXTERN ?BANKED_LEAVE_XDATA
        EXTERN ?BDISPATCH
        EXTERN ?BRET
        EXTERN ?DEALLOC_XSTACK8
        EXTERN ?L_MOV_TO_X
        EXTERN ?L_SUB_X
        EXTERN ?MOVE_LONG8_XDATA_XDATA
        EXTERN ?PUSH_XSTACK8_X_TWO
        EXTERN ?PUSH_XSTACK_I_TWO
        EXTERN ?UL_GE_X
        EXTERN ?XSP
        EXTERN ?XSTACK_DISP101_8
        EXTERN __INIT_XDATA_I
        EXTERN __INIT_XDATA_Z

        PUBLIC `??ESP8266_SendData::?relay`
        FUNCTION `??ESP8266_SendData::?relay`,0203H
        PUBLIC `??SampleApp_CallBack::?relay`
        FUNCTION `??SampleApp_CallBack::?relay`,0203H
        PUBLIC `??SampleApp_HandleKeys::?relay`
        FUNCTION `??SampleApp_HandleKeys::?relay`,0203H
        PUBLIC `??SampleApp_Init::?relay`
        FUNCTION `??SampleApp_Init::?relay`,0203H
        PUBLIC `??SampleApp_ProcessEvent::?relay`
        FUNCTION `??SampleApp_ProcessEvent::?relay`,0203H
        PUBLIC `??debug::?relay`
        FUNCTION `??debug::?relay`,0203H
        PUBLIC `??mqtt_rx::?relay`
        FUNCTION `??mqtt_rx::?relay`,0203H
        PUBLIC ESP8266_SendData
        FUNCTION ESP8266_SendData,021203H
        ARGFRAME XSTACK, 0, STACK
        LOCFRAME ISTACK, 2, STACK
        PUBWEAK P0DIR
        PUBWEAK P0SEL
        PUBLIC SampleApp_CallBack
        FUNCTION SampleApp_CallBack,0a1203H
        ARGFRAME XSTACK, 0, STACK
        LOCFRAME ISTACK, 2, STACK
        LOCFRAME XSTACK, 18, STACK
        PUBLIC SampleApp_ClusterList
        PUBLIC SampleApp_HandleKeys
        FUNCTION SampleApp_HandleKeys,021203H
        ARGFRAME XSTACK, 32, STACK
        ARGFRAME IOVERLAY, 0, STATIC
        ARGFRAME DOVERLAY, 0, STATIC
        LOCFRAME XSTACK, 11, STACK
        PUBLIC SampleApp_Init
        FUNCTION SampleApp_Init,021203H
        ARGFRAME XSTACK, 0, STACK
        LOCFRAME XSTACK, 9, STACK
        PUBLIC SampleApp_NwkState
        PUBLIC SampleApp_P2P_DstAddr
        PUBLIC SampleApp_ProcessEvent
        FUNCTION SampleApp_ProcessEvent,0a1203H
        ARGFRAME XSTACK, 0, STACK
        LOCFRAME XSTACK, 40, STACK
        PUBLIC SampleApp_SimpleDesc
        PUBLIC SampleApp_TaskID
        PUBLIC SampleApp_epDesc
        PUBWEAK _A_P0
        PUBWEAK _A_P1
        PUBWEAK __Constant_3e8
        PUBLIC cor_led3
        PUBLIC debug
        FUNCTION debug,0203H
        ARGFRAME XSTACK, 18, STACK
        ARGFRAME IOVERLAY, 0, STATIC
        ARGFRAME DOVERLAY, 0, STATIC
        PUBLIC end_hum
        PUBLIC end_led3
        PUBLIC end_light
        PUBLIC end_temp
        PUBLIC g_mqtt_topics_set
        PUBLIC lastReadMs
        PUBLIC mqtt_message
        PUBLIC mqtt_rx
        FUNCTION mqtt_rx,0a1203H
        ARGFRAME XSTACK, 0, STACK
        LOCFRAME XSTACK, 12, STACK
        PUBLIC onenet_login_ok
        PUBLIC topics_buff
        PUBLIC topics_post
        
          CFI Names cfiNames0
          CFI StackFrame CFA_SP SP IDATA
          CFI StackFrame CFA_PSP16 PSP16 XDATA
          CFI StackFrame CFA_XSP16 XSP16 XDATA
          CFI StaticOverlayFrame CFA_IOVERLAY IOVERLAY
          CFI StaticOverlayFrame CFA_DOVERLAY DOVERLAY
          CFI Resource `PSW.CY`:1, `B.BR0`:1, `B.BR1`:1, `B.BR2`:1, `B.BR3`:1
          CFI Resource `B.BR4`:1, `B.BR5`:1, `B.BR6`:1, `B.BR7`:1, `VB.BR8`:1
          CFI Resource `VB.BR9`:1, `VB.BR10`:1, `VB.BR11`:1, `VB.BR12`:1
          CFI Resource `VB.BR13`:1, `VB.BR14`:1, `VB.BR15`:1, VB:8, B:8, A:8
          CFI Resource PSW:8, DPL0:8, DPH0:8, R0:8, R1:8, R2:8, R3:8, R4:8, R5:8
          CFI Resource R6:8, R7:8, V0:8, V1:8, V2:8, V3:8, V4:8, V5:8, V6:8, V7:8
          CFI Resource SP:8, PSPH:8, PSPL:8, PSP16:16, XSPH:8, XSPL:8, XSP16:16
          CFI VirtualResource ?RET:24
          CFI Resource ?BRET_EXT:8
          CFI VirtualResource ?RET_HIGH:8, ?RET_LOW:8
          CFI ResourceParts PSP16 PSPH, PSPL
          CFI ResourceParts XSP16 XSPH, XSPL
          CFI ResourceParts ?RET ?BRET_EXT, ?RET_HIGH, ?RET_LOW
          CFI EndNames cfiNames0
        
          CFI Common cfiCommon0 Using cfiNames0
          CFI CodeAlign 1
          CFI DataAlign -1
          CFI ReturnAddress ?RET CODE
          CFI CFA_DOVERLAY Used
          CFI CFA_IOVERLAY Used
          CFI CFA_SP SP+-3
          CFI CFA_PSP16 PSP16+0
          CFI CFA_XSP16 XSP16+0
          CFI `PSW.CY` SameValue
          CFI `B.BR0` SameValue
          CFI `B.BR1` SameValue
          CFI `B.BR2` SameValue
          CFI `B.BR3` SameValue
          CFI `B.BR4` SameValue
          CFI `B.BR5` SameValue
          CFI `B.BR6` SameValue
          CFI `B.BR7` SameValue
          CFI `VB.BR8` SameValue
          CFI `VB.BR9` SameValue
          CFI `VB.BR10` SameValue
          CFI `VB.BR11` SameValue
          CFI `VB.BR12` SameValue
          CFI `VB.BR13` SameValue
          CFI `VB.BR14` SameValue
          CFI `VB.BR15` SameValue
          CFI VB SameValue
          CFI B Undefined
          CFI A Undefined
          CFI PSW SameValue
          CFI DPL0 SameValue
          CFI DPH0 SameValue
          CFI R0 Undefined
          CFI R1 Undefined
          CFI R2 Undefined
          CFI R3 Undefined
          CFI R4 Undefined
          CFI R5 Undefined
          CFI R6 SameValue
          CFI R7 SameValue
          CFI V0 SameValue
          CFI V1 SameValue
          CFI V2 SameValue
          CFI V3 SameValue
          CFI V4 SameValue
          CFI V5 SameValue
          CFI V6 SameValue
          CFI V7 SameValue
          CFI PSPH Undefined
          CFI PSPL Undefined
          CFI XSPH Undefined
          CFI XSPL Undefined
          CFI ?RET Concat
          CFI ?BRET_EXT Frame(CFA_SP, 3)
          CFI ?RET_HIGH Frame(CFA_SP, 2)
          CFI ?RET_LOW Frame(CFA_SP, 1)
          CFI EndCommon cfiCommon0
        
        
          CFI Common cfiCommon1 Using cfiNames0
          CFI CodeAlign 1
          CFI DataAlign -1
          CFI ReturnAddress ?RET CODE
          CFI CFA_DOVERLAY Used
          CFI CFA_IOVERLAY Used
          CFI CFA_SP SP+-2
          CFI CFA_PSP16 PSP16+0
          CFI CFA_XSP16 XSP16+0
          CFI `PSW.CY` SameValue
          CFI `B.BR0` SameValue
          CFI `B.BR1` SameValue
          CFI `B.BR2` SameValue
          CFI `B.BR3` SameValue
          CFI `B.BR4` SameValue
          CFI `B.BR5` SameValue
          CFI `B.BR6` SameValue
          CFI `B.BR7` SameValue
          CFI `VB.BR8` SameValue
          CFI `VB.BR9` SameValue
          CFI `VB.BR10` SameValue
          CFI `VB.BR11` SameValue
          CFI `VB.BR12` SameValue
          CFI `VB.BR13` SameValue
          CFI `VB.BR14` SameValue
          CFI `VB.BR15` SameValue
          CFI VB SameValue
          CFI B SameValue
          CFI A SameValue
          CFI PSW SameValue
          CFI DPL0 SameValue
          CFI DPH0 SameValue
          CFI R0 SameValue
          CFI R1 SameValue
          CFI R2 SameValue
          CFI R3 SameValue
          CFI R4 SameValue
          CFI R5 SameValue
          CFI R6 SameValue
          CFI R7 SameValue
          CFI V0 SameValue
          CFI V1 SameValue
          CFI V2 SameValue
          CFI V3 SameValue
          CFI V4 SameValue
          CFI V5 SameValue
          CFI V6 SameValue
          CFI V7 SameValue
          CFI PSPH Undefined
          CFI PSPL Undefined
          CFI XSPH Undefined
          CFI XSPL Undefined
          CFI ?RET Concat
          CFI ?BRET_EXT SameValue
          CFI ?RET_HIGH Frame(CFA_SP, 2)
          CFI ?RET_LOW Frame(CFA_SP, 1)
          CFI EndCommon cfiCommon1
        
HalLcdWriteString   SYMBOL "HalLcdWriteString"
`??HalLcdWriteString::?relay` SYMBOL "?relay", HalLcdWriteString
HalLedBlink         SYMBOL "HalLedBlink"
`??HalLedBlink::?relay` SYMBOL "?relay", HalLedBlink
HalUARTRead         SYMBOL "HalUARTRead"
`??HalUARTRead::?relay` SYMBOL "?relay", HalUARTRead
HalUARTWrite        SYMBOL "HalUARTWrite"
`??HalUARTWrite::?relay` SYMBOL "?relay", HalUARTWrite
MQTT_UnPacketConnectAck SYMBOL "MQTT_UnPacketConnectAck"
`??MQTT_UnPacketConnectAck::?relay` SYMBOL "?relay", MQTT_UnPacketConnectAck
MQTT_UnPacketRecv   SYMBOL "MQTT_UnPacketRecv"
`??MQTT_UnPacketRecv::?relay` SYMBOL "?relay", MQTT_UnPacketRecv
MT_UartInit         SYMBOL "MT_UartInit"
`??MT_UartInit::?relay` SYMBOL "?relay", MT_UartInit
MT_UartRegisterTaskID SYMBOL "MT_UartRegisterTaskID"
`??MT_UartRegisterTaskID::?relay` SYMBOL "?relay", MT_UartRegisterTaskID
OneNet_DevLink      SYMBOL "OneNet_DevLink"
`??OneNet_DevLink::?relay` SYMBOL "?relay", OneNet_DevLink
OneNet_RevPro       SYMBOL "OneNet_RevPro"
`??OneNet_RevPro::?relay` SYMBOL "?relay", OneNet_RevPro
RegisterForKeys     SYMBOL "RegisterForKeys"
`??RegisterForKeys::?relay` SYMBOL "?relay", RegisterForKeys
afRegister          SYMBOL "afRegister"
`??afRegister::?relay` SYMBOL "?relay", afRegister
mqtt_publish_topic  SYMBOL "mqtt_publish_topic"
`??mqtt_publish_topic::?relay` SYMBOL "?relay", mqtt_publish_topic
mqtt_subscribe_topic SYMBOL "mqtt_subscribe_topic"
`??mqtt_subscribe_topic::?relay` SYMBOL "?relay", mqtt_subscribe_topic
onenet_mqtt_send_heart SYMBOL "onenet_mqtt_send_heart"
`??onenet_mqtt_send_heart::?relay` SYMBOL "?relay", onenet_mqtt_send_heart
osal_GetSystemClock SYMBOL "osal_GetSystemClock"
`??osal_GetSystemClock::?relay` SYMBOL "?relay", osal_GetSystemClock
osal_memset         SYMBOL "osal_memset"
`??osal_memset::?relay` SYMBOL "?relay", osal_memset
osal_msg_deallocate SYMBOL "osal_msg_deallocate"
`??osal_msg_deallocate::?relay` SYMBOL "?relay", osal_msg_deallocate
osal_msg_receive    SYMBOL "osal_msg_receive"
`??osal_msg_receive::?relay` SYMBOL "?relay", osal_msg_receive
osal_start_timerEx  SYMBOL "osal_start_timerEx"
`??osal_start_timerEx::?relay` SYMBOL "?relay", osal_start_timerEx
sprintf             SYMBOL "sprintf"
`??sprintf::?relay` SYMBOL "?relay", sprintf
strstr              SYMBOL "strstr"
`??strstr::?relay`  SYMBOL "?relay", strstr
ESP8266_SendData    SYMBOL "ESP8266_SendData"
`??ESP8266_SendData::?relay` SYMBOL "?relay", ESP8266_SendData
SampleApp_CallBack  SYMBOL "SampleApp_CallBack"
`??SampleApp_CallBack::?relay` SYMBOL "?relay", SampleApp_CallBack
SampleApp_HandleKeys SYMBOL "SampleApp_HandleKeys"
`??SampleApp_HandleKeys::?relay` SYMBOL "?relay", SampleApp_HandleKeys
SampleApp_Init      SYMBOL "SampleApp_Init"
`??SampleApp_Init::?relay` SYMBOL "?relay", SampleApp_Init
SampleApp_ProcessEvent SYMBOL "SampleApp_ProcessEvent"
`??SampleApp_ProcessEvent::?relay` SYMBOL "?relay", SampleApp_ProcessEvent
debug               SYMBOL "debug"
`??debug::?relay`   SYMBOL "?relay", debug
mqtt_rx             SYMBOL "mqtt_rx"
`??mqtt_rx::?relay` SYMBOL "?relay", mqtt_rx

        EXTERN `??HalLcdWriteString::?relay`
        FUNCTION `??HalLcdWriteString::?relay`,00H
        EXTERN `??HalLedBlink::?relay`
        FUNCTION `??HalLedBlink::?relay`,00H
        EXTERN `??HalUARTRead::?relay`
        FUNCTION `??HalUARTRead::?relay`,00H
        EXTERN `??HalUARTWrite::?relay`
        FUNCTION `??HalUARTWrite::?relay`,00H
        EXTERN `??MQTT_UnPacketConnectAck::?relay`
        FUNCTION `??MQTT_UnPacketConnectAck::?relay`,00H
        EXTERN `??MQTT_UnPacketRecv::?relay`
        FUNCTION `??MQTT_UnPacketRecv::?relay`,00H
        EXTERN `??MT_UartInit::?relay`
        FUNCTION `??MT_UartInit::?relay`,00H
        EXTERN `??MT_UartRegisterTaskID::?relay`
        FUNCTION `??MT_UartRegisterTaskID::?relay`,00H
        EXTERN `??OneNet_DevLink::?relay`
        FUNCTION `??OneNet_DevLink::?relay`,00H
        EXTERN `??OneNet_RevPro::?relay`
        FUNCTION `??OneNet_RevPro::?relay`,00H
        EXTERN `??RegisterForKeys::?relay`
        FUNCTION `??RegisterForKeys::?relay`,00H
        EXTERN `??afRegister::?relay`
        FUNCTION `??afRegister::?relay`,00H
        EXTERN `??mqtt_publish_topic::?relay`
        FUNCTION `??mqtt_publish_topic::?relay`,00H
        EXTERN `??mqtt_subscribe_topic::?relay`
        FUNCTION `??mqtt_subscribe_topic::?relay`,00H
        EXTERN `??onenet_mqtt_send_heart::?relay`
        FUNCTION `??onenet_mqtt_send_heart::?relay`,00H
        EXTERN `??osal_GetSystemClock::?relay`
        FUNCTION `??osal_GetSystemClock::?relay`,00H
        EXTERN `??osal_memset::?relay`
        FUNCTION `??osal_memset::?relay`,00H
        EXTERN `??osal_msg_deallocate::?relay`
        FUNCTION `??osal_msg_deallocate::?relay`,00H
        EXTERN `??osal_msg_receive::?relay`
        FUNCTION `??osal_msg_receive::?relay`,00H
        EXTERN `??osal_start_timerEx::?relay`
        FUNCTION `??osal_start_timerEx::?relay`,00H
        EXTERN `??sprintf::?relay`
        FUNCTION `??sprintf::?relay`,00H
        EXTERN `??strstr::?relay`
        FUNCTION `??strstr::?relay`,00H
        EXTERN HalLcdWriteString
        FUNCTION HalLcdWriteString,0202H
        ARGFRAME ISTACK, 0, STACK
        ARGFRAME PSTACK, 0, STACK
        ARGFRAME XSTACK, 32, STACK
        ARGFRAME IOVERLAY, 0, STATIC
        ARGFRAME DOVERLAY, 0, STATIC
        EXTERN HalLedBlink
        FUNCTION HalLedBlink,0202H
        ARGFRAME ISTACK, 0, STACK
        ARGFRAME PSTACK, 0, STACK
        ARGFRAME XSTACK, 32, STACK
        ARGFRAME IOVERLAY, 0, STATIC
        ARGFRAME DOVERLAY, 0, STATIC
        EXTERN HalUARTRead
        FUNCTION HalUARTRead,0202H
        ARGFRAME ISTACK, 0, STACK
        ARGFRAME PSTACK, 0, STACK
        ARGFRAME XSTACK, 16, STACK
        ARGFRAME IOVERLAY, 0, STATIC
        ARGFRAME DOVERLAY, 0, STATIC
        EXTERN HalUARTWrite
        FUNCTION HalUARTWrite,0202H
        ARGFRAME ISTACK, 2, STACK
        ARGFRAME PSTACK, 0, STACK
        ARGFRAME XSTACK, 0, STACK
        ARGFRAME IOVERLAY, 0, STATIC
        ARGFRAME DOVERLAY, 0, STATIC
        EXTERN MQTT_UnPacketConnectAck
        FUNCTION MQTT_UnPacketConnectAck,0202H
        ARGFRAME ISTACK, 0, STACK
        ARGFRAME PSTACK, 0, STACK
        ARGFRAME XSTACK, 16, STACK
        ARGFRAME IOVERLAY, 0, STATIC
        ARGFRAME DOVERLAY, 0, STATIC
        EXTERN MQTT_UnPacketRecv
        FUNCTION MQTT_UnPacketRecv,0202H
        ARGFRAME ISTACK, 0, STACK
        ARGFRAME PSTACK, 0, STACK
        ARGFRAME XSTACK, 16, STACK
        ARGFRAME IOVERLAY, 0, STATIC
        ARGFRAME DOVERLAY, 0, STATIC
        EXTERN MT_UartInit
        FUNCTION MT_UartInit,0200H
        ARGFRAME ISTACK, 0, STACK
        ARGFRAME PSTACK, 0, STACK
        ARGFRAME XSTACK, 9, STACK
        ARGFRAME IOVERLAY, 0, STATIC
        ARGFRAME DOVERLAY, 0, STATIC
        EXTERN MT_UartRegisterTaskID
        FUNCTION MT_UartRegisterTaskID,0200H
        ARGFRAME ISTACK, 0, STACK
        ARGFRAME PSTACK, 0, STACK
        ARGFRAME XSTACK, 9, STACK
        ARGFRAME IOVERLAY, 0, STATIC
        ARGFRAME DOVERLAY, 0, STATIC
        EXTERN OneNet_DevLink
        FUNCTION OneNet_DevLink,0202H
        ARGFRAME ISTACK, 0, STACK
        ARGFRAME PSTACK, 0, STACK
        ARGFRAME XSTACK, 32, STACK
        ARGFRAME IOVERLAY, 0, STATIC
        ARGFRAME DOVERLAY, 0, STATIC
        EXTERN OneNet_RevPro
        FUNCTION OneNet_RevPro,0202H
        ARGFRAME ISTACK, 0, STACK
        ARGFRAME PSTACK, 0, STACK
        ARGFRAME XSTACK, 16, STACK
        ARGFRAME IOVERLAY, 0, STATIC
        ARGFRAME DOVERLAY, 0, STATIC
        EXTERN RegisterForKeys
        FUNCTION RegisterForKeys,0202H
        ARGFRAME ISTACK, 0, STACK
        ARGFRAME PSTACK, 0, STACK
        ARGFRAME XSTACK, 9, STACK
        ARGFRAME IOVERLAY, 0, STATIC
        ARGFRAME DOVERLAY, 0, STATIC
        EXTERN afRegister
        FUNCTION afRegister,0202H
        ARGFRAME ISTACK, 0, STACK
        ARGFRAME PSTACK, 0, STACK
        ARGFRAME XSTACK, 9, STACK
        ARGFRAME IOVERLAY, 0, STATIC
        ARGFRAME DOVERLAY, 0, STATIC
        EXTERN mqtt_publish_topic
        FUNCTION mqtt_publish_topic,0202H
        ARGFRAME ISTACK, 0, STACK
        ARGFRAME PSTACK, 0, STACK
        ARGFRAME XSTACK, 32, STACK
        ARGFRAME IOVERLAY, 0, STATIC
        ARGFRAME DOVERLAY, 0, STATIC
        EXTERN mqtt_subscribe_topic
        FUNCTION mqtt_subscribe_topic,0202H
        ARGFRAME ISTACK, 0, STACK
        ARGFRAME PSTACK, 0, STACK
        ARGFRAME XSTACK, 16, STACK
        ARGFRAME IOVERLAY, 0, STATIC
        ARGFRAME DOVERLAY, 0, STATIC
        EXTERN onenet_mqtt_send_heart
        FUNCTION onenet_mqtt_send_heart,0202H
        ARGFRAME ISTACK, 0, STACK
        ARGFRAME PSTACK, 0, STACK
        ARGFRAME XSTACK, 32, STACK
        ARGFRAME IOVERLAY, 0, STATIC
        ARGFRAME DOVERLAY, 0, STATIC
        EXTERN osal_GetSystemClock
        FUNCTION osal_GetSystemClock,0202H
        ARGFRAME ISTACK, 0, STACK
        ARGFRAME PSTACK, 0, STACK
        ARGFRAME XSTACK, 16, STACK
        ARGFRAME IOVERLAY, 0, STATIC
        ARGFRAME DOVERLAY, 0, STATIC
        EXTERN osal_memset
        FUNCTION osal_memset,0202H
        ARGFRAME ISTACK, 0, STACK
        ARGFRAME PSTACK, 0, STACK
        ARGFRAME XSTACK, 16, STACK
        ARGFRAME IOVERLAY, 0, STATIC
        ARGFRAME DOVERLAY, 0, STATIC
        EXTERN osal_msg_deallocate
        FUNCTION osal_msg_deallocate,0202H
        ARGFRAME ISTACK, 0, STACK
        ARGFRAME PSTACK, 0, STACK
        ARGFRAME XSTACK, 32, STACK
        ARGFRAME IOVERLAY, 0, STATIC
        ARGFRAME DOVERLAY, 0, STATIC
        EXTERN osal_msg_receive
        FUNCTION osal_msg_receive,0202H
        ARGFRAME ISTACK, 0, STACK
        ARGFRAME PSTACK, 0, STACK
        ARGFRAME XSTACK, 32, STACK
        ARGFRAME IOVERLAY, 0, STATIC
        ARGFRAME DOVERLAY, 0, STATIC
        EXTERN osal_start_timerEx
        FUNCTION osal_start_timerEx,0202H
        ARGFRAME ISTACK, 0, STACK
        ARGFRAME PSTACK, 0, STACK
        ARGFRAME XSTACK, 32, STACK
        ARGFRAME IOVERLAY, 0, STATIC
        ARGFRAME DOVERLAY, 0, STATIC
        EXTERN sprintf
        FUNCTION sprintf,0202H
        ARGFRAME ISTACK, 0, STACK
        ARGFRAME PSTACK, 0, STACK
        ARGFRAME XSTACK, 40, STACK
        ARGFRAME IOVERLAY, 0, STATIC
        ARGFRAME DOVERLAY, 0, STATIC
        EXTERN strstr
        FUNCTION strstr,010202H
        ARGFRAME ISTACK, 0, STACK
        ARGFRAME PSTACK, 0, STACK
        ARGFRAME XSTACK, 12, STACK
        ARGFRAME IOVERLAY, 0, STATIC
        ARGFRAME DOVERLAY, 0, STATIC

// C:\Users\OY\Desktop\ZStack-2.5.1a\Projects\zstack\Samples\SampleApp\Source\SampleApp.c
//    1 /*********************************************************************
//    2  * INCLUDES
//    3  */
//    4 
//    5 #include <stdio.h>
//    6 #include <string.h>
//    7 #include "AF.h"
//    8 #include "OnBoard.h"

        ASEGN SFR_AN:DATA:NOROOT,080H
// union <unnamed> volatile __sfr _A_P0
_A_P0:
        DATA8
        DS 1

        ASEGN SFR_AN:DATA:NOROOT,090H
// union <unnamed> volatile __sfr _A_P1
_A_P1:
        DATA8
        DS 1

        ASEGN SFR_AN:DATA:NOROOT,0f3H
// unsigned char volatile __sfr P0SEL
P0SEL:
        DATA8
        DS 1

        ASEGN SFR_AN:DATA:NOROOT,0fdH
// unsigned char volatile __sfr P0DIR
P0DIR:
        DATA8
        DS 1
//    9 #include "OSAL_Tasks.h"
//   10 #include "SampleApp.h"
//   11 #include "ZDApp.h"
//   12 #include "ZDObject.h"
//   13 #include "ZDProfile.h"
//   14 
//   15 #include "hal_drivers.h"
//   16 #include "hal_key.h"
//   17 #if defined ( LCD_SUPPORTED )
//   18   #include "hal_lcd.h"
//   19 #endif
//   20 #include "hal_led.h"
//   21 #include "hal_uart.h"
//   22 
//   23 #ifdef ZDO_COORDINATOR
//   24 //协议文件
//   25 #include "mqtt.h"
//   26 #include "mqttkit.h"
//   27 
//   28 #else
//   29 
//   30 #include "dht11.h"
//   31 
//   32 #endif
//   33 
//   34 
//   35 /*********************************************************************
//   36  * MACROS
//   37  */
//   38 
//   39 /*********************************************************************
//   40  * CONSTANTS
//   41  */
//   42 
//   43 #if !defined( SAMPLE_APP_PORT )
//   44 #define SAMPLE_APP_PORT  0
//   45 #endif
//   46 
//   47 #if !defined( SAMPLE_APP_RX_MAX )
//   48 #define SAMPLE_APP_RX_MAX  200
//   49 #endif
//   50 
//   51 
//   52 // This list should be filled with Application specific Cluster IDs.

        RSEG XDATA_ROM_C:CONST:REORDER:NOROOT(0)
        DATA8
//   53 const cId_t SampleApp_ClusterList[SAMPLE_MAX_CLUSTERS] =
SampleApp_ClusterList:
        DATA16
        DW 1
        DW 2
        DW 3
//   54 {
//   55   SAMPLEAPP_P2P_CLUSTERID,
//   56   SAMPLEAPP_PERIODIC_CLUSTERID,
//   57   SERIALAPP_CONNECTREQ_CLUSTER
//   58 };
//   59 

        RSEG XDATA_ROM_C:CONST:REORDER:NOROOT(0)
        DATA8
//   60 const SimpleDescriptionFormat_t SampleApp_SimpleDesc =
SampleApp_SimpleDesc:
        DB 11
        DATA16
        DW 3845
        DW 1
        DATA8
        DB 0
        DB 3
        DATA16
        DW SampleApp_ClusterList
        DATA8
        DB 3
        DATA16
        DW SampleApp_ClusterList
//   61 {
//   62   SAMPLEAPP_ENDPOINT,              //  int   Endpoint;
//   63   SAMPLEAPP_PROFID,                //  uint16 AppProfId[2];
//   64   SAMPLEAPP_DEVICEID,              //  uint16 AppDeviceId[2];
//   65   SAMPLEAPP_DEVICE_VERSION,        //  int   AppDevVer:4;
//   66   SAMPLEAPP_FLAGS,                 //  int   AppFlags:4;
//   67   SAMPLE_MAX_CLUSTERS,          //  byte  AppNumInClusters;
//   68   (cId_t *)SampleApp_ClusterList,  //  byte *pAppInClusterList;
//   69   SAMPLE_MAX_CLUSTERS,          //  byte  AppNumOutClusters;
//   70   (cId_t *)SampleApp_ClusterList   //  byte *pAppOutClusterList;
//   71 };
//   72 

        RSEG XDATA_I:XDATA:NOROOT(0)
//   73 endPointDesc_t SampleApp_epDesc =
SampleApp_epDesc:
        DATA8
        DS 6
        REQUIRE `?<Initializer for SampleApp_epDesc>`
        REQUIRE __INIT_XDATA_I
//   74 {
//   75   SAMPLEAPP_ENDPOINT,
//   76  &SampleApp_TaskID,
//   77   (SimpleDescriptionFormat_t *)&SampleApp_SimpleDesc,
//   78   noLatencyReqs
//   79 };
//   80 
//   81 /*********************************************************************
//   82  * TYPEDEFS
//   83  */
//   84 
//   85 /*********************************************************************
//   86  * GLOBAL VARIABLES
//   87  */

        RSEG XDATA_Z:XDATA:NOROOT(0)
        DATA8
//   88 devStates_t SampleApp_NwkState;
SampleApp_NwkState:
        DS 1
        REQUIRE __INIT_XDATA_Z

        RSEG XDATA_Z:XDATA:NOROOT(0)
        DATA8
//   89 uint8 SampleApp_TaskID;           // Task ID for internal task/event processing.
SampleApp_TaskID:
        DS 1
        REQUIRE __INIT_XDATA_Z
//   90 
//   91 /*********************************************************************
//   92  * EXTERNAL VARIABLES
//   93  */
//   94 
//   95 /*********************************************************************
//   96  * EXTERNAL FUNCTIONS
//   97  */
//   98 
//   99 /*********************************************************************
//  100  * LOCAL VARIABLES
//  101  */
//  102 
//  103 static uint8 SampleApp_MsgID;
//  104 

        RSEG XDATA_Z:XDATA:NOROOT(0)
        DATA8
//  105 afAddrType_t SampleApp_P2P_DstAddr;      //点播
SampleApp_P2P_DstAddr:
        DS 12
        REQUIRE __INIT_XDATA_Z
//  106 
//  107 

        RSEG XDATA_Z:XDATA:NOROOT(0)
        DATA8
//  108 static uint8 SampleApp_RxBuf[SAMPLE_APP_RX_MAX+1]={0};
SampleApp_RxBuf:
        DS 201
        REQUIRE __INIT_XDATA_Z

        RSEG XDATA_Z:XDATA:NOROOT(0)
        DATA16
//  109 static uint16 SampleApp_RxLen=0;
SampleApp_RxLen:
        DS 2
        REQUIRE __INIT_XDATA_Z
//  110 

        RSEG XDATA_Z:XDATA:NOROOT(0)
        DATA8
//  111 uint8 onenet_login_ok=0;//onenet注册成功 0:未注册，1：注册中　2：注册成功
onenet_login_ok:
        DS 1
        REQUIRE __INIT_XDATA_Z

        RSEG XDATA_Z:XDATA:NOROOT(0)
        DATA8
//  112 uint8 end_temp;//终端的温度
end_temp:
        DS 1
        REQUIRE __INIT_XDATA_Z

        RSEG XDATA_Z:XDATA:NOROOT(0)
        DATA8
//  113 uint8 end_hum;//终端的湿度
end_hum:
        DS 1
        REQUIRE __INIT_XDATA_Z
//  114 

        RSEG XDATA_Z:XDATA:NOROOT(0)
        DATA8
//  115 uint8 end_light = 0;       //开发板区域亮度     亮0-127灭
end_light:
        DS 1
        REQUIRE __INIT_XDATA_Z

        RSEG XDATA_Z:XDATA:NOROOT(0)
        DATA8
//  116 uint8 end_led3 = 0;        //终端节点开发板led3状态     0灭 1亮
end_led3:
        DS 1
        REQUIRE __INIT_XDATA_Z

        RSEG XDATA_Z:XDATA:NOROOT(0)
        DATA8
//  117 uint8 cor_led3 = 0;        //协调器led3 0灭 1亮
cor_led3:
        DS 1
        REQUIRE __INIT_XDATA_Z
//  118 #ifdef ZDO_COORDINATOR

        RSEG XDATA_Z:XDATA:NOROOT(0)
        DATA8
//  119 signed char *g_mqtt_topics_set[5] = {NULL};
g_mqtt_topics_set:
        DS 10
        REQUIRE __INIT_XDATA_Z

        RSEG XDATA_Z:XDATA:NOROOT(0)
        DATA8
//  120 u8 topics_buff[60]={0};
topics_buff:
        DS 60
        REQUIRE __INIT_XDATA_Z

        RSEG XDATA_Z:XDATA:NOROOT(0)
        DATA8
//  121 u8 topics_post[100]={0}; //发布的主题
topics_post:
        DS 100
        REQUIRE __INIT_XDATA_Z

        RSEG XDATA_Z:XDATA:NOROOT(0)
        DATA8
//  122 u8 mqtt_message[200]={0};//发布的消息
mqtt_message:
        DS 200
        REQUIRE __INIT_XDATA_Z
//  123 #endif
//  124 
//  125 /*********************************************************************
//  126  * LOCAL FUNCTIONS
//  127  */
//  128 
//  129 static void SampleApp_ProcessMSGCmd( afIncomingMSGPacket_t *pkt );
//  130 void SampleApp_CallBack(uint8 port, uint8 event);
//  131 static void SampleApp_Send_P2P_Message( void );
//  132 static void OneNet_publish_topic();
//  133 void debug(uint8 * msg, ...);
//  134 
//  135 /*********************************************************************
//  136  * @fn      SampleApp_Init
//  137  *
//  138  * @brief   This is called during OSAL tasks' initialization.
//  139  *
//  140  * @param   task_id - the Task ID assigned by OSAL.
//  141  *
//  142  * @return  none
//  143  */

        RSEG BANKED_CODE:HUGECODE:NOROOT(0)
//  144 void SampleApp_Init( uint8 task_id )
SampleApp_Init:
          CFI Block cfiBlock0 Using cfiCommon0
          CFI Function SampleApp_Init
        CODE
//  145 {
        FUNCALL SampleApp_Init, MT_UartInit
        LOCFRAME ISTACK, 0, STACK
        LOCFRAME PSTACK, 0, STACK
        LOCFRAME XSTACK, 9, STACK
        LOCFRAME IOVERLAY, 0, STATIC
        LOCFRAME DOVERLAY, 0, STATIC
        ARGFRAME ISTACK, 0, STACK
        ARGFRAME PSTACK, 0, STACK
        ARGFRAME XSTACK, 9, STACK
        ARGFRAME IOVERLAY, 0, STATIC
        ARGFRAME DOVERLAY, 0, STATIC
        FUNCALL SampleApp_Init, MT_UartRegisterTaskID
        LOCFRAME ISTACK, 0, STACK
        LOCFRAME PSTACK, 0, STACK
        LOCFRAME XSTACK, 9, STACK
        LOCFRAME IOVERLAY, 0, STATIC
        LOCFRAME DOVERLAY, 0, STATIC
        ARGFRAME ISTACK, 0, STACK
        ARGFRAME PSTACK, 0, STACK
        ARGFRAME XSTACK, 9, STACK
        ARGFRAME IOVERLAY, 0, STATIC
        ARGFRAME DOVERLAY, 0, STATIC
        FUNCALL SampleApp_Init, afRegister
        LOCFRAME ISTACK, 0, STACK
        LOCFRAME PSTACK, 0, STACK
        LOCFRAME XSTACK, 9, STACK
        LOCFRAME IOVERLAY, 0, STATIC
        LOCFRAME DOVERLAY, 0, STATIC
        ARGFRAME ISTACK, 0, STACK
        ARGFRAME PSTACK, 0, STACK
        ARGFRAME XSTACK, 9, STACK
        ARGFRAME IOVERLAY, 0, STATIC
        ARGFRAME DOVERLAY, 0, STATIC
        FUNCALL SampleApp_Init, RegisterForKeys
        LOCFRAME ISTACK, 0, STACK
        LOCFRAME PSTACK, 0, STACK
        LOCFRAME XSTACK, 9, STACK
        LOCFRAME IOVERLAY, 0, STATIC
        LOCFRAME DOVERLAY, 0, STATIC
        ARGFRAME ISTACK, 0, STACK
        ARGFRAME PSTACK, 0, STACK
        ARGFRAME XSTACK, 9, STACK
        ARGFRAME IOVERLAY, 0, STATIC
        ARGFRAME DOVERLAY, 0, STATIC
        FUNCALL SampleApp_Init, sprintf
        LOCFRAME ISTACK, 0, STACK
        LOCFRAME PSTACK, 0, STACK
        LOCFRAME XSTACK, 9, STACK
        LOCFRAME IOVERLAY, 0, STATIC
        LOCFRAME DOVERLAY, 0, STATIC
        ARGFRAME ISTACK, 0, STACK
        ARGFRAME PSTACK, 0, STACK
        ARGFRAME XSTACK, 9, STACK
        ARGFRAME IOVERLAY, 0, STATIC
        ARGFRAME DOVERLAY, 0, STATIC
        FUNCALL SampleApp_Init, sprintf
        LOCFRAME ISTACK, 0, STACK
        LOCFRAME PSTACK, 0, STACK
        LOCFRAME XSTACK, 9, STACK
        LOCFRAME IOVERLAY, 0, STATIC
        LOCFRAME DOVERLAY, 0, STATIC
        ARGFRAME ISTACK, 0, STACK
        ARGFRAME PSTACK, 0, STACK
        ARGFRAME XSTACK, 9, STACK
        ARGFRAME IOVERLAY, 0, STATIC
        ARGFRAME DOVERLAY, 0, STATIC
        MOV       A,#-0x9
        LCALL     ?BANKED_ENTER_XDATA
          CFI DPH0 load(1, XDATA, add(CFA_XSP16, literal(-1)))
          CFI DPL0 load(1, XDATA, add(CFA_XSP16, literal(-2)))
          CFI ?BRET_EXT load(1, XDATA, add(CFA_XSP16, literal(-3)))
          CFI ?RET_HIGH load(1, XDATA, add(CFA_XSP16, literal(-4)))
          CFI ?RET_LOW load(1, XDATA, add(CFA_XSP16, literal(-5)))
          CFI R7 load(1, XDATA, add(CFA_XSP16, literal(-6)))
          CFI V0 load(1, XDATA, add(CFA_XSP16, literal(-7)))
          CFI VB load(1, XDATA, add(CFA_XSP16, literal(-8)))
          CFI R6 load(1, XDATA, add(CFA_XSP16, literal(-9)))
          CFI CFA_SP SP+0
          CFI CFA_XSP16 add(XSP16, 9)
        ; Saved register size: 9
        ; Auto size: 0
        MOV       A,R1
        MOV       R6,A
//  146   halUARTCfg_t uartConfig;
//  147 
//  148   SampleApp_TaskID = task_id;
        MOV       DPTR,#SampleApp_TaskID
        MOVX      @DPTR,A
//  149   SampleApp_NwkState = DEV_INIT;
        MOV       DPTR,#SampleApp_NwkState
        MOV       A,#0x1
        MOVX      @DPTR,A
//  150 
//  151   MT_UartInit();                  //串口初始化
        ; Setup parameters for call to function MT_UartInit
        LCALL     `??MT_UartInit::?relay`; Banked call to: MT_UartInit
//  152   MT_UartRegisterTaskID(task_id); //注册串口任务
        ; Setup parameters for call to function MT_UartRegisterTaskID
        MOV       A,R6
        MOV       R2,A
        MOV       R3,#0x0
        LCALL     `??MT_UartRegisterTaskID::?relay`; Banked call to: MT_UartRegisterTaskID
//  153   afRegister( (endPointDesc_t *)&SampleApp_epDesc );
        ; Setup parameters for call to function afRegister
        MOV       R2,#SampleApp_epDesc & 0xff
        MOV       R3,#(SampleApp_epDesc >> 8) & 0xff
        LCALL     `??afRegister::?relay`; Banked call to: afRegister
//  154   RegisterForKeys( task_id );
        ; Setup parameters for call to function RegisterForKeys
        MOV       A,R6
        MOV       R1,A
        LCALL     `??RegisterForKeys::?relay`; Banked call to: RegisterForKeys
//  155 
//  156 #ifdef ZDO_COORDINATOR
//  157   //协调器初始化
//  158 
//  159   //逢蜂鸣器初始化
//  160 
//  161   P0SEL &= ~0x80;                 //设置P07为普通IO口
        ANL       0xf3,#0x7f
//  162   P0DIR |= 0x80;                 //P07定义为输出口
        ORL       0xfd,#0x80
//  163 
//  164   //默认蜂鸣器不响
//  165   P0_7=1;
        SETB      0x80.7
//  166 
//  167   //初始化发布的主题
//  168   sprintf(topics_post, "/post");//"/sys/%s/%s/thing/event/property/post",ProductKey,DeviceName);
        ; Setup parameters for call to function sprintf
        MOV       R4,#`?<Constant "/post">` & 0xff
        MOV       R5,#(`?<Constant "/post">` >> 8) & 0xff
        MOV       R2,#topics_post & 0xff
        MOV       R3,#(topics_post >> 8) & 0xff
        LCALL     `??sprintf::?relay`; Banked call to: sprintf
//  169 
//  170   //初始化订阅的主题
//  171   sprintf(topics_buff, "/set");//"/sys/%s/%s/thing/service/property/set",ProductKey,DeviceName);// /sys/a1sYYwS4kmH/mytestdev/thing/service/property/set
        ; Setup parameters for call to function sprintf
        MOV       R4,#`?<Constant "/set">` & 0xff
        MOV       R5,#(`?<Constant "/set">` >> 8) & 0xff
        MOV       R2,#topics_buff & 0xff
        MOV       R3,#(topics_buff >> 8) & 0xff
        LCALL     `??sprintf::?relay`; Banked call to: sprintf
//  172   g_mqtt_topics_set[0]=topics_buff;
        MOV       DPTR,#g_mqtt_topics_set
        MOV       A,#topics_buff & 0xff
        MOVX      @DPTR,A
        INC       DPTR
        MOV       A,#(topics_buff >> 8) & 0xff
        MOVX      @DPTR,A
//  173 
//  174 #endif
//  175 
//  176   SampleApp_P2P_DstAddr.addrMode = (afAddrMode_t)Addr16Bit; //点播
        MOV       DPTR,#SampleApp_P2P_DstAddr + 8
        MOV       A,#0x2
        MOVX      @DPTR,A
//  177   SampleApp_P2P_DstAddr.endPoint = SAMPLEAPP_ENDPOINT;
        INC       DPTR
        MOV       A,#0xb
        MOVX      @DPTR,A
//  178   SampleApp_P2P_DstAddr.addr.shortAddr = 0x0000;            //发给协调器
        MOV       DPTR,#SampleApp_P2P_DstAddr
        CLR       A
        MOVX      @DPTR,A
        INC       DPTR
        MOVX      @DPTR,A
//  179 
//  180 
//  181 }
          CFI EndBlock cfiBlock0
        REQUIRE ?Subroutine0
        REQUIRE P0SEL
        REQUIRE P0DIR
        REQUIRE _A_P0
        ; // Fall through to label ?Subroutine0

        RSEG BANKED_CODE:HUGECODE:NOROOT(0)
?Subroutine0:
          CFI Block cfiBlock1 Using cfiCommon0
          CFI NoFunction
          CFI CFA_SP SP+0
          CFI CFA_XSP16 add(XSP16, 9)
          CFI VB load(1, XDATA, add(CFA_XSP16, literal(-8)))
          CFI DPL0 load(1, XDATA, add(CFA_XSP16, literal(-2)))
          CFI DPH0 load(1, XDATA, add(CFA_XSP16, literal(-1)))
          CFI R6 load(1, XDATA, add(CFA_XSP16, literal(-9)))
          CFI R7 load(1, XDATA, add(CFA_XSP16, literal(-6)))
          CFI V0 load(1, XDATA, add(CFA_XSP16, literal(-7)))
          CFI ?BRET_EXT load(1, XDATA, add(CFA_XSP16, literal(-3)))
          CFI ?RET_HIGH load(1, XDATA, add(CFA_XSP16, literal(-4)))
          CFI ?RET_LOW load(1, XDATA, add(CFA_XSP16, literal(-5)))
        MOV       R7,#0x1
        LJMP      ?BANKED_LEAVE_XDATA
          CFI EndBlock cfiBlock1
//  182 

        RSEG BANKED_CODE:HUGECODE:NOROOT(0)
//  183 void SampleApp_HandleKeys( uint8 shift, uint8 keys )
SampleApp_HandleKeys:
          CFI Block cfiBlock2 Using cfiCommon0
          CFI Function SampleApp_HandleKeys
        CODE
//  184 {
        FUNCALL SampleApp_HandleKeys, mqtt_subscribe_topic
        LOCFRAME ISTACK, 0, STACK
        LOCFRAME PSTACK, 0, STACK
        LOCFRAME XSTACK, 11, STACK
        LOCFRAME IOVERLAY, 0, STATIC
        LOCFRAME DOVERLAY, 0, STATIC
        ARGFRAME ISTACK, 0, STACK
        ARGFRAME PSTACK, 0, STACK
        ARGFRAME XSTACK, 11, STACK
        ARGFRAME IOVERLAY, 0, STATIC
        ARGFRAME DOVERLAY, 0, STATIC
        MOV       A,#-0x9
        LCALL     ?BANKED_ENTER_XDATA
          CFI DPH0 load(1, XDATA, add(CFA_XSP16, literal(-1)))
          CFI DPL0 load(1, XDATA, add(CFA_XSP16, literal(-2)))
          CFI ?BRET_EXT load(1, XDATA, add(CFA_XSP16, literal(-3)))
          CFI ?RET_HIGH load(1, XDATA, add(CFA_XSP16, literal(-4)))
          CFI ?RET_LOW load(1, XDATA, add(CFA_XSP16, literal(-5)))
          CFI R7 load(1, XDATA, add(CFA_XSP16, literal(-6)))
          CFI V0 load(1, XDATA, add(CFA_XSP16, literal(-7)))
          CFI VB load(1, XDATA, add(CFA_XSP16, literal(-8)))
          CFI R6 load(1, XDATA, add(CFA_XSP16, literal(-9)))
          CFI CFA_SP SP+0
          CFI CFA_XSP16 add(XSP16, 9)
        ; Saved register size: 9
        ; Auto size: 2
        MOV       A,#-0x2
        LCALL     ?ALLOC_XSTACK8
          CFI CFA_XSP16 add(XSP16, 11)
        MOV       A,R2
//  185   (void)shift;  // Intentionally unreferenced parameter
//  186 
//  187 #if defined(ZDO_COORDINATOR)
//  188 
//  189   if ( keys & HAL_KEY_SW_6 )//key1
        MOV       C,0xE0 /* A   */.5
        JNC       ??SampleApp_HandleKeys_0
//  190   {
//  191     const signed char *g_mqtt_topics[] = {"mqtt_topic_test1"};
        MOV       DPTR,#`?<Constant {&"mqtt_topic_test1"}>`
        MOV       R4,?XSP + 0
        MOV       R5,?XSP + 1
        MOV       A,#0x2
        LCALL     ?MOVE_LONG8_XDATA_XDATA
//  192     if(0 == mqtt_subscribe_topic(g_mqtt_topics, 1))
        ; Setup parameters for call to function mqtt_subscribe_topic
        MOV       R1,#0x1
        MOV       R2,?XSP + 0
        MOV       R3,?XSP + 1
        LCALL     `??mqtt_subscribe_topic::?relay`; Banked call to: mqtt_subscribe_topic
//  193     {
//  194 
//  195     }
//  196   }
//  197 
//  198   if ( keys & HAL_KEY_SW_1 )//key2
//  199   {
//  200 
//  201   }
//  202 
//  203 #endif
//  204 }
??SampleApp_HandleKeys_0:
        MOV       A,#0x2
        LCALL     ?DEALLOC_XSTACK8
          CFI CFA_XSP16 add(XSP16, 9)
        SJMP      ?Subroutine0
          CFI EndBlock cfiBlock2

        RSEG XDATA_ROM_C:CONST:REORDER:NOROOT(0)
        DATA16
`?<Constant {&"mqtt_topic_test1"}>`:
        DW `?<Constant "mqtt_topic_test1">`
//  205 
//  206 
//  207 /*********************************************************************
//  208  * @fn      SampleApp_ProcessEvent
//  209  *
//  210  * @brief   Generic Application Task event processor.
//  211  *
//  212  * @param   task_id  - The OSAL assigned task ID.
//  213  * @param   events   - Bit map of events to process.
//  214  *
//  215  * @return  Event flags of all unprocessed events.
//  216  */

        RSEG BANKED_CODE:HUGECODE:NOROOT(0)
//  217 UINT16 SampleApp_ProcessEvent( uint8 task_id, UINT16 events )
SampleApp_ProcessEvent:
          CFI Block cfiBlock3 Using cfiCommon0
          CFI Function SampleApp_ProcessEvent
        CODE
//  218 {
        FUNCALL SampleApp_ProcessEvent, osal_start_timerEx
        LOCFRAME ISTACK, 0, STACK
        LOCFRAME PSTACK, 0, STACK
        LOCFRAME XSTACK, 32, STACK
        LOCFRAME IOVERLAY, 0, STATIC
        LOCFRAME DOVERLAY, 0, STATIC
        ARGFRAME ISTACK, 0, STACK
        ARGFRAME PSTACK, 0, STACK
        ARGFRAME XSTACK, 32, STACK
        ARGFRAME IOVERLAY, 0, STATIC
        ARGFRAME DOVERLAY, 0, STATIC
        FUNCALL SampleApp_ProcessEvent, osal_start_timerEx
        LOCFRAME ISTACK, 0, STACK
        LOCFRAME PSTACK, 0, STACK
        LOCFRAME XSTACK, 32, STACK
        LOCFRAME IOVERLAY, 0, STATIC
        LOCFRAME DOVERLAY, 0, STATIC
        ARGFRAME ISTACK, 0, STACK
        ARGFRAME PSTACK, 0, STACK
        ARGFRAME XSTACK, 32, STACK
        ARGFRAME IOVERLAY, 0, STATIC
        ARGFRAME DOVERLAY, 0, STATIC
        FUNCALL SampleApp_ProcessEvent, osal_start_timerEx
        LOCFRAME ISTACK, 0, STACK
        LOCFRAME PSTACK, 0, STACK
        LOCFRAME XSTACK, 32, STACK
        LOCFRAME IOVERLAY, 0, STATIC
        LOCFRAME DOVERLAY, 0, STATIC
        ARGFRAME ISTACK, 0, STACK
        ARGFRAME PSTACK, 0, STACK
        ARGFRAME XSTACK, 32, STACK
        ARGFRAME IOVERLAY, 0, STATIC
        ARGFRAME DOVERLAY, 0, STATIC
        FUNCALL SampleApp_ProcessEvent, osal_msg_deallocate
        LOCFRAME ISTACK, 0, STACK
        LOCFRAME PSTACK, 0, STACK
        LOCFRAME XSTACK, 32, STACK
        LOCFRAME IOVERLAY, 0, STATIC
        LOCFRAME DOVERLAY, 0, STATIC
        ARGFRAME ISTACK, 0, STACK
        ARGFRAME PSTACK, 0, STACK
        ARGFRAME XSTACK, 32, STACK
        ARGFRAME IOVERLAY, 0, STATIC
        ARGFRAME DOVERLAY, 0, STATIC
        FUNCALL SampleApp_ProcessEvent, osal_msg_receive
        LOCFRAME ISTACK, 0, STACK
        LOCFRAME PSTACK, 0, STACK
        LOCFRAME XSTACK, 32, STACK
        LOCFRAME IOVERLAY, 0, STATIC
        LOCFRAME DOVERLAY, 0, STATIC
        ARGFRAME ISTACK, 0, STACK
        ARGFRAME PSTACK, 0, STACK
        ARGFRAME XSTACK, 32, STACK
        ARGFRAME IOVERLAY, 0, STATIC
        ARGFRAME DOVERLAY, 0, STATIC
        FUNCALL SampleApp_ProcessEvent, SampleApp_HandleKeys
        LOCFRAME ISTACK, 0, STACK
        LOCFRAME PSTACK, 0, STACK
        LOCFRAME XSTACK, 32, STACK
        LOCFRAME IOVERLAY, 0, STATIC
        LOCFRAME DOVERLAY, 0, STATIC
        ARGFRAME ISTACK, 0, STACK
        ARGFRAME PSTACK, 0, STACK
        ARGFRAME XSTACK, 32, STACK
        ARGFRAME IOVERLAY, 0, STATIC
        ARGFRAME DOVERLAY, 0, STATIC
        FUNCALL SampleApp_ProcessEvent, sprintf
        LOCFRAME ISTACK, 0, STACK
        LOCFRAME PSTACK, 0, STACK
        LOCFRAME XSTACK, 34, STACK
        LOCFRAME IOVERLAY, 0, STATIC
        LOCFRAME DOVERLAY, 0, STATIC
        ARGFRAME ISTACK, 0, STACK
        ARGFRAME PSTACK, 0, STACK
        ARGFRAME XSTACK, 34, STACK
        ARGFRAME IOVERLAY, 0, STATIC
        ARGFRAME DOVERLAY, 0, STATIC
        FUNCALL SampleApp_ProcessEvent, HalLcdWriteString
        LOCFRAME ISTACK, 0, STACK
        LOCFRAME PSTACK, 0, STACK
        LOCFRAME XSTACK, 32, STACK
        LOCFRAME IOVERLAY, 0, STATIC
        LOCFRAME DOVERLAY, 0, STATIC
        ARGFRAME ISTACK, 0, STACK
        ARGFRAME PSTACK, 0, STACK
        ARGFRAME XSTACK, 32, STACK
        ARGFRAME IOVERLAY, 0, STATIC
        ARGFRAME DOVERLAY, 0, STATIC
        FUNCALL SampleApp_ProcessEvent, sprintf
        LOCFRAME ISTACK, 0, STACK
        LOCFRAME PSTACK, 0, STACK
        LOCFRAME XSTACK, 34, STACK
        LOCFRAME IOVERLAY, 0, STATIC
        LOCFRAME DOVERLAY, 0, STATIC
        ARGFRAME ISTACK, 0, STACK
        ARGFRAME PSTACK, 0, STACK
        ARGFRAME XSTACK, 34, STACK
        ARGFRAME IOVERLAY, 0, STATIC
        ARGFRAME DOVERLAY, 0, STATIC
        FUNCALL SampleApp_ProcessEvent, HalLcdWriteString
        LOCFRAME ISTACK, 0, STACK
        LOCFRAME PSTACK, 0, STACK
        LOCFRAME XSTACK, 32, STACK
        LOCFRAME IOVERLAY, 0, STATIC
        LOCFRAME DOVERLAY, 0, STATIC
        ARGFRAME ISTACK, 0, STACK
        ARGFRAME PSTACK, 0, STACK
        ARGFRAME XSTACK, 32, STACK
        ARGFRAME IOVERLAY, 0, STATIC
        ARGFRAME DOVERLAY, 0, STATIC
        FUNCALL SampleApp_ProcessEvent, OneNet_DevLink
        LOCFRAME ISTACK, 0, STACK
        LOCFRAME PSTACK, 0, STACK
        LOCFRAME XSTACK, 32, STACK
        LOCFRAME IOVERLAY, 0, STATIC
        LOCFRAME DOVERLAY, 0, STATIC
        ARGFRAME ISTACK, 0, STACK
        ARGFRAME PSTACK, 0, STACK
        ARGFRAME XSTACK, 32, STACK
        ARGFRAME IOVERLAY, 0, STATIC
        ARGFRAME DOVERLAY, 0, STATIC
        FUNCALL SampleApp_ProcessEvent, HalLedBlink
        LOCFRAME ISTACK, 0, STACK
        LOCFRAME PSTACK, 0, STACK
        LOCFRAME XSTACK, 32, STACK
        LOCFRAME IOVERLAY, 0, STATIC
        LOCFRAME DOVERLAY, 0, STATIC
        ARGFRAME ISTACK, 0, STACK
        ARGFRAME PSTACK, 0, STACK
        ARGFRAME XSTACK, 32, STACK
        ARGFRAME IOVERLAY, 0, STATIC
        ARGFRAME DOVERLAY, 0, STATIC
        FUNCALL SampleApp_ProcessEvent, osal_start_timerEx
        LOCFRAME ISTACK, 0, STACK
        LOCFRAME PSTACK, 0, STACK
        LOCFRAME XSTACK, 32, STACK
        LOCFRAME IOVERLAY, 0, STATIC
        LOCFRAME DOVERLAY, 0, STATIC
        ARGFRAME ISTACK, 0, STACK
        ARGFRAME PSTACK, 0, STACK
        ARGFRAME XSTACK, 32, STACK
        ARGFRAME IOVERLAY, 0, STATIC
        ARGFRAME DOVERLAY, 0, STATIC
        FUNCALL SampleApp_ProcessEvent, onenet_mqtt_send_heart
        LOCFRAME ISTACK, 0, STACK
        LOCFRAME PSTACK, 0, STACK
        LOCFRAME XSTACK, 32, STACK
        LOCFRAME IOVERLAY, 0, STATIC
        LOCFRAME DOVERLAY, 0, STATIC
        ARGFRAME ISTACK, 0, STACK
        ARGFRAME PSTACK, 0, STACK
        ARGFRAME XSTACK, 32, STACK
        ARGFRAME IOVERLAY, 0, STATIC
        ARGFRAME DOVERLAY, 0, STATIC
        FUNCALL SampleApp_ProcessEvent, osal_start_timerEx
        LOCFRAME ISTACK, 0, STACK
        LOCFRAME PSTACK, 0, STACK
        LOCFRAME XSTACK, 32, STACK
        LOCFRAME IOVERLAY, 0, STATIC
        LOCFRAME DOVERLAY, 0, STATIC
        ARGFRAME ISTACK, 0, STACK
        ARGFRAME PSTACK, 0, STACK
        ARGFRAME XSTACK, 32, STACK
        ARGFRAME IOVERLAY, 0, STATIC
        ARGFRAME DOVERLAY, 0, STATIC
        FUNCALL SampleApp_ProcessEvent, sprintf
        LOCFRAME ISTACK, 0, STACK
        LOCFRAME PSTACK, 0, STACK
        LOCFRAME XSTACK, 40, STACK
        LOCFRAME IOVERLAY, 0, STATIC
        LOCFRAME DOVERLAY, 0, STATIC
        ARGFRAME ISTACK, 0, STACK
        ARGFRAME PSTACK, 0, STACK
        ARGFRAME XSTACK, 40, STACK
        ARGFRAME IOVERLAY, 0, STATIC
        ARGFRAME DOVERLAY, 0, STATIC
        FUNCALL SampleApp_ProcessEvent, mqtt_publish_topic
        LOCFRAME ISTACK, 0, STACK
        LOCFRAME PSTACK, 0, STACK
        LOCFRAME XSTACK, 32, STACK
        LOCFRAME IOVERLAY, 0, STATIC
        LOCFRAME DOVERLAY, 0, STATIC
        ARGFRAME ISTACK, 0, STACK
        ARGFRAME PSTACK, 0, STACK
        ARGFRAME XSTACK, 32, STACK
        ARGFRAME IOVERLAY, 0, STATIC
        ARGFRAME DOVERLAY, 0, STATIC
        FUNCALL SampleApp_ProcessEvent, osal_start_timerEx
        LOCFRAME ISTACK, 0, STACK
        LOCFRAME PSTACK, 0, STACK
        LOCFRAME XSTACK, 32, STACK
        LOCFRAME IOVERLAY, 0, STATIC
        LOCFRAME DOVERLAY, 0, STATIC
        ARGFRAME ISTACK, 0, STACK
        ARGFRAME PSTACK, 0, STACK
        ARGFRAME XSTACK, 32, STACK
        ARGFRAME IOVERLAY, 0, STATIC
        ARGFRAME DOVERLAY, 0, STATIC
        REQUIRE ?V0
        REQUIRE ?V1
        REQUIRE ?V2
        REQUIRE ?V3
        MOV       A,#-0xc
        LCALL     ?BANKED_ENTER_XDATA
          CFI DPH0 load(1, XDATA, add(CFA_XSP16, literal(-1)))
          CFI DPL0 load(1, XDATA, add(CFA_XSP16, literal(-2)))
          CFI ?BRET_EXT load(1, XDATA, add(CFA_XSP16, literal(-3)))
          CFI ?RET_HIGH load(1, XDATA, add(CFA_XSP16, literal(-4)))
          CFI ?RET_LOW load(1, XDATA, add(CFA_XSP16, literal(-5)))
          CFI R7 load(1, XDATA, add(CFA_XSP16, literal(-6)))
          CFI V3 load(1, XDATA, add(CFA_XSP16, literal(-7)))
          CFI V2 load(1, XDATA, add(CFA_XSP16, literal(-8)))
          CFI V1 load(1, XDATA, add(CFA_XSP16, literal(-9)))
          CFI V0 load(1, XDATA, add(CFA_XSP16, literal(-10)))
          CFI VB load(1, XDATA, add(CFA_XSP16, literal(-11)))
          CFI R6 load(1, XDATA, add(CFA_XSP16, literal(-12)))
          CFI CFA_SP SP+0
          CFI CFA_XSP16 add(XSP16, 12)
        ; Saved register size: 12
        ; Auto size: 20
        MOV       A,#-0x14
        LCALL     ?ALLOC_XSTACK8
          CFI CFA_XSP16 add(XSP16, 32)
        MOV       A,R2
        MOV       R6,A
        MOV       A,R3
        MOV       R7,A
//  219   (void)task_id;  // Intentionally unreferenced parameter
//  220 
//  221   if ( events & SYS_EVENT_MSG )
        ANL       A,#0x80
        JNZ       ??SampleApp_ProcessEvent_0
//  222   {
//  223     afIncomingMSGPacket_t *MSGpkt;
//  224 
//  225     while ( (MSGpkt = (afIncomingMSGPacket_t *)osal_msg_receive( SampleApp_TaskID )) )
//  226     {
//  227       switch ( MSGpkt->hdr.event )
//  228       {
//  229       case KEY_CHANGE:
//  230         SampleApp_HandleKeys( ((keyChange_t *)MSGpkt)->state, ((keyChange_t *)MSGpkt)->keys );
//  231         break;
//  232 
//  233       case AF_INCOMING_MSG_CMD:
//  234         SampleApp_ProcessMSGCmd( MSGpkt );
//  235         break;
//  236 
//  237       case ZDO_STATE_CHANGE:
//  238         SampleApp_NwkState = (devStates_t)(MSGpkt->hdr.status);
//  239         if ( (SampleApp_NwkState == DEV_ZB_COORD)||
//  240             (SampleApp_NwkState == DEV_ROUTER)
//  241             || (SampleApp_NwkState == DEV_END_DEVICE) )
//  242         {
//  243             //连网成功后，启动一个定时器
//  244             osal_start_timerEx( SampleApp_TaskID,
//  245                               SAMPLEAPP_SEND_PERIODIC_MSG_EVT,
//  246                               SAMPLEAPP_SEND_PERIODIC_MSG_TIMEOUT );
//  247         }
//  248         else
//  249         {
//  250           // Device is no longer in the network
//  251         }
//  252         break;
//  253 
//  254       default:
//  255         break;
//  256       }
//  257 
//  258       osal_msg_deallocate( (uint8 *)MSGpkt );
//  259     }
//  260 
//  261     return ( events ^ SYS_EVENT_MSG );
//  262   }
//  263 
//  264 #ifdef ZDO_COORDINATOR
//  265 
//  266   //定时器时间到
//  267   if ( events & SAMPLEAPP_SEND_PERIODIC_MSG_EVT )
        MOV       A,R2
        MOV       C,0xE0 /* A   */.0
        JC        $+5
        LJMP      ??SampleApp_ProcessEvent_1 & 0xFFFF
//  268   {
//  269     if(onenet_login_ok==2)
        MOV       DPTR,#onenet_login_ok
        MOVX      A,@DPTR
        XRL       A,#0x2
        JZ        $+5
        LJMP      ??SampleApp_ProcessEvent_2 & 0xFFFF
//  270     {
//  271         //如果接入onenet成功，启动心跳和发送数据定A器
//  272 
//  273         P1_1=0;//点亮D2
        CLR       0x90.1
//  274 
//  275 
//  276         // 启动心跳定时器，15秒一次
//  277         osal_start_timerEx( SampleApp_TaskID, SAMPLEAPP_ONENET_HEART_BEAT_EVT,15000 );
        ; Setup parameters for call to function osal_start_timerEx
        MOV       R4,#-0x68
        MOV       R5,#0x3a
        MOV       R2,#0x2
        LCALL     ?Subroutine5 & 0xFFFF
//  278 
//  279         // 启动发送数据定时器，5秒一次
//  280         osal_start_timerEx( SampleApp_TaskID, SAMPLEAPP_ONENET_SEND_DATA_EVT,5000 );
??CrossCallReturnLabel_7:
        ; Setup parameters for call to function osal_start_timerEx
        MOV       R4,#-0x78
        MOV       R5,#0x13
        MOV       R2,#0x4
        LJMP      ??SampleApp_ProcessEvent_3 & 0xFFFF
//  281     }
??SampleApp_ProcessEvent_4:
        INC       DPTR
        MOVX      A,@DPTR
        MOV       DPTR,#SampleApp_NwkState
        MOVX      @DPTR,A
        XRL       A,#0x9
        JZ        ??SampleApp_ProcessEvent_5
        MOVX      A,@DPTR
        XRL       A,#0x7
        JZ        ??SampleApp_ProcessEvent_5
        MOVX      A,@DPTR
        XRL       A,#0x6
        JNZ       ??CrossCallReturnLabel_8
??SampleApp_ProcessEvent_5:
        ; Setup parameters for call to function osal_start_timerEx
        MOV       R4,#-0x48
        MOV       R5,#0xb
        MOV       R2,#0x1
        LCALL     ?Subroutine5 & 0xFFFF
??CrossCallReturnLabel_8:
        ; Setup parameters for call to function osal_msg_deallocate
        MOV       R2,?V0
        MOV       R3,?V1
        LCALL     `??osal_msg_deallocate::?relay`; Banked call to: osal_msg_deallocate
??SampleApp_ProcessEvent_0:
        ; Setup parameters for call to function osal_msg_receive
        MOV       DPTR,#SampleApp_TaskID
        MOVX      A,@DPTR
        MOV       R1,A
        LCALL     `??osal_msg_receive::?relay`; Banked call to: osal_msg_receive
        MOV       ?V0,R2
        MOV       ?V1,R3
        MOV       A,R2
        ORL       A,R3
        JNZ       $+5
        LJMP      ??SampleApp_ProcessEvent_6 & 0xFFFF
        MOV       DPL,R2
        MOV       DPH,R3
        MOVX      A,@DPTR
        ADD       A,#-0x1a
        JZ        ??SampleApp_ProcessEvent_7
        ADD       A,#0x5a
        JZ        ??SampleApp_ProcessEvent_8
        ADD       A,#-0x11
        JZ        ??SampleApp_ProcessEvent_4
        SJMP      ??CrossCallReturnLabel_8
??SampleApp_ProcessEvent_8:
        ; Setup parameters for call to function SampleApp_HandleKeys
        INC       DPTR
        INC       DPTR
        INC       DPTR
        MOVX      A,@DPTR
        MOV       R2,A
        MOV       DPL,?V0
        MOV       DPH,R3
        INC       DPTR
        INC       DPTR
        MOVX      A,@DPTR
        MOV       R1,A
        LCALL     `??SampleApp_HandleKeys::?relay`; Banked call to: SampleApp_HandleKeys
        SJMP      ??CrossCallReturnLabel_8
??SampleApp_ProcessEvent_7:
        MOV       DPTR,#`?<Constant {0, 0, 0, 0, 0, 0, 0, 0, 0, 0, 0, 0`
        MOV       R4,?XSP + 0
        MOV       R5,?XSP + 1
        MOV       A,#0x14
        LCALL     ?MOVE_LONG8_XDATA_XDATA
        MOV       DPL,R2
        MOV       DPH,R3
        INC       DPTR
        INC       DPTR
        INC       DPTR
        INC       DPTR
        MOVX      A,@DPTR
        XRL       A,#0x1
        JNZ       ??SampleApp_ProcessEvent_9
        INC       DPTR
        MOVX      A,@DPTR
??SampleApp_ProcessEvent_9:
        JNZ       ??CrossCallReturnLabel_8
        MOV       A,R2
        ADD       A,#0x22
        MOV       R0,A
        CLR       A
        ADDC      A,?V1
        MOV       R1,A
        MOV       DPL,R0
        MOV       DPH,A
        LCALL     ?Subroutine4 & 0xFFFF
??CrossCallReturnLabel_5:
        MOVX      A,@DPTR
        MOV       DPTR,#end_temp
        MOVX      @DPTR,A
        MOV       DPL,R0
        MOV       DPH,R1
        LCALL     ?Subroutine4 & 0xFFFF
??CrossCallReturnLabel_6:
        INC       DPTR
        MOVX      A,@DPTR
        MOV       DPTR,#end_hum
        MOVX      @DPTR,A
        MOV       DPL,R0
        MOV       DPH,R1
        MOVX      A,@DPTR
        MOV       R0,A
        INC       DPTR
        MOVX      A,@DPTR
        MOV       DPH,A
        MOV       DPL,R0
        INC       DPTR
        INC       DPTR
        MOVX      A,@DPTR
        MOV       DPTR,#end_light
        MOVX      @DPTR,A
        MOV       C,0x90.4
        JC        ??SampleApp_ProcessEvent_10
        SETB      B.0
        SJMP      ??SampleApp_ProcessEvent_11
??SampleApp_ProcessEvent_10:
        CLR       B.0
??SampleApp_ProcessEvent_11:
        MOV       C,B.0
        CLR       A
        RLC       A
        MOV       DPTR,#cor_led3
        MOVX      @DPTR,A
        ; Setup parameters for call to function sprintf
        MOV       DPTR,#end_temp
        MOVX      A,@DPTR
        MOV       ?V2,A
        MOV       ?V3,#0x0
        MOV       R0,#?V2
        LCALL     ?PUSH_XSTACK_I_TWO
          CFI CFA_XSP16 add(XSP16, 34)
        MOV       R4,#`?<Constant "T:%d">` & 0xff
        MOV       R5,#(`?<Constant "T:%d">` >> 8) & 0xff
        MOV       A,#0x2
        LCALL     ?XSTACK_DISP101_8
        LCALL     `??sprintf::?relay`; Banked call to: sprintf
        MOV       A,#0x2
        LCALL     ?DEALLOC_XSTACK8
          CFI CFA_XSP16 add(XSP16, 32)
        ; Setup parameters for call to function HalLcdWriteString
        MOV       R1,#0x3
        MOV       R2,?XSP + 0
        MOV       R3,?XSP + 1
        LCALL     `??HalLcdWriteString::?relay`; Banked call to: HalLcdWriteString
        ; Setup parameters for call to function sprintf
        MOV       DPTR,#end_hum
        MOVX      A,@DPTR
        MOV       ?V2,A
        MOV       R0,#?V2
        LCALL     ?PUSH_XSTACK_I_TWO
          CFI CFA_XSP16 add(XSP16, 34)
        MOV       R4,#`?<Constant "H:%d">` & 0xff
        MOV       R5,#(`?<Constant "H:%d">` >> 8) & 0xff
        MOV       A,#0x2
        LCALL     ?XSTACK_DISP101_8
        LCALL     `??sprintf::?relay`; Banked call to: sprintf
        MOV       A,#0x2
        LCALL     ?DEALLOC_XSTACK8
          CFI CFA_XSP16 add(XSP16, 32)
        ; Setup parameters for call to function HalLcdWriteString
        MOV       R1,#0x4
        MOV       R2,?XSP + 0
        MOV       R3,?XSP + 1
        LCALL     `??HalLcdWriteString::?relay`; Banked call to: HalLcdWriteString
        LJMP      ??CrossCallReturnLabel_8 & 0xFFFF
??SampleApp_ProcessEvent_6:
        MOV       A,R6
        MOV       R2,A
        MOV       A,R7
        XRL       A,#0x80
        LJMP      ??SampleApp_ProcessEvent_12 & 0xFFFF
//  282     else
//  283     {
//  284         onenet_login_ok=1;//onenet注册成功 0:未注册，1：注册中　2：注册成功
??SampleApp_ProcessEvent_2:
        MOV       A,#0x1
        LCALL     ?Subroutine3 & 0xFFFF
//  285         SampleApp_RxLen=0;
//  286 
//  287         //如果没有接入onenet成功，重新发起接入
//  288         OneNet_DevLink();//接入onenet服务器
??CrossCallReturnLabel_3:
        ; Setup parameters for call to function OneNet_DevLink
        LCALL     `??OneNet_DevLink::?relay`; Banked call to: OneNet_DevLink
//  289 
//  290         //LED2闪，表示正在接入onenet
//  291         HalLedBlink (HAL_LED_2, 5, 50, 500);
        ; Setup parameters for call to function HalLedBlink
        MOV       R4,#-0xc
        MOV       R5,#0x1
        MOV       R3,#0x32
        MOV       R2,#0x5
        MOV       R1,#0x2
        LCALL     `??HalLedBlink::?relay`; Banked call to: HalLedBlink
//  292 
//  293         // 每5秒尝试接入一次
//  294         osal_start_timerEx( SampleApp_TaskID, SAMPLEAPP_SEND_PERIODIC_MSG_EVT,5000 );
        ; Setup parameters for call to function osal_start_timerEx
        MOV       R4,#-0x78
        MOV       R5,#0x13
        MOV       R2,#0x1
//  295     }
//  296 
//  297 
//  298     // return unprocessed events
//  299     return (events ^ SAMPLEAPP_SEND_PERIODIC_MSG_EVT);
//  300   }
??SampleApp_ProcessEvent_3:
        LCALL     ?Subroutine2 & 0xFFFF
??CrossCallReturnLabel_0:
        XRL       A,#0x1
        SJMP      ??SampleApp_ProcessEvent_13
//  301 
//  302 
//  303   //心跳定时器时间到
//  304   if ( events & SAMPLEAPP_ONENET_HEART_BEAT_EVT )
??SampleApp_ProcessEvent_1:
        ANL       A,#0x2
        JZ        ??SampleApp_ProcessEvent_14
//  305   {
//  306     if(onenet_login_ok==2)
        MOV       DPTR,#onenet_login_ok
        MOVX      A,@DPTR
        XRL       A,#0x2
        JNZ       ??SampleApp_ProcessEvent_15
//  307     {
//  308         //发送心跳
//  309         onenet_mqtt_send_heart();
        ; Setup parameters for call to function onenet_mqtt_send_heart
        LCALL     `??onenet_mqtt_send_heart::?relay`; Banked call to: onenet_mqtt_send_heart
//  310     }
//  311 
//  312     // 启动心跳定时器，15秒一次
//  313     osal_start_timerEx( SampleApp_TaskID, SAMPLEAPP_ONENET_HEART_BEAT_EVT,15000 );
??SampleApp_ProcessEvent_15:
        ; Setup parameters for call to function osal_start_timerEx
        MOV       R4,#-0x68
        MOV       R5,#0x3a
        MOV       R2,#0x2
        LCALL     ?Subroutine2 & 0xFFFF
//  314 
//  315 
//  316     // return unprocessed events
//  317     return (events ^ SAMPLEAPP_ONENET_HEART_BEAT_EVT);
//  318   }
??CrossCallReturnLabel_1:
        XRL       A,#0x2
        SJMP      ??SampleApp_ProcessEvent_13
//  319 
//  320 
//  321   //发送数据定时器时间到
//  322   if ( events & SAMPLEAPP_ONENET_SEND_DATA_EVT )
??SampleApp_ProcessEvent_14:
        MOV       A,R2
        ANL       A,#0x4
        JZ        ??SampleApp_ProcessEvent_16
//  323   {
//  324     if(onenet_login_ok==2)
        MOV       DPTR,#onenet_login_ok
        MOVX      A,@DPTR
        XRL       A,#0x2
        JNZ       ??SampleApp_ProcessEvent_17
//  325     {
//  326         //发送温湿度数据到onenet
//  327     //    OneNet_SendData(end_temp, end_hum);
//  328 
//  329         sprintf(mqtt_message,
//  330         "{\"method\":\"thing.service.property.set\",\"id\":\"630262306\",\"params\":{\ 
//  331             \"temp\":%d,\ 
//  332             \"hum\":%d,\ 
//  333                \"end_light\":%d,\ 
//  334               \"led3\":%d}\ 
//  335         }",
//  336         end_temp,
//  337         end_hum,
//  338         end_light,
//  339         cor_led3
//  340         );
        ; Setup parameters for call to function sprintf
        MOV       DPTR,#cor_led3
        MOVX      A,@DPTR
        MOV       ?V0,A
        MOV       ?V1,#0x0
        MOV       R0,#?V0
        LCALL     ?PUSH_XSTACK_I_TWO
          CFI CFA_XSP16 add(XSP16, 34)
        MOV       DPTR,#end_light
        MOVX      A,@DPTR
        MOV       ?V0,A
        MOV       R0,#?V0
        LCALL     ?PUSH_XSTACK_I_TWO
          CFI CFA_XSP16 add(XSP16, 36)
        MOV       DPTR,#end_hum
        MOVX      A,@DPTR
        MOV       ?V0,A
        MOV       R0,#?V0
        LCALL     ?PUSH_XSTACK_I_TWO
          CFI CFA_XSP16 add(XSP16, 38)
        MOV       DPTR,#end_temp
        MOVX      A,@DPTR
        MOV       ?V0,A
        MOV       R0,#?V0
        LCALL     ?PUSH_XSTACK_I_TWO
          CFI CFA_XSP16 add(XSP16, 40)
        MOV       R4,#`?<Constant "{\\"method\\":\\"thing.serv...">` & 0xff
        MOV       R5,#(`?<Constant "{\\"method\\":\\"thing.serv...">` >> 8) & 0xff
        MOV       R2,#mqtt_message & 0xff
        MOV       R3,#(mqtt_message >> 8) & 0xff
        LCALL     `??sprintf::?relay`; Banked call to: sprintf
        MOV       A,#0x8
        LCALL     ?DEALLOC_XSTACK8
          CFI CFA_XSP16 add(XSP16, 32)
//  341 
//  342         //发布主题
//  343         mqtt_publish_topic(topics_post, mqtt_message);
        ; Setup parameters for call to function mqtt_publish_topic
        MOV       R4,#mqtt_message & 0xff
        MOV       R5,#(mqtt_message >> 8) & 0xff
        MOV       R2,#topics_post & 0xff
        MOV       R3,#(topics_post >> 8) & 0xff
        LCALL     `??mqtt_publish_topic::?relay`; Banked call to: mqtt_publish_topic
//  344 
//  345      //  OneNet_publish_topic();
//  346     }
//  347 
//  348     // 启动发送数据定时器，5秒一次
//  349     osal_start_timerEx( SampleApp_TaskID, SAMPLEAPP_ONENET_SEND_DATA_EVT,5000 );
??SampleApp_ProcessEvent_17:
        ; Setup parameters for call to function osal_start_timerEx
        MOV       R4,#-0x78
        MOV       R5,#0x13
        MOV       R2,#0x4
        LCALL     ?Subroutine2 & 0xFFFF
//  350 
//  351 
//  352     // return unprocessed events
//  353     return (events ^ SAMPLEAPP_ONENET_SEND_DATA_EVT);
//  354   }
??CrossCallReturnLabel_2:
        XRL       A,#0x4
??SampleApp_ProcessEvent_13:
        MOV       R2,A
        MOV       A,R7
??SampleApp_ProcessEvent_12:
        MOV       R3,A
        SJMP      ??SampleApp_ProcessEvent_18
//  355 
//  356 
//  357 #else
//  358 
//  359   //定时器时间到
//  360   if ( events & SAMPLEAPP_SEND_PERIODIC_MSG_EVT )
//  361   {
//  362 
//  363     // DHT11采集
//  364     SampleApp_Send_P2P_Message();
//  365 
//  366     // Setup to send message again in normal period (+ a little jitter)
//  367     osal_start_timerEx( SampleApp_TaskID, SAMPLEAPP_SEND_PERIODIC_MSG_EVT,
//  368         (SAMPLEAPP_SEND_PERIODIC_MSG_TIMEOUT + (osal_rand() & 0x00FF)) );
//  369 
//  370     // return unprocessed events
//  371     return (events ^ SAMPLEAPP_SEND_PERIODIC_MSG_EVT);
//  372   }
//  373 
//  374 #endif
//  375 
//  376   return ( 0 );  // Discard unknown events.
??SampleApp_ProcessEvent_16:
        MOV       R2,#0x0
        MOV       R3,#0x0
??SampleApp_ProcessEvent_18:
        MOV       A,#0x14
        LCALL     ?DEALLOC_XSTACK8
          CFI EndBlock cfiBlock3
        REQUIRE ?Subroutine1
        REQUIRE _A_P1
        ; // Fall through to label ?Subroutine1
//  377 }

        RSEG BANKED_CODE:HUGECODE:NOROOT(0)
?Subroutine1:
          CFI Block cfiBlock4 Using cfiCommon0
          CFI NoFunction
          CFI CFA_SP SP+0
          CFI CFA_XSP16 add(XSP16, 12)
          CFI VB load(1, XDATA, add(CFA_XSP16, literal(-11)))
          CFI DPL0 load(1, XDATA, add(CFA_XSP16, literal(-2)))
          CFI DPH0 load(1, XDATA, add(CFA_XSP16, literal(-1)))
          CFI R6 load(1, XDATA, add(CFA_XSP16, literal(-12)))
          CFI R7 load(1, XDATA, add(CFA_XSP16, literal(-6)))
          CFI V0 load(1, XDATA, add(CFA_XSP16, literal(-10)))
          CFI V1 load(1, XDATA, add(CFA_XSP16, literal(-9)))
          CFI V2 load(1, XDATA, add(CFA_XSP16, literal(-8)))
          CFI V3 load(1, XDATA, add(CFA_XSP16, literal(-7)))
          CFI ?BRET_EXT load(1, XDATA, add(CFA_XSP16, literal(-3)))
          CFI ?RET_HIGH load(1, XDATA, add(CFA_XSP16, literal(-4)))
          CFI ?RET_LOW load(1, XDATA, add(CFA_XSP16, literal(-5)))
        MOV       R7,#0x4
        LJMP      ?BANKED_LEAVE_XDATA
          CFI EndBlock cfiBlock4

        RSEG BANKED_CODE:HUGECODE:NOROOT(0)
?Subroutine4:
          CFI Block cfiCond5 Using cfiCommon0
          CFI Function SampleApp_ProcessEvent
          CFI Conditional ??CrossCallReturnLabel_5
          CFI R6 load(1, XDATA, add(CFA_XSP16, literal(-12)))
          CFI VB load(1, XDATA, add(CFA_XSP16, literal(-11)))
          CFI V0 load(1, XDATA, add(CFA_XSP16, literal(-10)))
          CFI V1 load(1, XDATA, add(CFA_XSP16, literal(-9)))
          CFI V2 load(1, XDATA, add(CFA_XSP16, literal(-8)))
          CFI V3 load(1, XDATA, add(CFA_XSP16, literal(-7)))
          CFI R7 load(1, XDATA, add(CFA_XSP16, literal(-6)))
          CFI ?RET_LOW load(1, XDATA, add(CFA_XSP16, literal(-5)))
          CFI ?RET_HIGH load(1, XDATA, add(CFA_XSP16, literal(-4)))
          CFI ?BRET_EXT load(1, XDATA, add(CFA_XSP16, literal(-3)))
          CFI DPL0 load(1, XDATA, add(CFA_XSP16, literal(-2)))
          CFI DPH0 load(1, XDATA, add(CFA_XSP16, literal(-1)))
          CFI CFA_SP SP+-2
          CFI CFA_XSP16 add(XSP16, 32)
          CFI Block cfiCond6 Using cfiCommon0
          CFI (cfiCond6) Function SampleApp_ProcessEvent
          CFI (cfiCond6) Conditional ??CrossCallReturnLabel_6
          CFI (cfiCond6) R6 load(1, XDATA, add(CFA_XSP16, literal(-12)))
          CFI (cfiCond6) VB load(1, XDATA, add(CFA_XSP16, literal(-11)))
          CFI (cfiCond6) V0 load(1, XDATA, add(CFA_XSP16, literal(-10)))
          CFI (cfiCond6) V1 load(1, XDATA, add(CFA_XSP16, literal(-9)))
          CFI (cfiCond6) V2 load(1, XDATA, add(CFA_XSP16, literal(-8)))
          CFI (cfiCond6) V3 load(1, XDATA, add(CFA_XSP16, literal(-7)))
          CFI (cfiCond6) R7 load(1, XDATA, add(CFA_XSP16, literal(-6)))
          CFI (cfiCond6) ?RET_LOW load(1, XDATA, add(CFA_XSP16, literal(-5)))
          CFI (cfiCond6) ?RET_HIGH load(1, XDATA, add(CFA_XSP16, literal(-4)))
          CFI (cfiCond6) ?BRET_EXT load(1, XDATA, add(CFA_XSP16, literal(-3)))
          CFI (cfiCond6) DPL0 load(1, XDATA, add(CFA_XSP16, literal(-2)))
          CFI (cfiCond6) DPH0 load(1, XDATA, add(CFA_XSP16, literal(-1)))
          CFI (cfiCond6) CFA_SP SP+-2
          CFI (cfiCond6) CFA_XSP16 add(XSP16, 32)
          CFI Block cfiPicker7 Using cfiCommon1
          CFI (cfiPicker7) NoFunction
          CFI (cfiPicker7) Picker
        MOVX      A,@DPTR
        MOV       R2,A
        INC       DPTR
        MOVX      A,@DPTR
        MOV       DPH,A
        MOV       DPL,R2
        RET
          CFI EndBlock cfiCond5
          CFI EndBlock cfiCond6
          CFI EndBlock cfiPicker7

        RSEG BANKED_CODE:HUGECODE:NOROOT(0)
?Subroutine2:
          CFI Block cfiCond8 Using cfiCommon0
          CFI Function SampleApp_ProcessEvent
          CFI Conditional ??CrossCallReturnLabel_0
          CFI R6 load(1, XDATA, add(CFA_XSP16, literal(-12)))
          CFI VB load(1, XDATA, add(CFA_XSP16, literal(-11)))
          CFI V0 load(1, XDATA, add(CFA_XSP16, literal(-10)))
          CFI V1 load(1, XDATA, add(CFA_XSP16, literal(-9)))
          CFI V2 load(1, XDATA, add(CFA_XSP16, literal(-8)))
          CFI V3 load(1, XDATA, add(CFA_XSP16, literal(-7)))
          CFI R7 load(1, XDATA, add(CFA_XSP16, literal(-6)))
          CFI ?RET_LOW load(1, XDATA, add(CFA_XSP16, literal(-5)))
          CFI ?RET_HIGH load(1, XDATA, add(CFA_XSP16, literal(-4)))
          CFI ?BRET_EXT load(1, XDATA, add(CFA_XSP16, literal(-3)))
          CFI DPL0 load(1, XDATA, add(CFA_XSP16, literal(-2)))
          CFI DPH0 load(1, XDATA, add(CFA_XSP16, literal(-1)))
          CFI CFA_SP SP+-2
          CFI CFA_XSP16 add(XSP16, 32)
          CFI Block cfiCond9 Using cfiCommon0
          CFI (cfiCond9) Function SampleApp_ProcessEvent
          CFI (cfiCond9) Conditional ??CrossCallReturnLabel_1
          CFI (cfiCond9) R6 load(1, XDATA, add(CFA_XSP16, literal(-12)))
          CFI (cfiCond9) VB load(1, XDATA, add(CFA_XSP16, literal(-11)))
          CFI (cfiCond9) V0 load(1, XDATA, add(CFA_XSP16, literal(-10)))
          CFI (cfiCond9) V1 load(1, XDATA, add(CFA_XSP16, literal(-9)))
          CFI (cfiCond9) V2 load(1, XDATA, add(CFA_XSP16, literal(-8)))
          CFI (cfiCond9) V3 load(1, XDATA, add(CFA_XSP16, literal(-7)))
          CFI (cfiCond9) R7 load(1, XDATA, add(CFA_XSP16, literal(-6)))
          CFI (cfiCond9) ?RET_LOW load(1, XDATA, add(CFA_XSP16, literal(-5)))
          CFI (cfiCond9) ?RET_HIGH load(1, XDATA, add(CFA_XSP16, literal(-4)))
          CFI (cfiCond9) ?BRET_EXT load(1, XDATA, add(CFA_XSP16, literal(-3)))
          CFI (cfiCond9) DPL0 load(1, XDATA, add(CFA_XSP16, literal(-2)))
          CFI (cfiCond9) DPH0 load(1, XDATA, add(CFA_XSP16, literal(-1)))
          CFI (cfiCond9) CFA_SP SP+-2
          CFI (cfiCond9) CFA_XSP16 add(XSP16, 32)
          CFI Block cfiCond10 Using cfiCommon0
          CFI (cfiCond10) Function SampleApp_ProcessEvent
          CFI (cfiCond10) Conditional ??CrossCallReturnLabel_2
          CFI (cfiCond10) R6 load(1, XDATA, add(CFA_XSP16, literal(-12)))
          CFI (cfiCond10) VB load(1, XDATA, add(CFA_XSP16, literal(-11)))
          CFI (cfiCond10) V0 load(1, XDATA, add(CFA_XSP16, literal(-10)))
          CFI (cfiCond10) V1 load(1, XDATA, add(CFA_XSP16, literal(-9)))
          CFI (cfiCond10) V2 load(1, XDATA, add(CFA_XSP16, literal(-8)))
          CFI (cfiCond10) V3 load(1, XDATA, add(CFA_XSP16, literal(-7)))
          CFI (cfiCond10) R7 load(1, XDATA, add(CFA_XSP16, literal(-6)))
          CFI (cfiCond10) ?RET_LOW load(1, XDATA, add(CFA_XSP16, literal(-5)))
          CFI (cfiCond10) ?RET_HIGH load(1, XDATA, add(CFA_XSP16, literal(-4)))
          CFI (cfiCond10) ?BRET_EXT load(1, XDATA, add(CFA_XSP16, literal(-3)))
          CFI (cfiCond10) DPL0 load(1, XDATA, add(CFA_XSP16, literal(-2)))
          CFI (cfiCond10) DPH0 load(1, XDATA, add(CFA_XSP16, literal(-1)))
          CFI (cfiCond10) CFA_SP SP+-2
          CFI (cfiCond10) CFA_XSP16 add(XSP16, 32)
          CFI Block cfiPicker11 Using cfiCommon1
          CFI (cfiPicker11) NoFunction
          CFI (cfiPicker11) Picker
        LCALL     ?Subroutine5 & 0xFFFF
??CrossCallReturnLabel_9:
        MOV       A,R6
        RET
          CFI EndBlock cfiCond8
          CFI EndBlock cfiCond9
          CFI EndBlock cfiCond10
          CFI EndBlock cfiPicker11

        RSEG BANKED_CODE:HUGECODE:NOROOT(0)
?Subroutine5:
          CFI Block cfiCond12 Using cfiCommon0
          CFI Function SampleApp_ProcessEvent
          CFI Conditional ??CrossCallReturnLabel_7
          CFI R6 load(1, XDATA, add(CFA_XSP16, literal(-12)))
          CFI VB load(1, XDATA, add(CFA_XSP16, literal(-11)))
          CFI V0 load(1, XDATA, add(CFA_XSP16, literal(-10)))
          CFI V1 load(1, XDATA, add(CFA_XSP16, literal(-9)))
          CFI V2 load(1, XDATA, add(CFA_XSP16, literal(-8)))
          CFI V3 load(1, XDATA, add(CFA_XSP16, literal(-7)))
          CFI R7 load(1, XDATA, add(CFA_XSP16, literal(-6)))
          CFI ?RET_LOW load(1, XDATA, add(CFA_XSP16, literal(-5)))
          CFI ?RET_HIGH load(1, XDATA, add(CFA_XSP16, literal(-4)))
          CFI ?BRET_EXT load(1, XDATA, add(CFA_XSP16, literal(-3)))
          CFI DPL0 load(1, XDATA, add(CFA_XSP16, literal(-2)))
          CFI DPH0 load(1, XDATA, add(CFA_XSP16, literal(-1)))
          CFI CFA_SP SP+-2
          CFI CFA_XSP16 add(XSP16, 32)
          CFI Block cfiCond13 Using cfiCommon0
          CFI (cfiCond13) Function SampleApp_ProcessEvent
          CFI (cfiCond13) Conditional ??CrossCallReturnLabel_8
          CFI (cfiCond13) R6 load(1, XDATA, add(CFA_XSP16, literal(-12)))
          CFI (cfiCond13) VB load(1, XDATA, add(CFA_XSP16, literal(-11)))
          CFI (cfiCond13) V0 load(1, XDATA, add(CFA_XSP16, literal(-10)))
          CFI (cfiCond13) V1 load(1, XDATA, add(CFA_XSP16, literal(-9)))
          CFI (cfiCond13) V2 load(1, XDATA, add(CFA_XSP16, literal(-8)))
          CFI (cfiCond13) V3 load(1, XDATA, add(CFA_XSP16, literal(-7)))
          CFI (cfiCond13) R7 load(1, XDATA, add(CFA_XSP16, literal(-6)))
          CFI (cfiCond13) ?RET_LOW load(1, XDATA, add(CFA_XSP16, literal(-5)))
          CFI (cfiCond13) ?RET_HIGH load(1, XDATA, add(CFA_XSP16, literal(-4)))
          CFI (cfiCond13) ?BRET_EXT load(1, XDATA, add(CFA_XSP16, literal(-3)))
          CFI (cfiCond13) DPL0 load(1, XDATA, add(CFA_XSP16, literal(-2)))
          CFI (cfiCond13) DPH0 load(1, XDATA, add(CFA_XSP16, literal(-1)))
          CFI (cfiCond13) CFA_SP SP+-2
          CFI (cfiCond13) CFA_XSP16 add(XSP16, 32)
          CFI Block cfiCond14 Using cfiCommon0
          CFI (cfiCond14) Function SampleApp_ProcessEvent
          CFI (cfiCond14) Conditional ??CrossCallReturnLabel_9, ??CrossCallReturnLabel_0
          CFI (cfiCond14) R6 load(1, XDATA, add(CFA_XSP16, literal(-12)))
          CFI (cfiCond14) VB load(1, XDATA, add(CFA_XSP16, literal(-11)))
          CFI (cfiCond14) V0 load(1, XDATA, add(CFA_XSP16, literal(-10)))
          CFI (cfiCond14) V1 load(1, XDATA, add(CFA_XSP16, literal(-9)))
          CFI (cfiCond14) V2 load(1, XDATA, add(CFA_XSP16, literal(-8)))
          CFI (cfiCond14) V3 load(1, XDATA, add(CFA_XSP16, literal(-7)))
          CFI (cfiCond14) R7 load(1, XDATA, add(CFA_XSP16, literal(-6)))
          CFI (cfiCond14) ?RET_LOW load(1, XDATA, add(CFA_XSP16, literal(-5)))
          CFI (cfiCond14) ?RET_HIGH load(1, XDATA, add(CFA_XSP16, literal(-4)))
          CFI (cfiCond14) ?BRET_EXT load(1, XDATA, add(CFA_XSP16, literal(-3)))
          CFI (cfiCond14) DPL0 load(1, XDATA, add(CFA_XSP16, literal(-2)))
          CFI (cfiCond14) DPH0 load(1, XDATA, add(CFA_XSP16, literal(-1)))
          CFI (cfiCond14) CFA_SP SP+-4
          CFI (cfiCond14) CFA_XSP16 add(XSP16, 32)
          CFI Block cfiCond15 Using cfiCommon0
          CFI (cfiCond15) Function SampleApp_ProcessEvent
          CFI (cfiCond15) Conditional ??CrossCallReturnLabel_9, ??CrossCallReturnLabel_1
          CFI (cfiCond15) R6 load(1, XDATA, add(CFA_XSP16, literal(-12)))
          CFI (cfiCond15) VB load(1, XDATA, add(CFA_XSP16, literal(-11)))
          CFI (cfiCond15) V0 load(1, XDATA, add(CFA_XSP16, literal(-10)))
          CFI (cfiCond15) V1 load(1, XDATA, add(CFA_XSP16, literal(-9)))
          CFI (cfiCond15) V2 load(1, XDATA, add(CFA_XSP16, literal(-8)))
          CFI (cfiCond15) V3 load(1, XDATA, add(CFA_XSP16, literal(-7)))
          CFI (cfiCond15) R7 load(1, XDATA, add(CFA_XSP16, literal(-6)))
          CFI (cfiCond15) ?RET_LOW load(1, XDATA, add(CFA_XSP16, literal(-5)))
          CFI (cfiCond15) ?RET_HIGH load(1, XDATA, add(CFA_XSP16, literal(-4)))
          CFI (cfiCond15) ?BRET_EXT load(1, XDATA, add(CFA_XSP16, literal(-3)))
          CFI (cfiCond15) DPL0 load(1, XDATA, add(CFA_XSP16, literal(-2)))
          CFI (cfiCond15) DPH0 load(1, XDATA, add(CFA_XSP16, literal(-1)))
          CFI (cfiCond15) CFA_SP SP+-4
          CFI (cfiCond15) CFA_XSP16 add(XSP16, 32)
          CFI Block cfiCond16 Using cfiCommon0
          CFI (cfiCond16) Function SampleApp_ProcessEvent
          CFI (cfiCond16) Conditional ??CrossCallReturnLabel_9, ??CrossCallReturnLabel_2
          CFI (cfiCond16) R6 load(1, XDATA, add(CFA_XSP16, literal(-12)))
          CFI (cfiCond16) VB load(1, XDATA, add(CFA_XSP16, literal(-11)))
          CFI (cfiCond16) V0 load(1, XDATA, add(CFA_XSP16, literal(-10)))
          CFI (cfiCond16) V1 load(1, XDATA, add(CFA_XSP16, literal(-9)))
          CFI (cfiCond16) V2 load(1, XDATA, add(CFA_XSP16, literal(-8)))
          CFI (cfiCond16) V3 load(1, XDATA, add(CFA_XSP16, literal(-7)))
          CFI (cfiCond16) R7 load(1, XDATA, add(CFA_XSP16, literal(-6)))
          CFI (cfiCond16) ?RET_LOW load(1, XDATA, add(CFA_XSP16, literal(-5)))
          CFI (cfiCond16) ?RET_HIGH load(1, XDATA, add(CFA_XSP16, literal(-4)))
          CFI (cfiCond16) ?BRET_EXT load(1, XDATA, add(CFA_XSP16, literal(-3)))
          CFI (cfiCond16) DPL0 load(1, XDATA, add(CFA_XSP16, literal(-2)))
          CFI (cfiCond16) DPH0 load(1, XDATA, add(CFA_XSP16, literal(-1)))
          CFI (cfiCond16) CFA_SP SP+-4
          CFI (cfiCond16) CFA_XSP16 add(XSP16, 32)
          CFI Block cfiPicker17 Using cfiCommon1
          CFI (cfiPicker17) NoFunction
          CFI (cfiPicker17) Picker
        MOV       R3,#0x0
        MOV       DPTR,#SampleApp_TaskID
        MOVX      A,@DPTR
        MOV       R1,A
        LCALL     `??osal_start_timerEx::?relay`; Banked call to: osal_start_timerEx
        RET
          CFI EndBlock cfiCond12
          CFI EndBlock cfiCond13
          CFI EndBlock cfiCond14
          CFI EndBlock cfiCond15
          CFI EndBlock cfiCond16
          CFI EndBlock cfiPicker17
//  378 
//  379 /*********************************************************************
//  380  * @fn      SerialApp_ProcessMSGCmd
//  381  *
//  382  * @brief   Data message processor callback. This function processes
//  383  *          any incoming data - probably from other devices. Based
//  384  *          on the cluster ID, perform the intended action.
//  385  *
//  386  * @param   pkt - pointer to the incoming message packet
//  387  *
//  388  * @return  TRUE if the 'pkt' parameter is being used and will be freed later,
//  389  *          FALSE otherwise.
//  390  */
//  391 void SampleApp_ProcessMSGCmd( afIncomingMSGPacket_t *pkt )
//  392 {
//  393   uint8 buff[20]={0};
//  394 
//  395   switch ( pkt->clusterId )
//  396   {
//  397   // 接收终端上传的温度数据
//  398   case SAMPLEAPP_P2P_CLUSTERID:
//  399 #ifdef ZDO_COORDINATOR
//  400     {
//  401         end_temp=pkt->cmd.Data[0]; //终端温度
//  402         end_hum=pkt->cmd.Data[1]; //终端湿度
//  403 
//  404         end_light = pkt->cmd.Data[2]; //终端亮度
//  405         cor_led3 = P1_4; //终端LED3状态
//  406         cor_led3 = !cor_led3;
//  407         sprintf(buff, "T:%d", end_temp);
//  408         HalLcdWriteString(buff, HAL_LCD_LINE_3); //LCD显示
//  409 
//  410         sprintf(buff, "H:%d", end_hum);
//  411         HalLcdWriteString(buff, HAL_LCD_LINE_4); //LCD显示
//  412     }
//  413 #endif
//  414     break;
//  415 
//  416   case SAMPLEAPP_PERIODIC_CLUSTERID:
//  417 
//  418     break;
//  419 
//  420     default:
//  421       break;
//  422   }
//  423 }
//  424 
//  425 #ifdef ZDO_COORDINATOR
//  426 
//  427 //发送MQTT数据

        RSEG BANKED_CODE:HUGECODE:NOROOT(0)
//  428 void ESP8266_SendData(char* buff, int len)
ESP8266_SendData:
          CFI Block cfiBlock18 Using cfiCommon0
          CFI Function ESP8266_SendData
        CODE
//  429 {
        FUNCALL ESP8266_SendData, HalUARTWrite
        LOCFRAME ISTACK, 2, STACK
        LOCFRAME PSTACK, 0, STACK
        LOCFRAME XSTACK, 0, STACK
        LOCFRAME IOVERLAY, 0, STATIC
        LOCFRAME DOVERLAY, 0, STATIC
        ARGFRAME ISTACK, 2, STACK
        ARGFRAME PSTACK, 0, STACK
        ARGFRAME XSTACK, 0, STACK
        ARGFRAME IOVERLAY, 0, STATIC
        ARGFRAME DOVERLAY, 0, STATIC
        PUSH      DPL
          CFI DPL0 Frame(CFA_SP, 4)
          CFI CFA_SP SP+-4
        PUSH      DPH
          CFI DPH0 Frame(CFA_SP, 5)
          CFI CFA_SP SP+-5
        ; Saved register size: 2
        ; Auto size: 0
//  430     if(len==0) return;
        MOV       A,R4
        ORL       A,R5
        JZ        ??ESP8266_SendData_0
//  431 
//  432     HalUARTWrite(0,buff, len);
        ; Setup parameters for call to function HalUARTWrite
        MOV       R1,#0x0
        LCALL     `??HalUARTWrite::?relay`; Banked call to: HalUARTWrite
//  433 }
??ESP8266_SendData_0:
        POP       DPH
          CFI DPH0 SameValue
          CFI CFA_SP SP+-4
        POP       DPL
          CFI DPL0 SameValue
          CFI CFA_SP SP+-3
        LJMP      ?BRET
          CFI EndBlock cfiBlock18
//  434 
//  435 
//  436 //接收到下发命令，或者接收到订阅的消息
//  437 //topic:收到的主题
//  438 //cmd::主题对应的内容

        RSEG BANKED_CODE:HUGECODE:NOROOT(0)
//  439 void mqtt_rx(uint8* topic, uint8* cmd)
mqtt_rx:
          CFI Block cfiBlock19 Using cfiCommon0
          CFI Function mqtt_rx
        CODE
//  440 {
        FUNCALL mqtt_rx, strstr
        LOCFRAME ISTACK, 0, STACK
        LOCFRAME PSTACK, 0, STACK
        LOCFRAME XSTACK, 12, STACK
        LOCFRAME IOVERLAY, 0, STATIC
        LOCFRAME DOVERLAY, 0, STATIC
        ARGFRAME ISTACK, 0, STACK
        ARGFRAME PSTACK, 0, STACK
        ARGFRAME XSTACK, 12, STACK
        ARGFRAME IOVERLAY, 0, STATIC
        ARGFRAME DOVERLAY, 0, STATIC
        FUNCALL mqtt_rx, strstr
        LOCFRAME ISTACK, 0, STACK
        LOCFRAME PSTACK, 0, STACK
        LOCFRAME XSTACK, 12, STACK
        LOCFRAME IOVERLAY, 0, STATIC
        LOCFRAME DOVERLAY, 0, STATIC
        ARGFRAME ISTACK, 0, STACK
        ARGFRAME PSTACK, 0, STACK
        ARGFRAME XSTACK, 12, STACK
        ARGFRAME IOVERLAY, 0, STATIC
        ARGFRAME DOVERLAY, 0, STATIC
        FUNCALL mqtt_rx, HalLedBlink
        LOCFRAME ISTACK, 0, STACK
        LOCFRAME PSTACK, 0, STACK
        LOCFRAME XSTACK, 12, STACK
        LOCFRAME IOVERLAY, 0, STATIC
        LOCFRAME DOVERLAY, 0, STATIC
        ARGFRAME ISTACK, 0, STACK
        ARGFRAME PSTACK, 0, STACK
        ARGFRAME XSTACK, 12, STACK
        ARGFRAME IOVERLAY, 0, STATIC
        ARGFRAME DOVERLAY, 0, STATIC
        REQUIRE ?V0
        REQUIRE ?V1
        REQUIRE ?V2
        REQUIRE ?V3
        MOV       A,#-0xc
        LCALL     ?BANKED_ENTER_XDATA
          CFI DPH0 load(1, XDATA, add(CFA_XSP16, literal(-1)))
          CFI DPL0 load(1, XDATA, add(CFA_XSP16, literal(-2)))
          CFI ?BRET_EXT load(1, XDATA, add(CFA_XSP16, literal(-3)))
          CFI ?RET_HIGH load(1, XDATA, add(CFA_XSP16, literal(-4)))
          CFI ?RET_LOW load(1, XDATA, add(CFA_XSP16, literal(-5)))
          CFI R7 load(1, XDATA, add(CFA_XSP16, literal(-6)))
          CFI V3 load(1, XDATA, add(CFA_XSP16, literal(-7)))
          CFI V2 load(1, XDATA, add(CFA_XSP16, literal(-8)))
          CFI V1 load(1, XDATA, add(CFA_XSP16, literal(-9)))
          CFI V0 load(1, XDATA, add(CFA_XSP16, literal(-10)))
          CFI VB load(1, XDATA, add(CFA_XSP16, literal(-11)))
          CFI R6 load(1, XDATA, add(CFA_XSP16, literal(-12)))
          CFI CFA_SP SP+0
          CFI CFA_XSP16 add(XSP16, 12)
        ; Saved register size: 12
        ; Auto size: 0
        MOV       A,R4
        MOV       R6,A
        MOV       A,R5
        MOV       R7,A
//  441     char *ptr_led3_on = NULL;
//  442     char *ptr_led3_off = NULL;
//  443   
//  444     char *this_topic = NULL;
//  445     //协调器收到数据后
//  446     //根据设计决定数据如何处理
//  447 
//  448     if(topic == NULL || cmd==NULL) return;
        MOV       A,R2
        ORL       A,R3
        JZ        ??mqtt_rx_0
        MOV       A,R4
        ORL       A,R7
        JZ        ??mqtt_rx_0
//  449     
//  450     //我们只关心内容，即只关心CMD，不处理主题
//  451 
//  452     ptr_led3_on = strstr((char *)cmd, "\"led\":1");
        ; Setup parameters for call to function strstr
        MOV       R4,#`?<Constant "\\"led\\":1">` & 0xff
        MOV       R5,#(`?<Constant "\\"led\\":1">` >> 8) & 0xff
        MOV       A,R6
        MOV       R2,A
        MOV       A,R7
        MOV       R3,A
        LCALL     `??strstr::?relay`; Banked call to: strstr
        MOV       ?V0,R2
        MOV       ?V1,R3
//  453     ptr_led3_off = strstr((char *)cmd, "\"led\":0");
        ; Setup parameters for call to function strstr
        MOV       R4,#`?<Constant "\\"led\\":0">` & 0xff
        MOV       R5,#(`?<Constant "\\"led\\":0">` >> 8) & 0xff
        MOV       A,R6
        MOV       R2,A
        MOV       A,R7
        MOV       R3,A
        LCALL     `??strstr::?relay`; Banked call to: strstr
        MOV       ?V3,R3
        MOV       R1,?V3
//  454 
//  455     if(ptr_led3_on!=NULL)
        MOV       A,?V0
        ORL       A,?V1
        JZ        ??mqtt_rx_1
//  456     {
//  457       P1_4=0;//D3亮
        CLR       0x90.4
//  458       cor_led3 = 1;
        MOV       DPTR,#cor_led3
        MOV       A,#0x1
        SJMP      ??mqtt_rx_2
//  459     }
//  460     else if(ptr_led3_off!=NULL)
??mqtt_rx_1:
        MOV       A,R2
        ORL       A,R1
        JZ        ??mqtt_rx_3
//  461     {
//  462       P1_4=1;//D3灭
        SETB      0x90.4
//  463       cor_led3 = 0;
        MOV       DPTR,#cor_led3
        CLR       A
??mqtt_rx_2:
        MOVX      @DPTR,A
//  464     }
//  465     HalLedBlink (HAL_LED_1, 5, 50, 500);
??mqtt_rx_3:
        ; Setup parameters for call to function HalLedBlink
        MOV       R4,#-0xc
        MOV       R5,#0x1
        MOV       R3,#0x32
        MOV       R2,#0x5
        MOV       R1,#0x1
        LCALL     `??HalLedBlink::?relay`; Banked call to: HalLedBlink
//  466   
//  467 }
??mqtt_rx_0:
        LJMP      ?Subroutine1 & 0xFFFF
          CFI EndBlock cfiBlock19
        REQUIRE _A_P1
//  468 
//  469 
//  470 
//  471 void OneNet_publish_topic()
//  472 {
//  473     uint8 buff[20]={0};
//  474 
//  475     sprintf(buff, "t:%d,h:%d", end_temp, end_hum);
//  476 
//  477     /*  发布主题为"hello_topic_public"，消息为温度和湿度 */
//  478     if(0 == mqtt_publish_topic("hello_topic_public", buff))
//  479     {;}
//  480 }
//  481 
//  482 
//  483 
//  484 /*********************************************************************
//  485  * @fn      SampleApp_CallBack
//  486  *
//  487  * @brief   Send data OTA.
//  488  *
//  489  * @param   port - UART port.
//  490  * @param   event - the UART port event flag.
//  491  *
//  492  * @return  none
//  493  */

        RSEG XDATA_Z:XDATA:NOROOT(0)
        DATA32
//  494 uint32 lastReadMs=0;
lastReadMs:
        DS 4
        REQUIRE __INIT_XDATA_Z

        RSEG BANKED_CODE:HUGECODE:NOROOT(0)
//  495 void SampleApp_CallBack(uint8 port, uint8 event)
SampleApp_CallBack:
          CFI Block cfiBlock20 Using cfiCommon0
          CFI Function SampleApp_CallBack
        CODE
//  496 {
        FUNCALL SampleApp_CallBack, HalUARTRead
        LOCFRAME ISTACK, 0, STACK
        LOCFRAME PSTACK, 0, STACK
        LOCFRAME XSTACK, 16, STACK
        LOCFRAME IOVERLAY, 0, STATIC
        LOCFRAME DOVERLAY, 0, STATIC
        ARGFRAME ISTACK, 0, STACK
        ARGFRAME PSTACK, 0, STACK
        ARGFRAME XSTACK, 16, STACK
        ARGFRAME IOVERLAY, 0, STATIC
        ARGFRAME DOVERLAY, 0, STATIC
        FUNCALL SampleApp_CallBack, osal_memset
        LOCFRAME ISTACK, 0, STACK
        LOCFRAME PSTACK, 0, STACK
        LOCFRAME XSTACK, 16, STACK
        LOCFRAME IOVERLAY, 0, STATIC
        LOCFRAME DOVERLAY, 0, STATIC
        ARGFRAME ISTACK, 0, STACK
        ARGFRAME PSTACK, 0, STACK
        ARGFRAME XSTACK, 16, STACK
        ARGFRAME IOVERLAY, 0, STATIC
        ARGFRAME DOVERLAY, 0, STATIC
        FUNCALL SampleApp_CallBack, HalUARTRead
        LOCFRAME ISTACK, 0, STACK
        LOCFRAME PSTACK, 0, STACK
        LOCFRAME XSTACK, 16, STACK
        LOCFRAME IOVERLAY, 0, STATIC
        LOCFRAME DOVERLAY, 0, STATIC
        ARGFRAME ISTACK, 0, STACK
        ARGFRAME PSTACK, 0, STACK
        ARGFRAME XSTACK, 16, STACK
        ARGFRAME IOVERLAY, 0, STATIC
        ARGFRAME DOVERLAY, 0, STATIC
        FUNCALL SampleApp_CallBack, MQTT_UnPacketRecv
        LOCFRAME ISTACK, 0, STACK
        LOCFRAME PSTACK, 0, STACK
        LOCFRAME XSTACK, 16, STACK
        LOCFRAME IOVERLAY, 0, STATIC
        LOCFRAME DOVERLAY, 0, STATIC
        ARGFRAME ISTACK, 0, STACK
        ARGFRAME PSTACK, 0, STACK
        ARGFRAME XSTACK, 16, STACK
        ARGFRAME IOVERLAY, 0, STATIC
        ARGFRAME DOVERLAY, 0, STATIC
        FUNCALL SampleApp_CallBack, MQTT_UnPacketConnectAck
        LOCFRAME ISTACK, 0, STACK
        LOCFRAME PSTACK, 0, STACK
        LOCFRAME XSTACK, 16, STACK
        LOCFRAME IOVERLAY, 0, STATIC
        LOCFRAME DOVERLAY, 0, STATIC
        ARGFRAME ISTACK, 0, STACK
        ARGFRAME PSTACK, 0, STACK
        ARGFRAME XSTACK, 16, STACK
        ARGFRAME IOVERLAY, 0, STATIC
        ARGFRAME DOVERLAY, 0, STATIC
        FUNCALL SampleApp_CallBack, mqtt_subscribe_topic
        LOCFRAME ISTACK, 0, STACK
        LOCFRAME PSTACK, 0, STACK
        LOCFRAME XSTACK, 16, STACK
        LOCFRAME IOVERLAY, 0, STATIC
        LOCFRAME DOVERLAY, 0, STATIC
        ARGFRAME ISTACK, 0, STACK
        ARGFRAME PSTACK, 0, STACK
        ARGFRAME XSTACK, 16, STACK
        ARGFRAME IOVERLAY, 0, STATIC
        ARGFRAME DOVERLAY, 0, STATIC
        FUNCALL SampleApp_CallBack, osal_GetSystemClock
        LOCFRAME ISTACK, 0, STACK
        LOCFRAME PSTACK, 0, STACK
        LOCFRAME XSTACK, 16, STACK
        LOCFRAME IOVERLAY, 0, STATIC
        LOCFRAME DOVERLAY, 0, STATIC
        ARGFRAME ISTACK, 0, STACK
        ARGFRAME PSTACK, 0, STACK
        ARGFRAME XSTACK, 16, STACK
        ARGFRAME IOVERLAY, 0, STATIC
        ARGFRAME DOVERLAY, 0, STATIC
        FUNCALL SampleApp_CallBack, osal_memset
        LOCFRAME ISTACK, 0, STACK
        LOCFRAME PSTACK, 0, STACK
        LOCFRAME XSTACK, 16, STACK
        LOCFRAME IOVERLAY, 0, STATIC
        LOCFRAME DOVERLAY, 0, STATIC
        ARGFRAME ISTACK, 0, STACK
        ARGFRAME PSTACK, 0, STACK
        ARGFRAME XSTACK, 16, STACK
        ARGFRAME IOVERLAY, 0, STATIC
        ARGFRAME DOVERLAY, 0, STATIC
        FUNCALL SampleApp_CallBack, HalUARTRead
        LOCFRAME ISTACK, 0, STACK
        LOCFRAME PSTACK, 0, STACK
        LOCFRAME XSTACK, 16, STACK
        LOCFRAME IOVERLAY, 0, STATIC
        LOCFRAME DOVERLAY, 0, STATIC
        ARGFRAME ISTACK, 0, STACK
        ARGFRAME PSTACK, 0, STACK
        ARGFRAME XSTACK, 16, STACK
        ARGFRAME IOVERLAY, 0, STATIC
        ARGFRAME DOVERLAY, 0, STATIC
        FUNCALL SampleApp_CallBack, debug
        LOCFRAME ISTACK, 0, STACK
        LOCFRAME PSTACK, 0, STACK
        LOCFRAME XSTACK, 18, STACK
        LOCFRAME IOVERLAY, 0, STATIC
        LOCFRAME DOVERLAY, 0, STATIC
        ARGFRAME ISTACK, 0, STACK
        ARGFRAME PSTACK, 0, STACK
        ARGFRAME XSTACK, 18, STACK
        ARGFRAME IOVERLAY, 0, STATIC
        ARGFRAME DOVERLAY, 0, STATIC
        FUNCALL SampleApp_CallBack, OneNet_RevPro
        LOCFRAME ISTACK, 0, STACK
        LOCFRAME PSTACK, 0, STACK
        LOCFRAME XSTACK, 16, STACK
        LOCFRAME IOVERLAY, 0, STATIC
        LOCFRAME DOVERLAY, 0, STATIC
        ARGFRAME ISTACK, 0, STACK
        ARGFRAME PSTACK, 0, STACK
        ARGFRAME XSTACK, 16, STACK
        ARGFRAME IOVERLAY, 0, STATIC
        ARGFRAME DOVERLAY, 0, STATIC
        FUNCALL SampleApp_CallBack, osal_memset
        LOCFRAME ISTACK, 0, STACK
        LOCFRAME PSTACK, 0, STACK
        LOCFRAME XSTACK, 16, STACK
        LOCFRAME IOVERLAY, 0, STATIC
        LOCFRAME DOVERLAY, 0, STATIC
        ARGFRAME ISTACK, 0, STACK
        ARGFRAME PSTACK, 0, STACK
        ARGFRAME XSTACK, 16, STACK
        ARGFRAME IOVERLAY, 0, STATIC
        ARGFRAME DOVERLAY, 0, STATIC
        REQUIRE ?V0
        REQUIRE ?V1
        REQUIRE ?V2
        REQUIRE ?V3
        REQUIRE ?V4
        REQUIRE ?V5
        REQUIRE ?V6
        REQUIRE ?V7
        MOV       A,#-0x10
        LCALL     ?BANKED_ENTER_XDATA
          CFI DPH0 load(1, XDATA, add(CFA_XSP16, literal(-1)))
          CFI DPL0 load(1, XDATA, add(CFA_XSP16, literal(-2)))
          CFI ?BRET_EXT load(1, XDATA, add(CFA_XSP16, literal(-3)))
          CFI ?RET_HIGH load(1, XDATA, add(CFA_XSP16, literal(-4)))
          CFI ?RET_LOW load(1, XDATA, add(CFA_XSP16, literal(-5)))
          CFI R7 load(1, XDATA, add(CFA_XSP16, literal(-6)))
          CFI V7 load(1, XDATA, add(CFA_XSP16, literal(-7)))
          CFI V6 load(1, XDATA, add(CFA_XSP16, literal(-8)))
          CFI V5 load(1, XDATA, add(CFA_XSP16, literal(-9)))
          CFI V4 load(1, XDATA, add(CFA_XSP16, literal(-10)))
          CFI V3 load(1, XDATA, add(CFA_XSP16, literal(-11)))
          CFI V2 load(1, XDATA, add(CFA_XSP16, literal(-12)))
          CFI V1 load(1, XDATA, add(CFA_XSP16, literal(-13)))
          CFI V0 load(1, XDATA, add(CFA_XSP16, literal(-14)))
          CFI VB load(1, XDATA, add(CFA_XSP16, literal(-15)))
          CFI R6 load(1, XDATA, add(CFA_XSP16, literal(-16)))
          CFI CFA_SP SP+0
          CFI CFA_XSP16 add(XSP16, 16)
        ; Saved register size: 16
        ; Auto size: 0
//  497   (void)port;
//  498 
//  499   if(0==onenet_login_ok)
        MOV       DPTR,#onenet_login_ok
        MOVX      A,@DPTR
        JNZ       ??SampleApp_CallBack_0
//  500   {
//  501     HalUARTRead(SAMPLE_APP_PORT, SampleApp_RxBuf, SAMPLE_APP_RX_MAX);
        ; Setup parameters for call to function HalUARTRead
        MOV       R4,#-0x38
        MOV       R5,#0x0
        MOV       R2,#SampleApp_RxBuf & 0xff
        MOV       R3,#(SampleApp_RxBuf >> 8) & 0xff
        MOV       R1,#0x0
        LCALL     `??HalUARTRead::?relay`; Banked call to: HalUARTRead
//  502     SampleApp_RxLen=0;
        MOV       DPTR,#SampleApp_RxLen
        CLR       A
        MOVX      @DPTR,A
        INC       DPTR
        MOVX      @DPTR,A
//  503     osal_memset(SampleApp_RxBuf, 0, SAMPLE_APP_RX_MAX);
        ; Setup parameters for call to function osal_memset
        MOV       R4,#-0x38
        LJMP      ??SampleApp_CallBack_1 & 0xFFFF
//  504   }
//  505   else if(1==onenet_login_ok)//onenet注册成功 0:未注册，1：注册中　2：注册成功
??SampleApp_CallBack_0:
        XRL       A,#0x1
        JNZ       ??SampleApp_CallBack_2
//  506   {
//  507     //一个一个字节读
//  508     SampleApp_RxLen += HalUARTRead(SAMPLE_APP_PORT, SampleApp_RxBuf+SampleApp_RxLen, 4);
        ; Setup parameters for call to function HalUARTRead
        MOV       R4,#0x4
        MOV       R5,#0x0
        MOV       DPTR,#SampleApp_RxLen
        MOVX      A,@DPTR
        ADD       A,#SampleApp_RxBuf & 0xff
        MOV       R2,A
        INC       DPTR
        MOVX      A,@DPTR
        ADDC      A,#(SampleApp_RxBuf >> 8) & 0xff
        MOV       R3,A
        MOV       R1,#0x0
        LCALL     `??HalUARTRead::?relay`; Banked call to: HalUARTRead
        MOV       ?V1,R3
        MOV       R1,?V1
        MOV       DPTR,#SampleApp_RxLen
        MOVX      A,@DPTR
        ADD       A,R2
        MOVX      @DPTR,A
        INC       DPTR
        MOVX      A,@DPTR
        ADDC      A,R1
        MOVX      @DPTR,A
//  509 
//  510     //判断是否是注册成功
//  511     if(SampleApp_RxLen>=4)
        MOV       DPTR,#SampleApp_RxLen
        CLR       C
        MOVX      A,@DPTR
        SUBB      A,#0x4
        INC       DPTR
        MOVX      A,@DPTR
        SUBB      A,#0x0
        JC        ??SampleApp_CallBack_3
//  512     {
//  513 //        debug("rx len=%d(%x,%x,%x,%x)\r\n", SampleApp_RxLen,SampleApp_RxBuf[0],SampleApp_RxBuf[1],SampleApp_RxBuf[2],SampleApp_RxBuf[3]);
//  514 
//  515         //等待接入响应
//  516         if(MQTT_UnPacketRecv(SampleApp_RxBuf) == MQTT_PKT_CONNACK)
        ; Setup parameters for call to function MQTT_UnPacketRecv
        MOV       R2,#SampleApp_RxBuf & 0xff
        MOV       R3,#(SampleApp_RxBuf >> 8) & 0xff
        LCALL     `??MQTT_UnPacketRecv::?relay`; Banked call to: MQTT_UnPacketRecv
        MOV       A,R1
        XRL       A,#0x2
        JNZ       ??SampleApp_CallBack_3
//  517         {
//  518             if(0==MQTT_UnPacketConnectAck(SampleApp_RxBuf))
        ; Setup parameters for call to function MQTT_UnPacketConnectAck
        MOV       R2,#SampleApp_RxBuf & 0xff
        MOV       R3,#(SampleApp_RxBuf >> 8) & 0xff
        LCALL     `??MQTT_UnPacketConnectAck::?relay`; Banked call to: MQTT_UnPacketConnectAck
        MOV       A,R1
        JNZ       ??SampleApp_CallBack_3
//  519             {
//  520                 onenet_login_ok=2;//注册成功
        MOV       DPTR,#onenet_login_ok
        MOV       A,#0x2
        LCALL     ?Subroutine3 & 0xFFFF
//  521                 SampleApp_RxLen=0;
//  522 
//  523                 //请求订阅主题
//  524                 if(mqtt_subscribe_topic(g_mqtt_topics_set, 1) == 0)
??CrossCallReturnLabel_4:
        ; Setup parameters for call to function mqtt_subscribe_topic
        MOV       R1,#0x1
        MOV       R2,#g_mqtt_topics_set & 0xff
        MOV       R3,#(g_mqtt_topics_set >> 8) & 0xff
        LCALL     `??mqtt_subscribe_topic::?relay`; Banked call to: mqtt_subscribe_topic
        JC        ??SampleApp_CallBack_3
//  525                 {
//  526                   //订阅成功P1_4  D3变为亮
//  527                   P1_4 = 0;
        CLR       0x90.4
//  528                 }
//  529 
//  530             }
//  531         }
//  532     }
//  533 
//  534     //数组满，清0
//  535     if(SampleApp_RxLen>=SAMPLE_APP_RX_MAX)
??SampleApp_CallBack_3:
        MOV       DPTR,#SampleApp_RxLen
        CLR       C
        MOVX      A,@DPTR
        SUBB      A,#-0x38
        INC       DPTR
        MOVX      A,@DPTR
        SUBB      A,#0x0
        JNC       $+5
        LJMP      ??SampleApp_CallBack_4 & 0xFFFF
//  536     {
//  537         SampleApp_RxLen=0;
        MOV       DPTR,#SampleApp_RxLen
        CLR       A
        MOVX      @DPTR,A
        INC       DPTR
        MOVX      @DPTR,A
        LJMP      ??SampleApp_CallBack_4 & 0xFFFF
//  538     }
//  539   }
//  540   else if(2==onenet_login_ok)
??SampleApp_CallBack_2:
        MOVX      A,@DPTR
        XRL       A,#0x2
        JZ        $+5
        LJMP      ??SampleApp_CallBack_4 & 0xFFFF
//  541   {
//  542       //如果是注册成功，读服务器的控制命令
//  543 
//  544       uint32 curMs=osal_GetSystemClock();
        ; Setup parameters for call to function osal_GetSystemClock
        LCALL     `??osal_GetSystemClock::?relay`; Banked call to: osal_GetSystemClock
        MOV       ?V4,R2
        MOV       ?V5,R3
        MOV       ?V6,R4
        MOV       ?V7,R5
//  545 
//  546       if((curMs-lastReadMs)<1000) return;
        MOV       DPTR,#__Constant_3e8
        PUSH      DPL
          CFI CFA_SP SP+-1
        MOV       ?V0,R2
        MOV       ?V1,R3
        MOV       ?V2,R4
        MOV       ?V3,R5
        MOV       DPTR,#lastReadMs
        MOV       R0,#?V0
        LCALL     ?L_SUB_X
        MOV       DPH,#(__Constant_3e8 >> 8) & 0xff
        POP       DPL
          CFI CFA_SP SP+0
        MOV       R0,#?V0
        LCALL     ?UL_GE_X
        JNC       ??SampleApp_CallBack_4
//  547 
//  548       lastReadMs=curMs;
        MOV       DPTR,#lastReadMs
        MOV       R0,#?V4
        LCALL     ?L_MOV_TO_X
//  549       SampleApp_RxLen=0;
        MOV       DPTR,#SampleApp_RxLen
        CLR       A
        MOVX      @DPTR,A
        INC       DPTR
        MOVX      @DPTR,A
//  550       osal_memset(SampleApp_RxBuf, 0, SAMPLE_APP_RX_MAX+1);
        ; Setup parameters for call to function osal_memset
        MOV       R4,#-0x37
        MOV       R5,A
        MOV       R1,A
        MOV       R2,#SampleApp_RxBuf & 0xff
        MOV       R3,#(SampleApp_RxBuf >> 8) & 0xff
        LCALL     `??osal_memset::?relay`; Banked call to: osal_memset
//  551       SampleApp_RxLen = HalUARTRead(SAMPLE_APP_PORT, SampleApp_RxBuf, SAMPLE_APP_RX_MAX); //读长200的数据
        ; Setup parameters for call to function HalUARTRead
        MOV       R4,#-0x38
        MOV       R5,#0x0
        MOV       R2,#SampleApp_RxBuf & 0xff
        MOV       R3,#(SampleApp_RxBuf >> 8) & 0xff
        MOV       R1,#0x0
        LCALL     `??HalUARTRead::?relay`; Banked call to: HalUARTRead
        MOV       DPTR,#SampleApp_RxLen
        MOV       A,R2
        MOVX      @DPTR,A
        INC       DPTR
        MOV       A,R3
        MOVX      @DPTR,A
//  552 
//  553 
//  554 
//  555       if(SampleApp_RxLen>0)
        MOV       R1,A
        MOV       A,R2
        ORL       A,R1
        JZ        ??SampleApp_CallBack_4
//  556       {
//  557         debug("rx len=%d.\r\n", SampleApp_RxLen);
        ; Setup parameters for call to function debug
        MOV       DPTR,#SampleApp_RxLen
        LCALL     ?PUSH_XSTACK8_X_TWO
          CFI CFA_XSP16 add(XSP16, 18)
        MOV       R2,#`?<Constant "rx len=%d.\\r\\n">` & 0xff
        MOV       R3,#(`?<Constant "rx len=%d.\\r\\n">` >> 8) & 0xff
        LCALL     `??debug::?relay`; Banked call to: debug
        MOV       A,#0x2
        LCALL     ?DEALLOC_XSTACK8
          CFI CFA_XSP16 add(XSP16, 16)
//  558         //接收消息
//  559         OneNet_RevPro(SampleApp_RxBuf); 
        ; Setup parameters for call to function OneNet_RevPro
        MOV       R2,#SampleApp_RxBuf & 0xff
        MOV       R3,#(SampleApp_RxBuf >> 8) & 0xff
        LCALL     `??OneNet_RevPro::?relay`; Banked call to: OneNet_RevPro
//  560         //debug LED3 
//  561 //        HalLedBlink (HAL_LED_3, 5, 50, 500); //HalLedSet
//  562         SampleApp_RxLen=0;
        MOV       DPTR,#SampleApp_RxLen
        CLR       A
        MOVX      @DPTR,A
        INC       DPTR
        MOVX      @DPTR,A
//  563         osal_memset(SampleApp_RxBuf, 0, SAMPLE_APP_RX_MAX+1);
        ; Setup parameters for call to function osal_memset
        MOV       R4,#-0x37
??SampleApp_CallBack_1:
        MOV       R5,A
        MOV       R1,A
        MOV       R2,#SampleApp_RxBuf & 0xff
        MOV       R3,#(SampleApp_RxBuf >> 8) & 0xff
        LCALL     `??osal_memset::?relay`; Banked call to: osal_memset
//  564       }
//  565   }
//  566 
//  567 }
??SampleApp_CallBack_4:
        MOV       R7,#0x8
        LJMP      ?BANKED_LEAVE_XDATA
          CFI EndBlock cfiBlock20
        REQUIRE _A_P1

        RSEG BANKED_CODE:HUGECODE:NOROOT(0)
?Subroutine3:
          CFI Block cfiCond21 Using cfiCommon0
          CFI Function SampleApp_ProcessEvent
          CFI Conditional ??CrossCallReturnLabel_3
          CFI R6 load(1, XDATA, add(CFA_XSP16, literal(-12)))
          CFI VB load(1, XDATA, add(CFA_XSP16, literal(-11)))
          CFI V0 load(1, XDATA, add(CFA_XSP16, literal(-10)))
          CFI V1 load(1, XDATA, add(CFA_XSP16, literal(-9)))
          CFI V2 load(1, XDATA, add(CFA_XSP16, literal(-8)))
          CFI V3 load(1, XDATA, add(CFA_XSP16, literal(-7)))
          CFI R7 load(1, XDATA, add(CFA_XSP16, literal(-6)))
          CFI ?RET_LOW load(1, XDATA, add(CFA_XSP16, literal(-5)))
          CFI ?RET_HIGH load(1, XDATA, add(CFA_XSP16, literal(-4)))
          CFI ?BRET_EXT load(1, XDATA, add(CFA_XSP16, literal(-3)))
          CFI DPL0 load(1, XDATA, add(CFA_XSP16, literal(-2)))
          CFI DPH0 load(1, XDATA, add(CFA_XSP16, literal(-1)))
          CFI CFA_SP SP+-2
          CFI CFA_XSP16 add(XSP16, 32)
          CFI Block cfiCond22 Using cfiCommon0
          CFI (cfiCond22) Function SampleApp_CallBack
          CFI (cfiCond22) Conditional ??CrossCallReturnLabel_4
          CFI (cfiCond22) R6 load(1, XDATA, add(CFA_XSP16, literal(-16)))
          CFI (cfiCond22) VB load(1, XDATA, add(CFA_XSP16, literal(-15)))
          CFI (cfiCond22) V0 load(1, XDATA, add(CFA_XSP16, literal(-14)))
          CFI (cfiCond22) V1 load(1, XDATA, add(CFA_XSP16, literal(-13)))
          CFI (cfiCond22) V2 load(1, XDATA, add(CFA_XSP16, literal(-12)))
          CFI (cfiCond22) V3 load(1, XDATA, add(CFA_XSP16, literal(-11)))
          CFI (cfiCond22) V4 load(1, XDATA, add(CFA_XSP16, literal(-10)))
          CFI (cfiCond22) V5 load(1, XDATA, add(CFA_XSP16, literal(-9)))
          CFI (cfiCond22) V6 load(1, XDATA, add(CFA_XSP16, literal(-8)))
          CFI (cfiCond22) V7 load(1, XDATA, add(CFA_XSP16, literal(-7)))
          CFI (cfiCond22) R7 load(1, XDATA, add(CFA_XSP16, literal(-6)))
          CFI (cfiCond22) ?RET_LOW load(1, XDATA, add(CFA_XSP16, literal(-5)))
          CFI (cfiCond22) ?RET_HIGH load(1, XDATA, add(CFA_XSP16, literal(-4)))
          CFI (cfiCond22) ?BRET_EXT load(1, XDATA, add(CFA_XSP16, literal(-3)))
          CFI (cfiCond22) DPL0 load(1, XDATA, add(CFA_XSP16, literal(-2)))
          CFI (cfiCond22) DPH0 load(1, XDATA, add(CFA_XSP16, literal(-1)))
          CFI (cfiCond22) CFA_SP SP+-2
          CFI (cfiCond22) CFA_XSP16 add(XSP16, 16)
          CFI Block cfiPicker23 Using cfiCommon1
          CFI (cfiPicker23) NoFunction
          CFI (cfiPicker23) Picker
        MOVX      @DPTR,A
        MOV       DPTR,#SampleApp_RxLen
        CLR       A
        MOVX      @DPTR,A
        INC       DPTR
        MOVX      @DPTR,A
        RET
          CFI EndBlock cfiCond21
          CFI EndBlock cfiCond22
          CFI EndBlock cfiPicker23
//  568 
//  569 #else
//  570 #include "hal_ADC.h"
//  571 /*********************************************************************
//  572  * @fn      SampleApp_Send_P2P_Message
//  573  *
//  574  * @brief   point to point.
//  575  *
//  576  * @param   none
//  577  *
//  578  * @return  none
//  579  */
//  580 void SampleApp_Send_P2P_Message( void )
//  581 {
//  582   uint8 str[5]={0};
//  583   uint8 strTemp[20]={0};
//  584   int len=0;
//  585   
//  586   osal_memset(str,'\0',5);
//  587   osal_memset(strTemp,'\0',20);
//  588   
//  589   DHT11();             //获取温湿度
//  590   
//  591   HalAdcInit();
//  592   uint8 end_light_temp = HalAdcRead(HAL_ADC_CHANNEL_6,HAL_ADC_RESOLUTION_8);
//  593   uint8 end_led3_temp = 0;
//  594   
//  595   if(P1_4 == 1) 
//  596     end_led3_temp = 0;
//  597   else 
//  598     end_led3_temp = 1;
//  599   
//  600   str[0] = wendu;//温度
//  601   str[1] = shidu;//湿度
//  602   
//  603   str[2] = end_light_temp;//亮度
//  604   str[3] = end_led3_temp; //led3状态
//  605   len=4;
//  606 
//  607   sprintf(strTemp, "T&H:%d %d", str[0],str[1]);
//  608   HalLcdWriteString(strTemp, HAL_LCD_LINE_3); //LCD显示
//  609 
//  610   HalUARTWrite(0, strTemp, osal_strlen(strTemp));           //串口输出提示信息
//  611   HalUARTWrite(0, "\r\n",2);
//  612 
//  613   //无线发送到协调器
//  614   if ( AF_DataRequest( &SampleApp_P2P_DstAddr, &SampleApp_epDesc,
//  615                        SAMPLEAPP_P2P_CLUSTERID,
//  616                        len,
//  617                        str,
//  618                        &SampleApp_MsgID,
//  619                        AF_DISCV_ROUTE,
//  620                        AF_DEFAULT_RADIUS ) == afStatus_SUCCESS )
//  621   {
//  622     
//  623   }
//  624   else
//  625   {
//  626     // Error occurred in request to send.
//  627   }
//  628 }
//  629 
//  630 void SampleApp_CallBack(uint8 port, uint8 event)
//  631 {
//  632   (void)port;
//  633 
//  634   HalUARTRead(SAMPLE_APP_PORT, SampleApp_RxBuf, 1);
//  635 
//  636 }
//  637 
//  638 
//  639 #endif
//  640 
//  641 
//  642 //调试信息输出

        RSEG BANKED_CODE:HUGECODE:NOROOT(0)
//  643 void debug(uint8 * msg, ...)
debug:
          CFI Block cfiBlock24 Using cfiCommon0
          CFI Function debug
        CODE
//  644 {
        ; Saved register size: 0
        ; Auto size: 0
//  645 #if 0
//  646     uint8 len=0;
//  647     char info[200] = {0};
//  648     va_list args;
//  649 
//  650     if(msg==NULL) return;
//  651 
//  652     va_start(args, msg);
//  653     vsprintf(info, (const char*)msg, args);//从头插入到info中
//  654     va_end(args);
//  655     
//  656     // my 
//  657     
//  658     len=osal_strlen((char *)info);
//  659     if(len==0) return;
//  660     
//  661     
//  662 
//  663     HalUARTWrite(1,info, len);//串口1发送
//  664     osal_memset(info,'\0',200);
//  665 //    HAL_UART_PORT_0
//  666 #endif
//  667 }
        LJMP      ?BRET
          CFI EndBlock cfiBlock24

        RSEG XDATA_ID:CODE:NOROOT(0)
`?<Initializer for SampleApp_epDesc>`:
        DATA8
        DB 11
        DATA16
        DW SampleApp_TaskID
        DW SampleApp_SimpleDesc
        DATA8
        DB 0

        RSEG BANK_RELAYS:CODE:REORDER:NOROOT(0)
`??SampleApp_Init::?relay`:
        CODE
        LCALL   ?BDISPATCH
        DATA24
        DC24    SampleApp_Init

        RSEG BANK_RELAYS:CODE:REORDER:NOROOT(0)
`??SampleApp_HandleKeys::?relay`:
        CODE
        LCALL   ?BDISPATCH
        DATA24
        DC24    SampleApp_HandleKeys

        RSEG BANK_RELAYS:CODE:REORDER:NOROOT(0)
`??SampleApp_ProcessEvent::?relay`:
        CODE
        LCALL   ?BDISPATCH
        DATA24
        DC24    SampleApp_ProcessEvent

        RSEG BANK_RELAYS:CODE:REORDER:NOROOT(0)
`??ESP8266_SendData::?relay`:
        CODE
        LCALL   ?BDISPATCH
        DATA24
        DC24    ESP8266_SendData

        RSEG BANK_RELAYS:CODE:REORDER:NOROOT(0)
`??mqtt_rx::?relay`:
        CODE
        LCALL   ?BDISPATCH
        DATA24
        DC24    mqtt_rx

        RSEG BANK_RELAYS:CODE:REORDER:NOROOT(0)
`??SampleApp_CallBack::?relay`:
        CODE
        LCALL   ?BDISPATCH
        DATA24
        DC24    SampleApp_CallBack

        RSEG BANK_RELAYS:CODE:REORDER:NOROOT(0)
`??debug::?relay`:
        CODE
        LCALL   ?BDISPATCH
        DATA24
        DC24    debug

        RSEG XDATA_ROM_C:CONST:REORDER:NOROOT(0)
        DATA8
`?<Constant "/post">`:
        DB "/post"

        RSEG XDATA_ROM_C:CONST:REORDER:NOROOT(0)
        DATA8
`?<Constant "/set">`:
        DB "/set"

        RSEG XDATA_ROM_C:CONST:REORDER:NOROOT(0)
        DATA8
`?<Constant "mqtt_topic_test1">`:
        DB "mqtt_topic_test1"

        RSEG XDATA_ROM_C:CONST:REORDER:NOROOT(0)
        DATA8
`?<Constant "{\\"method\\":\\"thing.serv...">`:
        DB 7BH, 22H, 6DH, 65H, 74H, 68H, 6FH, 64H
        DB 22H, 3AH, 22H, 74H, 68H, 69H, 6EH, 67H
        DB 2EH, 73H, 65H, 72H, 76H, 69H, 63H, 65H
        DB 2EH, 70H, 72H, 6FH, 70H, 65H, 72H, 74H
        DB 79H, 2EH, 73H, 65H, 74H, 22H, 2CH, 22H
        DB 69H, 64H, 22H, 3AH, 22H, 36H, 33H, 30H
        DB 32H, 36H, 32H, 33H, 30H, 36H, 22H, 2CH
        DB 22H, 70H, 61H, 72H, 61H, 6DH, 73H, 22H
        DB 3AH, 7BH, 20H, 20H, 20H, 20H, 20H, 20H
        DB 20H, 20H, 20H, 20H, 20H, 20H, 22H, 74H
        DB 65H, 6DH, 70H, 22H, 3AH, 25H, 64H, 2CH
        DB 20H, 20H, 20H, 20H, 20H, 20H, 20H, 20H
        DB 20H, 20H, 20H, 20H, 22H, 68H, 75H, 6DH
        DB 22H, 3AH, 25H, 64H, 2CH, 20H, 20H, 20H
        DB 20H, 20H, 20H, 20H, 20H, 20H, 20H, 20H
        DB 20H, 20H, 20H, 20H, 22H, 65H, 6EH, 64H
        DB 5FH, 6CH, 69H, 67H, 68H, 74H, 22H, 3AH
        DB 25H, 64H, 2CH, 20H, 20H, 20H, 20H, 20H
        DB 20H, 20H, 20H, 20H, 20H, 20H, 20H, 20H
        DB 20H, 22H, 6CH, 65H, 64H, 33H, 22H, 3AH
        DB 25H, 64H, 7DH, 20H, 20H, 20H, 20H, 20H
        DB 20H, 20H, 20H, 7DH, 0

        RSEG XDATA_ROM_C:CONST:REORDER:NOROOT(0)
        DATA8
`?<Constant {0, 0, 0, 0, 0, 0, 0, 0, 0, 0, 0, 0`:
        DB 0
        DB 0
        DB 0
        DB 0
        DB 0
        DB 0
        DB 0
        DB 0
        DB 0
        DB 0
        DB 0
        DB 0
        DB 0
        DB 0
        DB 0
        DB 0
        DB 0
        DB 0
        DB 0
        DB 0

        RSEG XDATA_ROM_C:CONST:REORDER:NOROOT(0)
        DATA8
`?<Constant "T:%d">`:
        DB "T:%d"

        RSEG XDATA_ROM_C:CONST:REORDER:NOROOT(0)
        DATA8
`?<Constant "H:%d">`:
        DB "H:%d"

        RSEG XDATA_ROM_C:CONST:REORDER:NOROOT(0)
        DATA8
`?<Constant "\\"led\\":1">`:
        DB "\"led\":1"

        RSEG XDATA_ROM_C:CONST:REORDER:NOROOT(0)
        DATA8
`?<Constant "\\"led\\":0">`:
        DB "\"led\":0"

        RSEG XDATA_ROM_C:CONST:REORDER:NOROOT(0)
        DATA8
`?<Constant "rx len=%d.\\r\\n">`:
        DB "rx len=%d.\015\012"

        RSEG XDATA_ROM_C:CONST:REORDER:NOROOT(0)
        DATA32
__Constant_3e8:
        DD 1000

        END
//  668 
//  669 
// 
// 1 115 bytes in segment BANKED_CODE
//    42 bytes in segment BANK_RELAYS
//     4 bytes in segment SFR_AN
//     6 bytes in segment XDATA_I
//     6 bytes in segment XDATA_ID
//   284 bytes in segment XDATA_ROM_C
//   597 bytes in segment XDATA_Z
// 
//    48 bytes of CODE     memory
//   280 bytes of CONST    memory (+ 4 bytes shared)
//     0 bytes of DATA     memory (+ 4 bytes shared)
// 1 115 bytes of HUGECODE memory
//   603 bytes of XDATA    memory
//
//Errors: none
//Warnings: 20
